GAS LISTING /tmp/ccAuzLEp.s 			page 1


   1              		.file	"console.c"
   2              		.local	_ZL5g_str
   3              		.comm	_ZL5g_str,1000,32
   4              		.section	.rodata
   5              	.LC0:
   6 0000 257300   		.string	"%s"
   7              	.LC1:
   8 0003 00       		.string	""
   9              		.text
  11              	_ZL9getStringv:
  12              	.LFB0:
  13              		.cfi_startproc
  14 0000 55       		pushq	%rbp
  15              		.cfi_def_cfa_offset 16
  16              		.cfi_offset 6, -16
  17 0001 4889E5   		movq	%rsp, %rbp
  18              		.cfi_def_cfa_register 6
  19 0004 BE000000 		movl	$_ZL5g_str, %esi
  19      00
  20 0009 BF000000 		movl	$.LC0, %edi
  20      00
  21 000e B8000000 		movl	$0, %eax
  21      00
  22 0013 E8000000 		call	scanf
  22      00
  23 0018 83F801   		cmpl	$1, %eax
  24 001b 0F95C0   		setne	%al
  25 001e 84C0     		testb	%al, %al
  26 0020 740D     		je	.L2
  27 0022 0FB60500 		movzbl	.LC1(%rip), %eax
  27      000000
  28 0029 88050000 		movb	%al, _ZL5g_str(%rip)
  28      0000
  29              	.L2:
  30 002f B8000000 		movl	$_ZL5g_str, %eax
  30      00
  31 0034 5D       		popq	%rbp
  32              		.cfi_def_cfa 7, 8
  33 0035 C3       		ret
  34              		.cfi_endproc
  35              	.LFE0:
  38              	_ZL9putStringPKc:
  39              	.LFB1:
  40              		.cfi_startproc
  41 0036 55       		pushq	%rbp
  42              		.cfi_def_cfa_offset 16
  43              		.cfi_offset 6, -16
  44 0037 4889E5   		movq	%rsp, %rbp
  45              		.cfi_def_cfa_register 6
  46 003a 4883EC10 		subq	$16, %rsp
  47 003e 48897DF8 		movq	%rdi, -8(%rbp)
  48 0042 488B45F8 		movq	-8(%rbp), %rax
  49 0046 4889C6   		movq	%rax, %rsi
  50 0049 BF000000 		movl	$.LC0, %edi
  50      00
  51 004e B8000000 		movl	$0, %eax
  51      00
GAS LISTING /tmp/ccAuzLEp.s 			page 2


  52 0053 E8000000 		call	printf
  52      00
  53 0058 90       		nop
  54 0059 C9       		leave
  55              		.cfi_def_cfa 7, 8
  56 005a C3       		ret
  57              		.cfi_endproc
  58              	.LFE1:
  60              		.section	.rodata
  61              	.LC2:
  62 0004 256900   		.string	"%i"
  63              		.text
  65              	_ZL6putNumi:
  66              	.LFB2:
  67              		.cfi_startproc
  68 005b 55       		pushq	%rbp
  69              		.cfi_def_cfa_offset 16
  70              		.cfi_offset 6, -16
  71 005c 4889E5   		movq	%rsp, %rbp
  72              		.cfi_def_cfa_register 6
  73 005f 4883EC10 		subq	$16, %rsp
  74 0063 897DFC   		movl	%edi, -4(%rbp)
  75 0066 8B45FC   		movl	-4(%rbp), %eax
  76 0069 89C6     		movl	%eax, %esi
  77 006b BF000000 		movl	$.LC2, %edi
  77      00
  78 0070 B8000000 		movl	$0, %eax
  78      00
  79 0075 E8000000 		call	printf
  79      00
  80 007a 90       		nop
  81 007b C9       		leave
  82              		.cfi_def_cfa 7, 8
  83 007c C3       		ret
  84              		.cfi_endproc
  85              	.LFE2:
  88              	_ZL12console_initP7console:
  89              	.LFB3:
  90              		.cfi_startproc
  91 007d 55       		pushq	%rbp
  92              		.cfi_def_cfa_offset 16
  93              		.cfi_offset 6, -16
  94 007e 4889E5   		movq	%rsp, %rbp
  95              		.cfi_def_cfa_register 6
  96 0081 48897DF8 		movq	%rdi, -8(%rbp)
  97 0085 488B45F8 		movq	-8(%rbp), %rax
  98 0089 48C70000 		movq	$_ZL9getStringv, (%rax)
  98      000000
  99 0090 488B45F8 		movq	-8(%rbp), %rax
 100 0094 48C74008 		movq	$_ZL9putStringPKc, 8(%rax)
 100      00000000 
 101 009c 488B45F8 		movq	-8(%rbp), %rax
 102 00a0 48C74010 		movq	$_ZL6putNumi, 16(%rax)
 102      00000000 
 103 00a8 90       		nop
 104 00a9 5D       		popq	%rbp
 105              		.cfi_def_cfa 7, 8
GAS LISTING /tmp/ccAuzLEp.s 			page 3


 106 00aa C3       		ret
 107              		.cfi_endproc
 108              	.LFE3:
 110              		.globl	_Z13console_buildv
 112              	_Z13console_buildv:
 113              	.LFB4:
 114              		.cfi_startproc
 115 00ab 55       		pushq	%rbp
 116              		.cfi_def_cfa_offset 16
 117              		.cfi_offset 6, -16
 118 00ac 4889E5   		movq	%rsp, %rbp
 119              		.cfi_def_cfa_register 6
 120 00af 4883EC20 		subq	$32, %rsp
 121 00b3 48897DE8 		movq	%rdi, -24(%rbp)
 122 00b7 64488B04 		movq	%fs:40, %rax
 122      25280000 
 122      00
 123 00c0 488945F8 		movq	%rax, -8(%rbp)
 124 00c4 31C0     		xorl	%eax, %eax
 125 00c6 488B45E8 		movq	-24(%rbp), %rax
 126 00ca 4889C7   		movq	%rax, %rdi
 127 00cd E8ABFFFF 		call	_ZL12console_initP7console
 127      FF
 128 00d2 90       		nop
 129 00d3 488B45E8 		movq	-24(%rbp), %rax
 130 00d7 488B55F8 		movq	-8(%rbp), %rdx
 131 00db 64483314 		xorq	%fs:40, %rdx
 131      25280000 
 131      00
 132 00e4 7405     		je	.L9
 133 00e6 E8000000 		call	__stack_chk_fail
 133      00
 134              	.L9:
 135 00eb C9       		leave
 136              		.cfi_def_cfa 7, 8
 137 00ec C3       		ret
 138              		.cfi_endproc
 139              	.LFE4:
 141              		.ident	"GCC: (Ubuntu 5.4.0-6ubuntu1~16.04.5) 5.4.0 20160609"
 142              		.section	.note.GNU-stack,"",@progbits
GAS LISTING /tmp/ccAuzLEp.s 			page 4

