GAS LISTING /tmp/ccj7sGND.s 			page 1


   1              		.file	"hsm_build_test.cpp"
   2              		.section	.text._ZN14TestTerminatorC2Ev,"axG",@progbits,_ZN14TestTerminatorC5Ev,comdat
   3              		.align 2
   4              		.weak	_ZN14TestTerminatorC2Ev
   6              	_ZN14TestTerminatorC2Ev:
   7              	.LFB611:
   8              		.cfi_startproc
   9 0000 55       		pushq	%rbp
  10              		.cfi_def_cfa_offset 16
  11              		.cfi_offset 6, -16
  12 0001 4889E5   		movq	%rsp, %rbp
  13              		.cfi_def_cfa_register 6
  14 0004 48897DF8 		movq	%rdi, -8(%rbp)
  15 0008 BA000000 		movl	$_ZTV14TestTerminator+16, %edx
  15      00
  16 000d 488B45F8 		movq	-8(%rbp), %rax
  17 0011 488910   		movq	%rdx, (%rax)
  18 0014 90       		nop
  19 0015 5D       		popq	%rbp
  20              		.cfi_def_cfa 7, 8
  21 0016 C3       		ret
  22              		.cfi_endproc
  23              	.LFE611:
  25              		.weak	_ZN14TestTerminatorC1Ev
  26              		.set	_ZN14TestTerminatorC1Ev,_ZN14TestTerminatorC2Ev
  27              		.section	.text._ZN20NormalTestTerminatorC2Ev,"axG",@progbits,_ZN20NormalTestTerminatorC5Ev,comdat
  28              		.align 2
  29              		.weak	_ZN20NormalTestTerminatorC2Ev
  31              	_ZN20NormalTestTerminatorC2Ev:
  32              	.LFB613:
  33              		.cfi_startproc
  34 0000 55       		pushq	%rbp
  35              		.cfi_def_cfa_offset 16
  36              		.cfi_offset 6, -16
  37 0001 4889E5   		movq	%rsp, %rbp
  38              		.cfi_def_cfa_register 6
  39 0004 4883EC10 		subq	$16, %rsp
  40 0008 48897DF8 		movq	%rdi, -8(%rbp)
  41 000c 488B45F8 		movq	-8(%rbp), %rax
  42 0010 4889C7   		movq	%rax, %rdi
  43 0013 E8000000 		call	_ZN14TestTerminatorC2Ev
  43      00
  44 0018 BA000000 		movl	$_ZTV20NormalTestTerminator+16, %edx
  44      00
  45 001d 488B45F8 		movq	-8(%rbp), %rax
  46 0021 488910   		movq	%rdx, (%rax)
  47 0024 90       		nop
  48 0025 C9       		leave
  49              		.cfi_def_cfa 7, 8
  50 0026 C3       		ret
  51              		.cfi_endproc
  52              	.LFE613:
  54              		.weak	_ZN20NormalTestTerminatorC1Ev
  55              		.set	_ZN20NormalTestTerminatorC1Ev,_ZN20NormalTestTerminatorC2Ev
  56              		.globl	parentState
  57              		.bss
  58              		.align 32
GAS LISTING /tmp/ccj7sGND.s 			page 2


  61              	parentState:
  62 0000 00000000 		.zero	72
  62      00000000 
  62      00000000 
  62      00000000 
  62      00000000 
  63              		.globl	childState
  64              		.data
  65              		.align 32
  68              	childState:
  69 0000 00000000 		.quad	0
  69      00000000 
  70 0008 00000000 		.quad	parentState
  70      00000000 
  71 0010 00000000 		.quad	0
  71      00000000 
  72 0018 00000000 		.quad	0
  72      00000000 
  73 0020 00000000 		.quad	0
  73      00000000 
  74 0028 00000000 		.quad	0
  74      00000000 
  75 0030 00000000 		.long	0
  76 0034 00000000 		.zero	20
  76      00000000 
  76      00000000 
  76      00000000 
  76      00000000 
  77 0048 00000000 		.align 16
  77      00000000 
  80              	_ZL9stateList:
  81 0050 00000000 		.quad	parentState
  81      00000000 
  82 0058 00000000 		.quad	childState
  82      00000000 
  83              		.globl	externTestGrouphsm_build
  84              		.bss
  85              		.align 4
  88              	externTestGrouphsm_build:
  89 0048 00000000 		.zero	4
  90              		.section	.text._ZN33TEST_GROUP_CppUTestGrouphsm_build5setupEv,"axG",@progbits,_ZN33TEST_GROUP_CppU
  91              		.align 2
  92              		.weak	_ZN33TEST_GROUP_CppUTestGrouphsm_build5setupEv
  94              	_ZN33TEST_GROUP_CppUTestGrouphsm_build5setupEv:
  95              	.LFB692:
  96              		.cfi_startproc
  97 0000 55       		pushq	%rbp
  98              		.cfi_def_cfa_offset 16
  99              		.cfi_offset 6, -16
 100 0001 4889E5   		movq	%rsp, %rbp
 101              		.cfi_def_cfa_register 6
 102 0004 48897DF8 		movq	%rdi, -8(%rbp)
 103 0008 B8020000 		movl	$2, %eax
 103      00
 104 000d 89C2     		movl	%eax, %edx
 105 000f 488B45F8 		movq	-8(%rbp), %rax
 106 0013 895028   		movl	%edx, 40(%rax)
GAS LISTING /tmp/ccj7sGND.s 			page 3


 107 0016 90       		nop
 108 0017 5D       		popq	%rbp
 109              		.cfi_def_cfa 7, 8
 110 0018 C3       		ret
 111              		.cfi_endproc
 112              	.LFE692:
 114              		.section	.text._ZN33TEST_GROUP_CppUTestGrouphsm_build8teardownEv,"axG",@progbits,_ZN33TEST_GROUP_C
 115              		.align 2
 116              		.weak	_ZN33TEST_GROUP_CppUTestGrouphsm_build8teardownEv
 118              	_ZN33TEST_GROUP_CppUTestGrouphsm_build8teardownEv:
 119              	.LFB693:
 120              		.cfi_startproc
 121 0000 55       		pushq	%rbp
 122              		.cfi_def_cfa_offset 16
 123              		.cfi_offset 6, -16
 124 0001 4889E5   		movq	%rsp, %rbp
 125              		.cfi_def_cfa_register 6
 126 0004 48897DF8 		movq	%rdi, -8(%rbp)
 127 0008 90       		nop
 128 0009 5D       		popq	%rbp
 129              		.cfi_def_cfa 7, 8
 130 000a C3       		ret
 131              		.cfi_endproc
 132              	.LFE693:
 134              		.section	.text._ZN33TEST_GROUP_CppUTestGrouphsm_buildC2Ev,"axG",@progbits,_ZN33TEST_GROUP_CppUTest
 135              		.align 2
 136              		.weak	_ZN33TEST_GROUP_CppUTestGrouphsm_buildC2Ev
 138              	_ZN33TEST_GROUP_CppUTestGrouphsm_buildC2Ev:
 139              	.LFB696:
 140              		.cfi_startproc
 141 0000 55       		pushq	%rbp
 142              		.cfi_def_cfa_offset 16
 143              		.cfi_offset 6, -16
 144 0001 4889E5   		movq	%rsp, %rbp
 145              		.cfi_def_cfa_register 6
 146 0004 4883EC10 		subq	$16, %rsp
 147 0008 48897DF8 		movq	%rdi, -8(%rbp)
 148 000c 488B45F8 		movq	-8(%rbp), %rax
 149 0010 4889C7   		movq	%rax, %rdi
 150 0013 E8000000 		call	_ZN5UtestC2Ev
 150      00
 151 0018 BA000000 		movl	$_ZTV33TEST_GROUP_CppUTestGrouphsm_build+16, %edx
 151      00
 152 001d 488B45F8 		movq	-8(%rbp), %rax
 153 0021 488910   		movq	%rdx, (%rax)
 154 0024 90       		nop
 155 0025 C9       		leave
 156              		.cfi_def_cfa 7, 8
 157 0026 C3       		ret
 158              		.cfi_endproc
 159              	.LFE696:
 161              		.weak	_ZN33TEST_GROUP_CppUTestGrouphsm_buildC1Ev
 162              		.set	_ZN33TEST_GROUP_CppUTestGrouphsm_buildC1Ev,_ZN33TEST_GROUP_CppUTestGrouphsm_buildC2Ev
 163              		.section	.text._ZN33TEST_GROUP_CppUTestGrouphsm_buildD2Ev,"axG",@progbits,_ZN33TEST_GROUP_CppUTest
 164              		.align 2
 165              		.weak	_ZN33TEST_GROUP_CppUTestGrouphsm_buildD2Ev
 167              	_ZN33TEST_GROUP_CppUTestGrouphsm_buildD2Ev:
GAS LISTING /tmp/ccj7sGND.s 			page 4


 168              	.LFB699:
 169              		.cfi_startproc
 170 0000 55       		pushq	%rbp
 171              		.cfi_def_cfa_offset 16
 172              		.cfi_offset 6, -16
 173 0001 4889E5   		movq	%rsp, %rbp
 174              		.cfi_def_cfa_register 6
 175 0004 4883EC10 		subq	$16, %rsp
 176 0008 48897DF8 		movq	%rdi, -8(%rbp)
 177 000c BA000000 		movl	$_ZTV33TEST_GROUP_CppUTestGrouphsm_build+16, %edx
 177      00
 178 0011 488B45F8 		movq	-8(%rbp), %rax
 179 0015 488910   		movq	%rdx, (%rax)
 180 0018 488B45F8 		movq	-8(%rbp), %rax
 181 001c 4889C7   		movq	%rax, %rdi
 182 001f E8000000 		call	_ZN5UtestD2Ev
 182      00
 183 0024 B8000000 		movl	$0, %eax
 183      00
 184 0029 85C0     		testl	%eax, %eax
 185 002b 740C     		je	.L6
 186 002d 488B45F8 		movq	-8(%rbp), %rax
 187 0031 4889C7   		movq	%rax, %rdi
 188 0034 E8000000 		call	_ZdlPv
 188      00
 189              	.L6:
 190 0039 C9       		leave
 191              		.cfi_def_cfa 7, 8
 192 003a C3       		ret
 193              		.cfi_endproc
 194              	.LFE699:
 196              		.weak	_ZN33TEST_GROUP_CppUTestGrouphsm_buildD1Ev
 197              		.set	_ZN33TEST_GROUP_CppUTestGrouphsm_buildD1Ev,_ZN33TEST_GROUP_CppUTestGrouphsm_buildD2Ev
 198              		.section	.text._ZN33TEST_GROUP_CppUTestGrouphsm_buildD0Ev,"axG",@progbits,_ZN33TEST_GROUP_CppUTest
 199              		.align 2
 200              		.weak	_ZN33TEST_GROUP_CppUTestGrouphsm_buildD0Ev
 202              	_ZN33TEST_GROUP_CppUTestGrouphsm_buildD0Ev:
 203              	.LFB701:
 204              		.cfi_startproc
 205 0000 55       		pushq	%rbp
 206              		.cfi_def_cfa_offset 16
 207              		.cfi_offset 6, -16
 208 0001 4889E5   		movq	%rsp, %rbp
 209              		.cfi_def_cfa_register 6
 210 0004 4883EC10 		subq	$16, %rsp
 211 0008 48897DF8 		movq	%rdi, -8(%rbp)
 212 000c 488B45F8 		movq	-8(%rbp), %rax
 213 0010 4889C7   		movq	%rax, %rdi
 214 0013 E8000000 		call	_ZN33TEST_GROUP_CppUTestGrouphsm_buildD1Ev
 214      00
 215 0018 488B45F8 		movq	-8(%rbp), %rax
 216 001c 4889C7   		movq	%rax, %rdi
 217 001f E8000000 		call	_ZdlPv
 217      00
 218 0024 C9       		leave
 219              		.cfi_def_cfa 7, 8
 220 0025 C3       		ret
GAS LISTING /tmp/ccj7sGND.s 			page 5


 221              		.cfi_endproc
 222              	.LFE701:
 224              		.section	.text._ZN79TEST_hsm_build_Should_InitializeValidHsmHandle_When_ValidInitialStateGiven_Tes
 225              		.align 2
 226              		.weak	_ZN79TEST_hsm_build_Should_InitializeValidHsmHandle_When_ValidInitialStateGiven_TestC2Ev
 228              	_ZN79TEST_hsm_build_Should_InitializeValidHsmHandle_When_ValidInitialStateGiven_TestC2Ev:
 229              	.LFB702:
 230              		.cfi_startproc
 231 0000 55       		pushq	%rbp
 232              		.cfi_def_cfa_offset 16
 233              		.cfi_offset 6, -16
 234 0001 4889E5   		movq	%rsp, %rbp
 235              		.cfi_def_cfa_register 6
 236 0004 4883EC10 		subq	$16, %rsp
 237 0008 48897DF8 		movq	%rdi, -8(%rbp)
 238 000c 488B45F8 		movq	-8(%rbp), %rax
 239 0010 48C70000 		movq	$0, (%rax)
 239      000000
 240 0017 488B45F8 		movq	-8(%rbp), %rax
 241 001b 48C74008 		movq	$0, 8(%rax)
 241      00000000 
 242 0023 488B45F8 		movq	-8(%rbp), %rax
 243 0027 48C74010 		movq	$0, 16(%rax)
 243      00000000 
 244 002f 488B45F8 		movq	-8(%rbp), %rax
 245 0033 48C74018 		movq	$0, 24(%rax)
 245      00000000 
 246 003b 488B45F8 		movq	-8(%rbp), %rax
 247 003f C7402000 		movl	$0, 32(%rax)
 247      000000
 248 0046 488B45F8 		movq	-8(%rbp), %rax
 249 004a C7402800 		movl	$0, 40(%rax)
 249      000000
 250 0051 488B45F8 		movq	-8(%rbp), %rax
 251 0055 4889C7   		movq	%rax, %rdi
 252 0058 E8000000 		call	_ZN33TEST_GROUP_CppUTestGrouphsm_buildC2Ev
 252      00
 253 005d BA000000 		movl	$_ZTV79TEST_hsm_build_Should_InitializeValidHsmHandle_When_ValidInitialStateGiven_Test+16, %e
 253      00
 254 0062 488B45F8 		movq	-8(%rbp), %rax
 255 0066 488910   		movq	%rdx, (%rax)
 256 0069 90       		nop
 257 006a C9       		leave
 258              		.cfi_def_cfa 7, 8
 259 006b C3       		ret
 260              		.cfi_endproc
 261              	.LFE702:
 263              		.weak	_ZN79TEST_hsm_build_Should_InitializeValidHsmHandle_When_ValidInitialStateGiven_TestC1Ev
 264              		.set	_ZN79TEST_hsm_build_Should_InitializeValidHsmHandle_When_ValidInitialStateGiven_TestC1Ev,_ZN7
 265              		.section	.rodata
 266              		.align 8
 267              	.LC0:
 268 0000 74657374 		.string	"tests/fsm/methods/hsm_build_test.cpp"
 268      732F6673 
 268      6D2F6D65 
 268      74686F64 
 268      732F6873 
GAS LISTING /tmp/ccj7sGND.s 			page 6


 269              		.section	.text._ZN84TEST_hsm_build_Should_InitializeValidHsmHandle_When_ValidInitialStateGiven_Tes
 270              		.align 2
 271              		.weak	_ZN84TEST_hsm_build_Should_InitializeValidHsmHandle_When_ValidInitialStateGiven_TestShell10c
 273              	_ZN84TEST_hsm_build_Should_InitializeValidHsmHandle_When_ValidInitialStateGiven_TestShell10createTe
 274              	.LFB704:
 275              		.cfi_startproc
 276              		.cfi_personality 0x3,__gxx_personality_v0
 277              		.cfi_lsda 0x3,.LLSDA704
 278 0000 55       		pushq	%rbp
 279              		.cfi_def_cfa_offset 16
 280              		.cfi_offset 6, -16
 281 0001 4889E5   		movq	%rsp, %rbp
 282              		.cfi_def_cfa_register 6
 283 0004 4154     		pushq	%r12
 284 0006 53       		pushq	%rbx
 285 0007 4883EC10 		subq	$16, %rsp
 286              		.cfi_offset 12, -24
 287              		.cfi_offset 3, -32
 288 000b 48897DE8 		movq	%rdi, -24(%rbp)
 289 000f BA380000 		movl	$56, %edx
 289      00
 290 0014 BE000000 		movl	$.LC0, %esi
 290      00
 291 0019 BF300000 		movl	$48, %edi
 291      00
 292              	.LEHB0:
 293 001e E8000000 		call	_ZnwmPKci
 293      00
 294              	.LEHE0:
 295 0023 4889C3   		movq	%rax, %rbx
 296 0026 4889DF   		movq	%rbx, %rdi
 297              	.LEHB1:
 298 0029 E8000000 		call	_ZN79TEST_hsm_build_Should_InitializeValidHsmHandle_When_ValidInitialStateGiven_TestC1Ev
 298      00
 299              	.LEHE1:
 300 002e 4889D8   		movq	%rbx, %rax
 301 0031 EB20     		jmp	.L14
 302              	.L13:
 303 0033 4989C4   		movq	%rax, %r12
 304 0036 BA380000 		movl	$56, %edx
 304      00
 305 003b BE000000 		movl	$.LC0, %esi
 305      00
 306 0040 4889DF   		movq	%rbx, %rdi
 307 0043 E8000000 		call	_ZdlPvPKci
 307      00
 308 0048 4C89E0   		movq	%r12, %rax
 309 004b 4889C7   		movq	%rax, %rdi
 310              	.LEHB2:
 311 004e E8000000 		call	_Unwind_Resume
 311      00
 312              	.LEHE2:
 313              	.L14:
 314 0053 4883C410 		addq	$16, %rsp
 315 0057 5B       		popq	%rbx
 316 0058 415C     		popq	%r12
 317 005a 5D       		popq	%rbp
GAS LISTING /tmp/ccj7sGND.s 			page 7


 318              		.cfi_def_cfa 7, 8
 319 005b C3       		ret
 320              		.cfi_endproc
 321              	.LFE704:
 322              		.globl	__gxx_personality_v0
 323              		.section	.gcc_except_table._ZN84TEST_hsm_build_Should_InitializeValidHsmHandle_When_ValidInitialSt
 324              	.LLSDA704:
 325 0000 FF       		.byte	0xff
 326 0001 FF       		.byte	0xff
 327 0002 01       		.byte	0x1
 328 0003 0C       		.uleb128 .LLSDACSE704-.LLSDACSB704
 329              	.LLSDACSB704:
 330 0004 1E       		.uleb128 .LEHB0-.LFB704
 331 0005 05       		.uleb128 .LEHE0-.LEHB0
 332 0006 00       		.uleb128 0
 333 0007 00       		.uleb128 0
 334 0008 29       		.uleb128 .LEHB1-.LFB704
 335 0009 05       		.uleb128 .LEHE1-.LEHB1
 336 000a 33       		.uleb128 .L13-.LFB704
 337 000b 00       		.uleb128 0
 338 000c 4E       		.uleb128 .LEHB2-.LFB704
 339 000d 05       		.uleb128 .LEHE2-.LEHB2
 340 000e 00       		.uleb128 0
 341 000f 00       		.uleb128 0
 342              	.LLSDACSE704:
 343              		.section	.text._ZN84TEST_hsm_build_Should_InitializeValidHsmHandle_When_ValidInitialStateGiven_Tes
 345              		.section	.text._ZN84TEST_hsm_build_Should_InitializeValidHsmHandle_When_ValidInitialStateGiven_Tes
 346              		.align 2
 347              		.weak	_ZN84TEST_hsm_build_Should_InitializeValidHsmHandle_When_ValidInitialStateGiven_TestShellC2E
 349              	_ZN84TEST_hsm_build_Should_InitializeValidHsmHandle_When_ValidInitialStateGiven_TestShellC2Ev:
 350              	.LFB706:
 351              		.cfi_startproc
 352 0000 55       		pushq	%rbp
 353              		.cfi_def_cfa_offset 16
 354              		.cfi_offset 6, -16
 355 0001 4889E5   		movq	%rsp, %rbp
 356              		.cfi_def_cfa_register 6
 357 0004 4883EC10 		subq	$16, %rsp
 358 0008 48897DF8 		movq	%rdi, -8(%rbp)
 359 000c 488B45F8 		movq	-8(%rbp), %rax
 360 0010 4889C7   		movq	%rax, %rdi
 361 0013 E8000000 		call	_ZN10UtestShellC2Ev
 361      00
 362 0018 BA000000 		movl	$_ZTV84TEST_hsm_build_Should_InitializeValidHsmHandle_When_ValidInitialStateGiven_TestShell+1
 362      00
 363 001d 488B45F8 		movq	-8(%rbp), %rax
 364 0021 488910   		movq	%rdx, (%rax)
 365 0024 90       		nop
 366 0025 C9       		leave
 367              		.cfi_def_cfa 7, 8
 368 0026 C3       		ret
 369              		.cfi_endproc
 370              	.LFE706:
 372              		.weak	_ZN84TEST_hsm_build_Should_InitializeValidHsmHandle_When_ValidInitialStateGiven_TestShellC1E
 373              		.set	_ZN84TEST_hsm_build_Should_InitializeValidHsmHandle_When_ValidInitialStateGiven_TestShellC1Ev
 374              		.globl	TEST_hsm_build_Should_InitializeValidHsmHandle_When_ValidInitialStateGiven_TestShell_instan
 375              		.bss
GAS LISTING /tmp/ccj7sGND.s 			page 8


 376 004c 00000000 		.align 32
 376      00000000 
 376      00000000 
 376      00000000 
 376      00000000 
 379              	TEST_hsm_build_Should_InitializeValidHsmHandle_When_ValidInitialStateGiven_TestShell_instance:
 380 0060 00000000 		.zero	56
 380      00000000 
 380      00000000 
 380      00000000 
 380      00000000 
 381              		.local	_ZL84TEST_hsm_build_Should_InitializeValidHsmHandle_When_ValidInitialStateGiven_Installer
 382              		.comm	_ZL84TEST_hsm_build_Should_InitializeValidHsmHandle_When_ValidInitialStateGiven_Installer,8,
 383              		.text
 384              		.align 2
 385              		.globl	_ZN79TEST_hsm_build_Should_InitializeValidHsmHandle_When_ValidInitialStateGiven_Test8testBo
 387              	_ZN79TEST_hsm_build_Should_InitializeValidHsmHandle_When_ValidInitialStateGiven_Test8testBodyEv:
 388              	.LFB708:
 389              		.cfi_startproc
 390              		.cfi_personality 0x3,__gxx_personality_v0
 391              		.cfi_lsda 0x3,.LLSDA708
 392 0000 55       		pushq	%rbp
 393              		.cfi_def_cfa_offset 16
 394              		.cfi_offset 6, -16
 395 0001 4889E5   		movq	%rsp, %rbp
 396              		.cfi_def_cfa_register 6
 397 0004 4154     		pushq	%r12
 398 0006 53       		pushq	%rbx
 399 0007 4883EC40 		subq	$64, %rsp
 400              		.cfi_offset 12, -24
 401              		.cfi_offset 3, -32
 402 000b 48897DD8 		movq	%rdi, -40(%rbp)
 403 000f 64488B04 		movq	%fs:40, %rax
 403      25280000 
 403      00
 404 0018 488945E8 		movq	%rax, -24(%rbp)
 405 001c 31C0     		xorl	%eax, %eax
 406 001e B8020000 		movl	$2, %eax
 406      00
 407 0023 89C2     		movl	%eax, %edx
 408 0025 488B5DD8 		movq	-40(%rbp), %rbx
 409 0029 488D45B0 		leaq	-80(%rbp), %rax
 410 002d 89D1     		movl	%edx, %ecx
 411 002f BA000000 		movl	$_ZL9stateList, %edx
 411      00
 412 0034 BE000000 		movl	$parentState, %esi
 412      00
 413 0039 4889C7   		movq	%rax, %rdi
 414              	.LEHB3:
 415 003c E8000000 		call	_Z10_hsm_buildPK5statePPS_j
 415      00
 416 0041 488B45B0 		movq	-80(%rbp), %rax
 417 0045 48894308 		movq	%rax, 8(%rbx)
 418 0049 488B45B8 		movq	-72(%rbp), %rax
 419 004d 48894310 		movq	%rax, 16(%rbx)
 420 0051 488B45C0 		movq	-64(%rbp), %rax
 421 0055 48894318 		movq	%rax, 24(%rbx)
GAS LISTING /tmp/ccj7sGND.s 			page 9


 422 0059 488B45C8 		movq	-56(%rbp), %rax
 423 005d 48894320 		movq	%rax, 32(%rbx)
 424 0061 E8000000 		call	_ZN10UtestShell10getCurrentEv
 424      00
 425 0066 488B10   		movq	(%rax), %rdx
 426 0069 4881C288 		addq	$136, %rdx
 426      000000
 427 0070 4C8B0A   		movq	(%rdx), %r9
 428 0073 488B55D8 		movq	-40(%rbp), %rdx
 429 0077 488B5208 		movq	8(%rdx), %rdx
 430 007b 41B83E00 		movl	$62, %r8d
 430      0000
 431 0081 B9000000 		movl	$.LC0, %ecx
 431      00
 432 0086 BE000000 		movl	$parentState, %esi
 432      00
 433 008b 4889C7   		movq	%rax, %rdi
 434 008e 41FFD1   		call	*%r9
 435 0091 E8000000 		call	_ZN10UtestShell10getCurrentEv
 435      00
 436 0096 488B10   		movq	(%rax), %rdx
 437 0099 4881C288 		addq	$136, %rdx
 437      000000
 438 00a0 4C8B0A   		movq	(%rdx), %r9
 439 00a3 488B55D8 		movq	-40(%rbp), %rdx
 440 00a7 488B5210 		movq	16(%rdx), %rdx
 441 00ab 41B83F00 		movl	$63, %r8d
 441      0000
 442 00b1 B9000000 		movl	$.LC0, %ecx
 442      00
 443 00b6 BE000000 		movl	$parentState, %esi
 443      00
 444 00bb 4889C7   		movq	%rax, %rdi
 445 00be 41FFD1   		call	*%r9
 446 00c1 E8000000 		call	_ZN10UtestShell10getCurrentEv
 446      00
 447 00c6 488B10   		movq	(%rax), %rdx
 448 00c9 4881C288 		addq	$136, %rdx
 448      000000
 449 00d0 4C8B0A   		movq	(%rdx), %r9
 450 00d3 488B55D8 		movq	-40(%rbp), %rdx
 451 00d7 488B5218 		movq	24(%rdx), %rdx
 452 00db 41B84000 		movl	$64, %r8d
 452      0000
 453 00e1 B9000000 		movl	$.LC0, %ecx
 453      00
 454 00e6 BE000000 		movl	$_ZL9stateList, %esi
 454      00
 455 00eb 4889C7   		movq	%rax, %rdi
 456 00ee 41FFD1   		call	*%r9
 457 00f1 E8000000 		call	_ZN10UtestShell10getCurrentEv
 457      00
 458              	.LEHE3:
 459 00f6 4889C3   		movq	%rax, %rbx
 460 00f9 488B03   		movq	(%rbx), %rax
 461 00fc 4883C078 		addq	$120, %rax
 462 0100 4C8B20   		movq	(%rax), %r12
GAS LISTING /tmp/ccj7sGND.s 			page 10


 463 0103 48C745E0 		movq	$0, -32(%rbp)
 463      00000000 
 464 010b 488D45E0 		leaq	-32(%rbp), %rax
 465 010f 4889C7   		movq	%rax, %rdi
 466 0112 E8000000 		call	_ZN20NormalTestTerminatorC1Ev
 466      00
 467 0117 488B45D8 		movq	-40(%rbp), %rax
 468 011b 8B4020   		movl	32(%rax), %eax
 469 011e 89C2     		movl	%eax, %edx
 470 0120 488B45D8 		movq	-40(%rbp), %rax
 471 0124 8B4028   		movl	40(%rax), %eax
 472 0127 89C6     		movl	%eax, %esi
 473 0129 488D45E0 		leaq	-32(%rbp), %rax
 474 012d 4989C1   		movq	%rax, %r9
 475 0130 41B84100 		movl	$65, %r8d
 475      0000
 476 0136 B9000000 		movl	$.LC0, %ecx
 476      00
 477 013b 4889DF   		movq	%rbx, %rdi
 478              	.LEHB4:
 479 013e 41FFD4   		call	*%r12
 480              	.LEHE4:
 481 0141 488D45E0 		leaq	-32(%rbp), %rax
 482 0145 4889C7   		movq	%rax, %rdi
 483              	.LEHB5:
 484 0148 E8000000 		call	_ZN20NormalTestTerminatorD1Ev
 484      00
 485              	.LEHE5:
 486 014d 90       		nop
 487 014e 488B45E8 		movq	-24(%rbp), %rax
 488 0152 64483304 		xorq	%fs:40, %rax
 488      25280000 
 488      00
 489 015b 7421     		je	.L18
 490 015d EB1A     		jmp	.L20
 491              	.L19:
 492 015f 4889C3   		movq	%rax, %rbx
 493 0162 488D45E0 		leaq	-32(%rbp), %rax
 494 0166 4889C7   		movq	%rax, %rdi
 495 0169 E8000000 		call	_ZN20NormalTestTerminatorD1Ev
 495      00
 496 016e 4889D8   		movq	%rbx, %rax
 497 0171 4889C7   		movq	%rax, %rdi
 498              	.LEHB6:
 499 0174 E8000000 		call	_Unwind_Resume
 499      00
 500              	.LEHE6:
 501              	.L20:
 502 0179 E8000000 		call	__stack_chk_fail
 502      00
 503              	.L18:
 504 017e 4883C440 		addq	$64, %rsp
 505 0182 5B       		popq	%rbx
 506 0183 415C     		popq	%r12
 507 0185 5D       		popq	%rbp
 508              		.cfi_def_cfa 7, 8
 509 0186 C3       		ret
GAS LISTING /tmp/ccj7sGND.s 			page 11


 510              		.cfi_endproc
 511              	.LFE708:
 512              		.section	.gcc_except_table,"a",@progbits
 513              	.LLSDA708:
 514 0000 FF       		.byte	0xff
 515 0001 FF       		.byte	0xff
 516 0002 01       		.byte	0x1
 517 0003 15       		.uleb128 .LLSDACSE708-.LLSDACSB708
 518              	.LLSDACSB708:
 519 0004 3C       		.uleb128 .LEHB3-.LFB708
 520 0005 BA01     		.uleb128 .LEHE3-.LEHB3
 521 0007 00       		.uleb128 0
 522 0008 00       		.uleb128 0
 523 0009 BE02     		.uleb128 .LEHB4-.LFB708
 524 000b 03       		.uleb128 .LEHE4-.LEHB4
 525 000c DF02     		.uleb128 .L19-.LFB708
 526 000e 00       		.uleb128 0
 527 000f C802     		.uleb128 .LEHB5-.LFB708
 528 0011 05       		.uleb128 .LEHE5-.LEHB5
 529 0012 00       		.uleb128 0
 530 0013 00       		.uleb128 0
 531 0014 F402     		.uleb128 .LEHB6-.LFB708
 532 0016 05       		.uleb128 .LEHE6-.LEHB6
 533 0017 00       		.uleb128 0
 534 0018 00       		.uleb128 0
 535              	.LLSDACSE708:
 536              		.text
 538              		.section	.text._ZN74TEST_hsm_build_Should_InitializeInvalidHsmHandle_When_NoTopStateGiven_TestC2Ev
 539              		.align 2
 540              		.weak	_ZN74TEST_hsm_build_Should_InitializeInvalidHsmHandle_When_NoTopStateGiven_TestC2Ev
 542              	_ZN74TEST_hsm_build_Should_InitializeInvalidHsmHandle_When_NoTopStateGiven_TestC2Ev:
 543              	.LFB710:
 544              		.cfi_startproc
 545 0000 55       		pushq	%rbp
 546              		.cfi_def_cfa_offset 16
 547              		.cfi_offset 6, -16
 548 0001 4889E5   		movq	%rsp, %rbp
 549              		.cfi_def_cfa_register 6
 550 0004 4883EC10 		subq	$16, %rsp
 551 0008 48897DF8 		movq	%rdi, -8(%rbp)
 552 000c 488B45F8 		movq	-8(%rbp), %rax
 553 0010 48C70000 		movq	$0, (%rax)
 553      000000
 554 0017 488B45F8 		movq	-8(%rbp), %rax
 555 001b 48C74008 		movq	$0, 8(%rax)
 555      00000000 
 556 0023 488B45F8 		movq	-8(%rbp), %rax
 557 0027 48C74010 		movq	$0, 16(%rax)
 557      00000000 
 558 002f 488B45F8 		movq	-8(%rbp), %rax
 559 0033 48C74018 		movq	$0, 24(%rax)
 559      00000000 
 560 003b 488B45F8 		movq	-8(%rbp), %rax
 561 003f C7402000 		movl	$0, 32(%rax)
 561      000000
 562 0046 488B45F8 		movq	-8(%rbp), %rax
 563 004a C7402800 		movl	$0, 40(%rax)
GAS LISTING /tmp/ccj7sGND.s 			page 12


 563      000000
 564 0051 488B45F8 		movq	-8(%rbp), %rax
 565 0055 4889C7   		movq	%rax, %rdi
 566 0058 E8000000 		call	_ZN33TEST_GROUP_CppUTestGrouphsm_buildC2Ev
 566      00
 567 005d BA000000 		movl	$_ZTV74TEST_hsm_build_Should_InitializeInvalidHsmHandle_When_NoTopStateGiven_Test+16, %edx
 567      00
 568 0062 488B45F8 		movq	-8(%rbp), %rax
 569 0066 488910   		movq	%rdx, (%rax)
 570 0069 90       		nop
 571 006a C9       		leave
 572              		.cfi_def_cfa 7, 8
 573 006b C3       		ret
 574              		.cfi_endproc
 575              	.LFE710:
 577              		.weak	_ZN74TEST_hsm_build_Should_InitializeInvalidHsmHandle_When_NoTopStateGiven_TestC1Ev
 578              		.set	_ZN74TEST_hsm_build_Should_InitializeInvalidHsmHandle_When_NoTopStateGiven_TestC1Ev,_ZN74TEST
 579              		.section	.text._ZN79TEST_hsm_build_Should_InitializeInvalidHsmHandle_When_NoTopStateGiven_TestShel
 580              		.align 2
 581              		.weak	_ZN79TEST_hsm_build_Should_InitializeInvalidHsmHandle_When_NoTopStateGiven_TestShell10create
 583              	_ZN79TEST_hsm_build_Should_InitializeInvalidHsmHandle_When_NoTopStateGiven_TestShell10createTestEv:
 584              	.LFB712:
 585              		.cfi_startproc
 586              		.cfi_personality 0x3,__gxx_personality_v0
 587              		.cfi_lsda 0x3,.LLSDA712
 588 0000 55       		pushq	%rbp
 589              		.cfi_def_cfa_offset 16
 590              		.cfi_offset 6, -16
 591 0001 4889E5   		movq	%rsp, %rbp
 592              		.cfi_def_cfa_register 6
 593 0004 4154     		pushq	%r12
 594 0006 53       		pushq	%rbx
 595 0007 4883EC10 		subq	$16, %rsp
 596              		.cfi_offset 12, -24
 597              		.cfi_offset 3, -32
 598 000b 48897DE8 		movq	%rdi, -24(%rbp)
 599 000f BA440000 		movl	$68, %edx
 599      00
 600 0014 BE000000 		movl	$.LC0, %esi
 600      00
 601 0019 BF300000 		movl	$48, %edi
 601      00
 602              	.LEHB7:
 603 001e E8000000 		call	_ZnwmPKci
 603      00
 604              	.LEHE7:
 605 0023 4889C3   		movq	%rax, %rbx
 606 0026 4889DF   		movq	%rbx, %rdi
 607              	.LEHB8:
 608 0029 E8000000 		call	_ZN74TEST_hsm_build_Should_InitializeInvalidHsmHandle_When_NoTopStateGiven_TestC1Ev
 608      00
 609              	.LEHE8:
 610 002e 4889D8   		movq	%rbx, %rax
 611 0031 EB20     		jmp	.L26
 612              	.L25:
 613 0033 4989C4   		movq	%rax, %r12
 614 0036 BA440000 		movl	$68, %edx
GAS LISTING /tmp/ccj7sGND.s 			page 13


 614      00
 615 003b BE000000 		movl	$.LC0, %esi
 615      00
 616 0040 4889DF   		movq	%rbx, %rdi
 617 0043 E8000000 		call	_ZdlPvPKci
 617      00
 618 0048 4C89E0   		movq	%r12, %rax
 619 004b 4889C7   		movq	%rax, %rdi
 620              	.LEHB9:
 621 004e E8000000 		call	_Unwind_Resume
 621      00
 622              	.LEHE9:
 623              	.L26:
 624 0053 4883C410 		addq	$16, %rsp
 625 0057 5B       		popq	%rbx
 626 0058 415C     		popq	%r12
 627 005a 5D       		popq	%rbp
 628              		.cfi_def_cfa 7, 8
 629 005b C3       		ret
 630              		.cfi_endproc
 631              	.LFE712:
 632              		.section	.gcc_except_table
 633              	.LLSDA712:
 634 0019 FF       		.byte	0xff
 635 001a FF       		.byte	0xff
 636 001b 01       		.byte	0x1
 637 001c 0C       		.uleb128 .LLSDACSE712-.LLSDACSB712
 638              	.LLSDACSB712:
 639 001d 1E       		.uleb128 .LEHB7-.LFB712
 640 001e 05       		.uleb128 .LEHE7-.LEHB7
 641 001f 00       		.uleb128 0
 642 0020 00       		.uleb128 0
 643 0021 29       		.uleb128 .LEHB8-.LFB712
 644 0022 05       		.uleb128 .LEHE8-.LEHB8
 645 0023 33       		.uleb128 .L25-.LFB712
 646 0024 00       		.uleb128 0
 647 0025 4E       		.uleb128 .LEHB9-.LFB712
 648 0026 05       		.uleb128 .LEHE9-.LEHB9
 649 0027 00       		.uleb128 0
 650 0028 00       		.uleb128 0
 651              	.LLSDACSE712:
 652              		.section	.text._ZN79TEST_hsm_build_Should_InitializeInvalidHsmHandle_When_NoTopStateGiven_TestShel
 654              		.section	.text._ZN79TEST_hsm_build_Should_InitializeInvalidHsmHandle_When_NoTopStateGiven_TestShel
 655              		.align 2
 656              		.weak	_ZN79TEST_hsm_build_Should_InitializeInvalidHsmHandle_When_NoTopStateGiven_TestShellC2Ev
 658              	_ZN79TEST_hsm_build_Should_InitializeInvalidHsmHandle_When_NoTopStateGiven_TestShellC2Ev:
 659              	.LFB714:
 660              		.cfi_startproc
 661 0000 55       		pushq	%rbp
 662              		.cfi_def_cfa_offset 16
 663              		.cfi_offset 6, -16
 664 0001 4889E5   		movq	%rsp, %rbp
 665              		.cfi_def_cfa_register 6
 666 0004 4883EC10 		subq	$16, %rsp
 667 0008 48897DF8 		movq	%rdi, -8(%rbp)
 668 000c 488B45F8 		movq	-8(%rbp), %rax
 669 0010 4889C7   		movq	%rax, %rdi
GAS LISTING /tmp/ccj7sGND.s 			page 14


 670 0013 E8000000 		call	_ZN10UtestShellC2Ev
 670      00
 671 0018 BA000000 		movl	$_ZTV79TEST_hsm_build_Should_InitializeInvalidHsmHandle_When_NoTopStateGiven_TestShell+16, %e
 671      00
 672 001d 488B45F8 		movq	-8(%rbp), %rax
 673 0021 488910   		movq	%rdx, (%rax)
 674 0024 90       		nop
 675 0025 C9       		leave
 676              		.cfi_def_cfa 7, 8
 677 0026 C3       		ret
 678              		.cfi_endproc
 679              	.LFE714:
 681              		.weak	_ZN79TEST_hsm_build_Should_InitializeInvalidHsmHandle_When_NoTopStateGiven_TestShellC1Ev
 682              		.set	_ZN79TEST_hsm_build_Should_InitializeInvalidHsmHandle_When_NoTopStateGiven_TestShellC1Ev,_ZN7
 683              		.globl	TEST_hsm_build_Should_InitializeInvalidHsmHandle_When_NoTopStateGiven_TestShell_instance
 684              		.bss
 685 0098 00000000 		.align 32
 685      00000000 
 688              	TEST_hsm_build_Should_InitializeInvalidHsmHandle_When_NoTopStateGiven_TestShell_instance:
 689 00a0 00000000 		.zero	56
 689      00000000 
 689      00000000 
 689      00000000 
 689      00000000 
 690              		.local	_ZL79TEST_hsm_build_Should_InitializeInvalidHsmHandle_When_NoTopStateGiven_Installer
 691              		.comm	_ZL79TEST_hsm_build_Should_InitializeInvalidHsmHandle_When_NoTopStateGiven_Installer,8,8
 692              		.text
 693 0187 90       		.align 2
 694              		.globl	_ZN74TEST_hsm_build_Should_InitializeInvalidHsmHandle_When_NoTopStateGiven_Test8testBodyEv
 696              	_ZN74TEST_hsm_build_Should_InitializeInvalidHsmHandle_When_NoTopStateGiven_Test8testBodyEv:
 697              	.LFB716:
 698              		.cfi_startproc
 699              		.cfi_personality 0x3,__gxx_personality_v0
 700              		.cfi_lsda 0x3,.LLSDA716
 701 0188 55       		pushq	%rbp
 702              		.cfi_def_cfa_offset 16
 703              		.cfi_offset 6, -16
 704 0189 4889E5   		movq	%rsp, %rbp
 705              		.cfi_def_cfa_register 6
 706 018c 4154     		pushq	%r12
 707 018e 53       		pushq	%rbx
 708 018f 4883EC40 		subq	$64, %rsp
 709              		.cfi_offset 12, -24
 710              		.cfi_offset 3, -32
 711 0193 48897DD8 		movq	%rdi, -40(%rbp)
 712 0197 64488B04 		movq	%fs:40, %rax
 712      25280000 
 712      00
 713 01a0 488945E8 		movq	%rax, -24(%rbp)
 714 01a4 31C0     		xorl	%eax, %eax
 715 01a6 B8020000 		movl	$2, %eax
 715      00
 716 01ab 89C2     		movl	%eax, %edx
 717 01ad 488B5DD8 		movq	-40(%rbp), %rbx
 718 01b1 488D45B0 		leaq	-80(%rbp), %rax
 719 01b5 89D1     		movl	%edx, %ecx
 720 01b7 BA000000 		movl	$_ZL9stateList, %edx
GAS LISTING /tmp/ccj7sGND.s 			page 15


 720      00
 721 01bc BE000000 		movl	$childState, %esi
 721      00
 722 01c1 4889C7   		movq	%rax, %rdi
 723              	.LEHB10:
 724 01c4 E8000000 		call	_Z10_hsm_buildPK5statePPS_j
 724      00
 725 01c9 488B45B0 		movq	-80(%rbp), %rax
 726 01cd 48894308 		movq	%rax, 8(%rbx)
 727 01d1 488B45B8 		movq	-72(%rbp), %rax
 728 01d5 48894310 		movq	%rax, 16(%rbx)
 729 01d9 488B45C0 		movq	-64(%rbp), %rax
 730 01dd 48894318 		movq	%rax, 24(%rbx)
 731 01e1 488B45C8 		movq	-56(%rbp), %rax
 732 01e5 48894320 		movq	%rax, 32(%rbx)
 733 01e9 E8000000 		call	_ZN10UtestShell10getCurrentEv
 733      00
 734 01ee 488B10   		movq	(%rax), %rdx
 735 01f1 4881C288 		addq	$136, %rdx
 735      000000
 736 01f8 4C8B0A   		movq	(%rdx), %r9
 737 01fb 488B55D8 		movq	-40(%rbp), %rdx
 738 01ff 488B5208 		movq	8(%rdx), %rdx
 739 0203 41B84A00 		movl	$74, %r8d
 739      0000
 740 0209 B9000000 		movl	$.LC0, %ecx
 740      00
 741 020e BE000000 		movl	$0, %esi
 741      00
 742 0213 4889C7   		movq	%rax, %rdi
 743 0216 41FFD1   		call	*%r9
 744 0219 E8000000 		call	_ZN10UtestShell10getCurrentEv
 744      00
 745 021e 488B10   		movq	(%rax), %rdx
 746 0221 4881C288 		addq	$136, %rdx
 746      000000
 747 0228 4C8B0A   		movq	(%rdx), %r9
 748 022b 488B55D8 		movq	-40(%rbp), %rdx
 749 022f 488B5210 		movq	16(%rdx), %rdx
 750 0233 41B84B00 		movl	$75, %r8d
 750      0000
 751 0239 B9000000 		movl	$.LC0, %ecx
 751      00
 752 023e BE000000 		movl	$0, %esi
 752      00
 753 0243 4889C7   		movq	%rax, %rdi
 754 0246 41FFD1   		call	*%r9
 755 0249 E8000000 		call	_ZN10UtestShell10getCurrentEv
 755      00
 756 024e 488B10   		movq	(%rax), %rdx
 757 0251 4881C288 		addq	$136, %rdx
 757      000000
 758 0258 4C8B0A   		movq	(%rdx), %r9
 759 025b 488B55D8 		movq	-40(%rbp), %rdx
 760 025f 488B5218 		movq	24(%rdx), %rdx
 761 0263 41B84C00 		movl	$76, %r8d
 761      0000
GAS LISTING /tmp/ccj7sGND.s 			page 16


 762 0269 B9000000 		movl	$.LC0, %ecx
 762      00
 763 026e BE000000 		movl	$0, %esi
 763      00
 764 0273 4889C7   		movq	%rax, %rdi
 765 0276 41FFD1   		call	*%r9
 766 0279 E8000000 		call	_ZN10UtestShell10getCurrentEv
 766      00
 767              	.LEHE10:
 768 027e 4889C3   		movq	%rax, %rbx
 769 0281 488B03   		movq	(%rbx), %rax
 770 0284 4883C078 		addq	$120, %rax
 771 0288 4C8B20   		movq	(%rax), %r12
 772 028b 48C745E0 		movq	$0, -32(%rbp)
 772      00000000 
 773 0293 488D45E0 		leaq	-32(%rbp), %rax
 774 0297 4889C7   		movq	%rax, %rdi
 775 029a E8000000 		call	_ZN20NormalTestTerminatorC1Ev
 775      00
 776 029f 488B45D8 		movq	-40(%rbp), %rax
 777 02a3 8B4020   		movl	32(%rax), %eax
 778 02a6 89C2     		movl	%eax, %edx
 779 02a8 488D45E0 		leaq	-32(%rbp), %rax
 780 02ac 4989C1   		movq	%rax, %r9
 781 02af 41B84D00 		movl	$77, %r8d
 781      0000
 782 02b5 B9000000 		movl	$.LC0, %ecx
 782      00
 783 02ba BE000000 		movl	$0, %esi
 783      00
 784 02bf 4889DF   		movq	%rbx, %rdi
 785              	.LEHB11:
 786 02c2 41FFD4   		call	*%r12
 787              	.LEHE11:
 788 02c5 488D45E0 		leaq	-32(%rbp), %rax
 789 02c9 4889C7   		movq	%rax, %rdi
 790              	.LEHB12:
 791 02cc E8000000 		call	_ZN20NormalTestTerminatorD1Ev
 791      00
 792              	.LEHE12:
 793 02d1 90       		nop
 794 02d2 488B45E8 		movq	-24(%rbp), %rax
 795 02d6 64483304 		xorq	%fs:40, %rax
 795      25280000 
 795      00
 796 02df 7421     		je	.L30
 797 02e1 EB1A     		jmp	.L32
 798              	.L31:
 799 02e3 4889C3   		movq	%rax, %rbx
 800 02e6 488D45E0 		leaq	-32(%rbp), %rax
 801 02ea 4889C7   		movq	%rax, %rdi
 802 02ed E8000000 		call	_ZN20NormalTestTerminatorD1Ev
 802      00
 803 02f2 4889D8   		movq	%rbx, %rax
 804 02f5 4889C7   		movq	%rax, %rdi
 805              	.LEHB13:
 806 02f8 E8000000 		call	_Unwind_Resume
GAS LISTING /tmp/ccj7sGND.s 			page 17


 806      00
 807              	.LEHE13:
 808              	.L32:
 809 02fd E8000000 		call	__stack_chk_fail
 809      00
 810              	.L30:
 811 0302 4883C440 		addq	$64, %rsp
 812 0306 5B       		popq	%rbx
 813 0307 415C     		popq	%r12
 814 0309 5D       		popq	%rbp
 815              		.cfi_def_cfa 7, 8
 816 030a C3       		ret
 817              		.cfi_endproc
 818              	.LFE716:
 819              		.section	.gcc_except_table
 820              	.LLSDA716:
 821 0029 FF       		.byte	0xff
 822 002a FF       		.byte	0xff
 823 002b 01       		.byte	0x1
 824 002c 15       		.uleb128 .LLSDACSE716-.LLSDACSB716
 825              	.LLSDACSB716:
 826 002d 3C       		.uleb128 .LEHB10-.LFB716
 827 002e BA01     		.uleb128 .LEHE10-.LEHB10
 828 0030 00       		.uleb128 0
 829 0031 00       		.uleb128 0
 830 0032 BA02     		.uleb128 .LEHB11-.LFB716
 831 0034 03       		.uleb128 .LEHE11-.LEHB11
 832 0035 DB02     		.uleb128 .L31-.LFB716
 833 0037 00       		.uleb128 0
 834 0038 C402     		.uleb128 .LEHB12-.LFB716
 835 003a 05       		.uleb128 .LEHE12-.LEHB12
 836 003b 00       		.uleb128 0
 837 003c 00       		.uleb128 0
 838 003d F002     		.uleb128 .LEHB13-.LFB716
 839 003f 05       		.uleb128 .LEHE13-.LEHB13
 840 0040 00       		.uleb128 0
 841 0041 00       		.uleb128 0
 842              	.LLSDACSE716:
 843              		.text
 845              		.section	.text._ZN80TEST_hsm_build_Should_InitializeInvalidHsmHandle_When_NullInitialStateGiven_Te
 846              		.align 2
 847              		.weak	_ZN80TEST_hsm_build_Should_InitializeInvalidHsmHandle_When_NullInitialStateGiven_TestC2Ev
 849              	_ZN80TEST_hsm_build_Should_InitializeInvalidHsmHandle_When_NullInitialStateGiven_TestC2Ev:
 850              	.LFB718:
 851              		.cfi_startproc
 852 0000 55       		pushq	%rbp
 853              		.cfi_def_cfa_offset 16
 854              		.cfi_offset 6, -16
 855 0001 4889E5   		movq	%rsp, %rbp
 856              		.cfi_def_cfa_register 6
 857 0004 4883EC10 		subq	$16, %rsp
 858 0008 48897DF8 		movq	%rdi, -8(%rbp)
 859 000c 488B45F8 		movq	-8(%rbp), %rax
 860 0010 48C70000 		movq	$0, (%rax)
 860      000000
 861 0017 488B45F8 		movq	-8(%rbp), %rax
 862 001b 48C74008 		movq	$0, 8(%rax)
GAS LISTING /tmp/ccj7sGND.s 			page 18


 862      00000000 
 863 0023 488B45F8 		movq	-8(%rbp), %rax
 864 0027 48C74010 		movq	$0, 16(%rax)
 864      00000000 
 865 002f 488B45F8 		movq	-8(%rbp), %rax
 866 0033 48C74018 		movq	$0, 24(%rax)
 866      00000000 
 867 003b 488B45F8 		movq	-8(%rbp), %rax
 868 003f C7402000 		movl	$0, 32(%rax)
 868      000000
 869 0046 488B45F8 		movq	-8(%rbp), %rax
 870 004a C7402800 		movl	$0, 40(%rax)
 870      000000
 871 0051 488B45F8 		movq	-8(%rbp), %rax
 872 0055 4889C7   		movq	%rax, %rdi
 873 0058 E8000000 		call	_ZN33TEST_GROUP_CppUTestGrouphsm_buildC2Ev
 873      00
 874 005d BA000000 		movl	$_ZTV80TEST_hsm_build_Should_InitializeInvalidHsmHandle_When_NullInitialStateGiven_Test+16, %
 874      00
 875 0062 488B45F8 		movq	-8(%rbp), %rax
 876 0066 488910   		movq	%rdx, (%rax)
 877 0069 90       		nop
 878 006a C9       		leave
 879              		.cfi_def_cfa 7, 8
 880 006b C3       		ret
 881              		.cfi_endproc
 882              	.LFE718:
 884              		.weak	_ZN80TEST_hsm_build_Should_InitializeInvalidHsmHandle_When_NullInitialStateGiven_TestC1Ev
 885              		.set	_ZN80TEST_hsm_build_Should_InitializeInvalidHsmHandle_When_NullInitialStateGiven_TestC1Ev,_ZN
 886              		.section	.text._ZN85TEST_hsm_build_Should_InitializeInvalidHsmHandle_When_NullInitialStateGiven_Te
 887              		.align 2
 888              		.weak	_ZN85TEST_hsm_build_Should_InitializeInvalidHsmHandle_When_NullInitialStateGiven_TestShell10
 890              	_ZN85TEST_hsm_build_Should_InitializeInvalidHsmHandle_When_NullInitialStateGiven_TestShell10createT
 891              	.LFB720:
 892              		.cfi_startproc
 893              		.cfi_personality 0x3,__gxx_personality_v0
 894              		.cfi_lsda 0x3,.LLSDA720
 895 0000 55       		pushq	%rbp
 896              		.cfi_def_cfa_offset 16
 897              		.cfi_offset 6, -16
 898 0001 4889E5   		movq	%rsp, %rbp
 899              		.cfi_def_cfa_register 6
 900 0004 4154     		pushq	%r12
 901 0006 53       		pushq	%rbx
 902 0007 4883EC10 		subq	$16, %rsp
 903              		.cfi_offset 12, -24
 904              		.cfi_offset 3, -32
 905 000b 48897DE8 		movq	%rdi, -24(%rbp)
 906 000f BA500000 		movl	$80, %edx
 906      00
 907 0014 BE000000 		movl	$.LC0, %esi
 907      00
 908 0019 BF300000 		movl	$48, %edi
 908      00
 909              	.LEHB14:
 910 001e E8000000 		call	_ZnwmPKci
 910      00
GAS LISTING /tmp/ccj7sGND.s 			page 19


 911              	.LEHE14:
 912 0023 4889C3   		movq	%rax, %rbx
 913 0026 4889DF   		movq	%rbx, %rdi
 914              	.LEHB15:
 915 0029 E8000000 		call	_ZN80TEST_hsm_build_Should_InitializeInvalidHsmHandle_When_NullInitialStateGiven_TestC1Ev
 915      00
 916              	.LEHE15:
 917 002e 4889D8   		movq	%rbx, %rax
 918 0031 EB20     		jmp	.L38
 919              	.L37:
 920 0033 4989C4   		movq	%rax, %r12
 921 0036 BA500000 		movl	$80, %edx
 921      00
 922 003b BE000000 		movl	$.LC0, %esi
 922      00
 923 0040 4889DF   		movq	%rbx, %rdi
 924 0043 E8000000 		call	_ZdlPvPKci
 924      00
 925 0048 4C89E0   		movq	%r12, %rax
 926 004b 4889C7   		movq	%rax, %rdi
 927              	.LEHB16:
 928 004e E8000000 		call	_Unwind_Resume
 928      00
 929              	.LEHE16:
 930              	.L38:
 931 0053 4883C410 		addq	$16, %rsp
 932 0057 5B       		popq	%rbx
 933 0058 415C     		popq	%r12
 934 005a 5D       		popq	%rbp
 935              		.cfi_def_cfa 7, 8
 936 005b C3       		ret
 937              		.cfi_endproc
 938              	.LFE720:
 939              		.section	.gcc_except_table
 940              	.LLSDA720:
 941 0042 FF       		.byte	0xff
 942 0043 FF       		.byte	0xff
 943 0044 01       		.byte	0x1
 944 0045 0C       		.uleb128 .LLSDACSE720-.LLSDACSB720
 945              	.LLSDACSB720:
 946 0046 1E       		.uleb128 .LEHB14-.LFB720
 947 0047 05       		.uleb128 .LEHE14-.LEHB14
 948 0048 00       		.uleb128 0
 949 0049 00       		.uleb128 0
 950 004a 29       		.uleb128 .LEHB15-.LFB720
 951 004b 05       		.uleb128 .LEHE15-.LEHB15
 952 004c 33       		.uleb128 .L37-.LFB720
 953 004d 00       		.uleb128 0
 954 004e 4E       		.uleb128 .LEHB16-.LFB720
 955 004f 05       		.uleb128 .LEHE16-.LEHB16
 956 0050 00       		.uleb128 0
 957 0051 00       		.uleb128 0
 958              	.LLSDACSE720:
 959              		.section	.text._ZN85TEST_hsm_build_Should_InitializeInvalidHsmHandle_When_NullInitialStateGiven_Te
 961              		.section	.text._ZN85TEST_hsm_build_Should_InitializeInvalidHsmHandle_When_NullInitialStateGiven_Te
 962              		.align 2
 963              		.weak	_ZN85TEST_hsm_build_Should_InitializeInvalidHsmHandle_When_NullInitialStateGiven_TestShellC2
GAS LISTING /tmp/ccj7sGND.s 			page 20


 965              	_ZN85TEST_hsm_build_Should_InitializeInvalidHsmHandle_When_NullInitialStateGiven_TestShellC2Ev:
 966              	.LFB722:
 967              		.cfi_startproc
 968 0000 55       		pushq	%rbp
 969              		.cfi_def_cfa_offset 16
 970              		.cfi_offset 6, -16
 971 0001 4889E5   		movq	%rsp, %rbp
 972              		.cfi_def_cfa_register 6
 973 0004 4883EC10 		subq	$16, %rsp
 974 0008 48897DF8 		movq	%rdi, -8(%rbp)
 975 000c 488B45F8 		movq	-8(%rbp), %rax
 976 0010 4889C7   		movq	%rax, %rdi
 977 0013 E8000000 		call	_ZN10UtestShellC2Ev
 977      00
 978 0018 BA000000 		movl	$_ZTV85TEST_hsm_build_Should_InitializeInvalidHsmHandle_When_NullInitialStateGiven_TestShell+
 978      00
 979 001d 488B45F8 		movq	-8(%rbp), %rax
 980 0021 488910   		movq	%rdx, (%rax)
 981 0024 90       		nop
 982 0025 C9       		leave
 983              		.cfi_def_cfa 7, 8
 984 0026 C3       		ret
 985              		.cfi_endproc
 986              	.LFE722:
 988              		.weak	_ZN85TEST_hsm_build_Should_InitializeInvalidHsmHandle_When_NullInitialStateGiven_TestShellC1
 989              		.set	_ZN85TEST_hsm_build_Should_InitializeInvalidHsmHandle_When_NullInitialStateGiven_TestShellC1E
 990              		.globl	TEST_hsm_build_Should_InitializeInvalidHsmHandle_When_NullInitialStateGiven_TestShell_insta
 991              		.bss
 992 00d8 00000000 		.align 32
 992      00000000 
 995              	TEST_hsm_build_Should_InitializeInvalidHsmHandle_When_NullInitialStateGiven_TestShell_instance:
 996 00e0 00000000 		.zero	56
 996      00000000 
 996      00000000 
 996      00000000 
 996      00000000 
 997              		.local	_ZL85TEST_hsm_build_Should_InitializeInvalidHsmHandle_When_NullInitialStateGiven_Installer
 998              		.comm	_ZL85TEST_hsm_build_Should_InitializeInvalidHsmHandle_When_NullInitialStateGiven_Installer,8
 999              		.text
 1000 030b 90       		.align 2
 1001              		.globl	_ZN80TEST_hsm_build_Should_InitializeInvalidHsmHandle_When_NullInitialStateGiven_Test8testB
 1003              	_ZN80TEST_hsm_build_Should_InitializeInvalidHsmHandle_When_NullInitialStateGiven_Test8testBodyEv:
 1004              	.LFB724:
 1005              		.cfi_startproc
 1006              		.cfi_personality 0x3,__gxx_personality_v0
 1007              		.cfi_lsda 0x3,.LLSDA724
 1008 030c 55       		pushq	%rbp
 1009              		.cfi_def_cfa_offset 16
 1010              		.cfi_offset 6, -16
 1011 030d 4889E5   		movq	%rsp, %rbp
 1012              		.cfi_def_cfa_register 6
 1013 0310 4154     		pushq	%r12
 1014 0312 53       		pushq	%rbx
 1015 0313 4883EC40 		subq	$64, %rsp
 1016              		.cfi_offset 12, -24
 1017              		.cfi_offset 3, -32
 1018 0317 48897DD8 		movq	%rdi, -40(%rbp)
GAS LISTING /tmp/ccj7sGND.s 			page 21


 1019 031b 64488B04 		movq	%fs:40, %rax
 1019      25280000 
 1019      00
 1020 0324 488945E8 		movq	%rax, -24(%rbp)
 1021 0328 31C0     		xorl	%eax, %eax
 1022 032a B8020000 		movl	$2, %eax
 1022      00
 1023 032f 89C2     		movl	%eax, %edx
 1024 0331 488B5DD8 		movq	-40(%rbp), %rbx
 1025 0335 488D45B0 		leaq	-80(%rbp), %rax
 1026 0339 89D1     		movl	%edx, %ecx
 1027 033b BA000000 		movl	$_ZL9stateList, %edx
 1027      00
 1028 0340 BE000000 		movl	$0, %esi
 1028      00
 1029 0345 4889C7   		movq	%rax, %rdi
 1030              	.LEHB17:
 1031 0348 E8000000 		call	_Z10_hsm_buildPK5statePPS_j
 1031      00
 1032 034d 488B45B0 		movq	-80(%rbp), %rax
 1033 0351 48894308 		movq	%rax, 8(%rbx)
 1034 0355 488B45B8 		movq	-72(%rbp), %rax
 1035 0359 48894310 		movq	%rax, 16(%rbx)
 1036 035d 488B45C0 		movq	-64(%rbp), %rax
 1037 0361 48894318 		movq	%rax, 24(%rbx)
 1038 0365 488B45C8 		movq	-56(%rbp), %rax
 1039 0369 48894320 		movq	%rax, 32(%rbx)
 1040 036d E8000000 		call	_ZN10UtestShell10getCurrentEv
 1040      00
 1041 0372 488B10   		movq	(%rax), %rdx
 1042 0375 4881C288 		addq	$136, %rdx
 1042      000000
 1043 037c 4C8B0A   		movq	(%rdx), %r9
 1044 037f 488B55D8 		movq	-40(%rbp), %rdx
 1045 0383 488B5208 		movq	8(%rdx), %rdx
 1046 0387 41B85600 		movl	$86, %r8d
 1046      0000
 1047 038d B9000000 		movl	$.LC0, %ecx
 1047      00
 1048 0392 BE000000 		movl	$0, %esi
 1048      00
 1049 0397 4889C7   		movq	%rax, %rdi
 1050 039a 41FFD1   		call	*%r9
 1051 039d E8000000 		call	_ZN10UtestShell10getCurrentEv
 1051      00
 1052 03a2 488B10   		movq	(%rax), %rdx
 1053 03a5 4881C288 		addq	$136, %rdx
 1053      000000
 1054 03ac 4C8B0A   		movq	(%rdx), %r9
 1055 03af 488B55D8 		movq	-40(%rbp), %rdx
 1056 03b3 488B5210 		movq	16(%rdx), %rdx
 1057 03b7 41B85700 		movl	$87, %r8d
 1057      0000
 1058 03bd B9000000 		movl	$.LC0, %ecx
 1058      00
 1059 03c2 BE000000 		movl	$0, %esi
 1059      00
GAS LISTING /tmp/ccj7sGND.s 			page 22


 1060 03c7 4889C7   		movq	%rax, %rdi
 1061 03ca 41FFD1   		call	*%r9
 1062 03cd E8000000 		call	_ZN10UtestShell10getCurrentEv
 1062      00
 1063 03d2 488B10   		movq	(%rax), %rdx
 1064 03d5 4881C288 		addq	$136, %rdx
 1064      000000
 1065 03dc 4C8B0A   		movq	(%rdx), %r9
 1066 03df 488B55D8 		movq	-40(%rbp), %rdx
 1067 03e3 488B5218 		movq	24(%rdx), %rdx
 1068 03e7 41B85800 		movl	$88, %r8d
 1068      0000
 1069 03ed B9000000 		movl	$.LC0, %ecx
 1069      00
 1070 03f2 BE000000 		movl	$0, %esi
 1070      00
 1071 03f7 4889C7   		movq	%rax, %rdi
 1072 03fa 41FFD1   		call	*%r9
 1073 03fd E8000000 		call	_ZN10UtestShell10getCurrentEv
 1073      00
 1074              	.LEHE17:
 1075 0402 4889C3   		movq	%rax, %rbx
 1076 0405 488B03   		movq	(%rbx), %rax
 1077 0408 4883C078 		addq	$120, %rax
 1078 040c 4C8B20   		movq	(%rax), %r12
 1079 040f 48C745E0 		movq	$0, -32(%rbp)
 1079      00000000 
 1080 0417 488D45E0 		leaq	-32(%rbp), %rax
 1081 041b 4889C7   		movq	%rax, %rdi
 1082 041e E8000000 		call	_ZN20NormalTestTerminatorC1Ev
 1082      00
 1083 0423 488B45D8 		movq	-40(%rbp), %rax
 1084 0427 8B4020   		movl	32(%rax), %eax
 1085 042a 89C2     		movl	%eax, %edx
 1086 042c 488D45E0 		leaq	-32(%rbp), %rax
 1087 0430 4989C1   		movq	%rax, %r9
 1088 0433 41B85900 		movl	$89, %r8d
 1088      0000
 1089 0439 B9000000 		movl	$.LC0, %ecx
 1089      00
 1090 043e BE000000 		movl	$0, %esi
 1090      00
 1091 0443 4889DF   		movq	%rbx, %rdi
 1092              	.LEHB18:
 1093 0446 41FFD4   		call	*%r12
 1094              	.LEHE18:
 1095 0449 488D45E0 		leaq	-32(%rbp), %rax
 1096 044d 4889C7   		movq	%rax, %rdi
 1097              	.LEHB19:
 1098 0450 E8000000 		call	_ZN20NormalTestTerminatorD1Ev
 1098      00
 1099              	.LEHE19:
 1100 0455 90       		nop
 1101 0456 488B45E8 		movq	-24(%rbp), %rax
 1102 045a 64483304 		xorq	%fs:40, %rax
 1102      25280000 
 1102      00
GAS LISTING /tmp/ccj7sGND.s 			page 23


 1103 0463 7421     		je	.L42
 1104 0465 EB1A     		jmp	.L44
 1105              	.L43:
 1106 0467 4889C3   		movq	%rax, %rbx
 1107 046a 488D45E0 		leaq	-32(%rbp), %rax
 1108 046e 4889C7   		movq	%rax, %rdi
 1109 0471 E8000000 		call	_ZN20NormalTestTerminatorD1Ev
 1109      00
 1110 0476 4889D8   		movq	%rbx, %rax
 1111 0479 4889C7   		movq	%rax, %rdi
 1112              	.LEHB20:
 1113 047c E8000000 		call	_Unwind_Resume
 1113      00
 1114              	.LEHE20:
 1115              	.L44:
 1116 0481 E8000000 		call	__stack_chk_fail
 1116      00
 1117              	.L42:
 1118 0486 4883C440 		addq	$64, %rsp
 1119 048a 5B       		popq	%rbx
 1120 048b 415C     		popq	%r12
 1121 048d 5D       		popq	%rbp
 1122              		.cfi_def_cfa 7, 8
 1123 048e C3       		ret
 1124              		.cfi_endproc
 1125              	.LFE724:
 1126              		.section	.gcc_except_table
 1127              	.LLSDA724:
 1128 0052 FF       		.byte	0xff
 1129 0053 FF       		.byte	0xff
 1130 0054 01       		.byte	0x1
 1131 0055 15       		.uleb128 .LLSDACSE724-.LLSDACSB724
 1132              	.LLSDACSB724:
 1133 0056 3C       		.uleb128 .LEHB17-.LFB724
 1134 0057 BA01     		.uleb128 .LEHE17-.LEHB17
 1135 0059 00       		.uleb128 0
 1136 005a 00       		.uleb128 0
 1137 005b BA02     		.uleb128 .LEHB18-.LFB724
 1138 005d 03       		.uleb128 .LEHE18-.LEHB18
 1139 005e DB02     		.uleb128 .L43-.LFB724
 1140 0060 00       		.uleb128 0
 1141 0061 C402     		.uleb128 .LEHB19-.LFB724
 1142 0063 05       		.uleb128 .LEHE19-.LEHB19
 1143 0064 00       		.uleb128 0
 1144 0065 00       		.uleb128 0
 1145 0066 F002     		.uleb128 .LEHB20-.LFB724
 1146 0068 05       		.uleb128 .LEHE20-.LEHB20
 1147 0069 00       		.uleb128 0
 1148 006a 00       		.uleb128 0
 1149              	.LLSDACSE724:
 1150              		.text
 1152              		.section	.text._ZN75TEST_hsm_build_Should_InitializeInvalidHsmHandle_When_NoStateListGiven_TestC2E
 1153              		.align 2
 1154              		.weak	_ZN75TEST_hsm_build_Should_InitializeInvalidHsmHandle_When_NoStateListGiven_TestC2Ev
 1156              	_ZN75TEST_hsm_build_Should_InitializeInvalidHsmHandle_When_NoStateListGiven_TestC2Ev:
 1157              	.LFB726:
 1158              		.cfi_startproc
GAS LISTING /tmp/ccj7sGND.s 			page 24


 1159 0000 55       		pushq	%rbp
 1160              		.cfi_def_cfa_offset 16
 1161              		.cfi_offset 6, -16
 1162 0001 4889E5   		movq	%rsp, %rbp
 1163              		.cfi_def_cfa_register 6
 1164 0004 4883EC10 		subq	$16, %rsp
 1165 0008 48897DF8 		movq	%rdi, -8(%rbp)
 1166 000c 488B45F8 		movq	-8(%rbp), %rax
 1167 0010 48C70000 		movq	$0, (%rax)
 1167      000000
 1168 0017 488B45F8 		movq	-8(%rbp), %rax
 1169 001b 48C74008 		movq	$0, 8(%rax)
 1169      00000000 
 1170 0023 488B45F8 		movq	-8(%rbp), %rax
 1171 0027 48C74010 		movq	$0, 16(%rax)
 1171      00000000 
 1172 002f 488B45F8 		movq	-8(%rbp), %rax
 1173 0033 48C74018 		movq	$0, 24(%rax)
 1173      00000000 
 1174 003b 488B45F8 		movq	-8(%rbp), %rax
 1175 003f C7402000 		movl	$0, 32(%rax)
 1175      000000
 1176 0046 488B45F8 		movq	-8(%rbp), %rax
 1177 004a C7402800 		movl	$0, 40(%rax)
 1177      000000
 1178 0051 488B45F8 		movq	-8(%rbp), %rax
 1179 0055 4889C7   		movq	%rax, %rdi
 1180 0058 E8000000 		call	_ZN33TEST_GROUP_CppUTestGrouphsm_buildC2Ev
 1180      00
 1181 005d BA000000 		movl	$_ZTV75TEST_hsm_build_Should_InitializeInvalidHsmHandle_When_NoStateListGiven_Test+16, %edx
 1181      00
 1182 0062 488B45F8 		movq	-8(%rbp), %rax
 1183 0066 488910   		movq	%rdx, (%rax)
 1184 0069 90       		nop
 1185 006a C9       		leave
 1186              		.cfi_def_cfa 7, 8
 1187 006b C3       		ret
 1188              		.cfi_endproc
 1189              	.LFE726:
 1191              		.weak	_ZN75TEST_hsm_build_Should_InitializeInvalidHsmHandle_When_NoStateListGiven_TestC1Ev
 1192              		.set	_ZN75TEST_hsm_build_Should_InitializeInvalidHsmHandle_When_NoStateListGiven_TestC1Ev,_ZN75TES
 1193              		.section	.text._ZN80TEST_hsm_build_Should_InitializeInvalidHsmHandle_When_NoStateListGiven_TestShe
 1194              		.align 2
 1195              		.weak	_ZN80TEST_hsm_build_Should_InitializeInvalidHsmHandle_When_NoStateListGiven_TestShell10creat
 1197              	_ZN80TEST_hsm_build_Should_InitializeInvalidHsmHandle_When_NoStateListGiven_TestShell10createTestEv
 1198              	.LFB728:
 1199              		.cfi_startproc
 1200              		.cfi_personality 0x3,__gxx_personality_v0
 1201              		.cfi_lsda 0x3,.LLSDA728
 1202 0000 55       		pushq	%rbp
 1203              		.cfi_def_cfa_offset 16
 1204              		.cfi_offset 6, -16
 1205 0001 4889E5   		movq	%rsp, %rbp
 1206              		.cfi_def_cfa_register 6
 1207 0004 4154     		pushq	%r12
 1208 0006 53       		pushq	%rbx
 1209 0007 4883EC10 		subq	$16, %rsp
GAS LISTING /tmp/ccj7sGND.s 			page 25


 1210              		.cfi_offset 12, -24
 1211              		.cfi_offset 3, -32
 1212 000b 48897DE8 		movq	%rdi, -24(%rbp)
 1213 000f BA5C0000 		movl	$92, %edx
 1213      00
 1214 0014 BE000000 		movl	$.LC0, %esi
 1214      00
 1215 0019 BF300000 		movl	$48, %edi
 1215      00
 1216              	.LEHB21:
 1217 001e E8000000 		call	_ZnwmPKci
 1217      00
 1218              	.LEHE21:
 1219 0023 4889C3   		movq	%rax, %rbx
 1220 0026 4889DF   		movq	%rbx, %rdi
 1221              	.LEHB22:
 1222 0029 E8000000 		call	_ZN75TEST_hsm_build_Should_InitializeInvalidHsmHandle_When_NoStateListGiven_TestC1Ev
 1222      00
 1223              	.LEHE22:
 1224 002e 4889D8   		movq	%rbx, %rax
 1225 0031 EB20     		jmp	.L50
 1226              	.L49:
 1227 0033 4989C4   		movq	%rax, %r12
 1228 0036 BA5C0000 		movl	$92, %edx
 1228      00
 1229 003b BE000000 		movl	$.LC0, %esi
 1229      00
 1230 0040 4889DF   		movq	%rbx, %rdi
 1231 0043 E8000000 		call	_ZdlPvPKci
 1231      00
 1232 0048 4C89E0   		movq	%r12, %rax
 1233 004b 4889C7   		movq	%rax, %rdi
 1234              	.LEHB23:
 1235 004e E8000000 		call	_Unwind_Resume
 1235      00
 1236              	.LEHE23:
 1237              	.L50:
 1238 0053 4883C410 		addq	$16, %rsp
 1239 0057 5B       		popq	%rbx
 1240 0058 415C     		popq	%r12
 1241 005a 5D       		popq	%rbp
 1242              		.cfi_def_cfa 7, 8
 1243 005b C3       		ret
 1244              		.cfi_endproc
 1245              	.LFE728:
 1246              		.section	.gcc_except_table
 1247              	.LLSDA728:
 1248 006b FF       		.byte	0xff
 1249 006c FF       		.byte	0xff
 1250 006d 01       		.byte	0x1
 1251 006e 0C       		.uleb128 .LLSDACSE728-.LLSDACSB728
 1252              	.LLSDACSB728:
 1253 006f 1E       		.uleb128 .LEHB21-.LFB728
 1254 0070 05       		.uleb128 .LEHE21-.LEHB21
 1255 0071 00       		.uleb128 0
 1256 0072 00       		.uleb128 0
 1257 0073 29       		.uleb128 .LEHB22-.LFB728
GAS LISTING /tmp/ccj7sGND.s 			page 26


 1258 0074 05       		.uleb128 .LEHE22-.LEHB22
 1259 0075 33       		.uleb128 .L49-.LFB728
 1260 0076 00       		.uleb128 0
 1261 0077 4E       		.uleb128 .LEHB23-.LFB728
 1262 0078 05       		.uleb128 .LEHE23-.LEHB23
 1263 0079 00       		.uleb128 0
 1264 007a 00       		.uleb128 0
 1265              	.LLSDACSE728:
 1266              		.section	.text._ZN80TEST_hsm_build_Should_InitializeInvalidHsmHandle_When_NoStateListGiven_TestShe
 1268              		.section	.text._ZN80TEST_hsm_build_Should_InitializeInvalidHsmHandle_When_NoStateListGiven_TestShe
 1269              		.align 2
 1270              		.weak	_ZN80TEST_hsm_build_Should_InitializeInvalidHsmHandle_When_NoStateListGiven_TestShellC2Ev
 1272              	_ZN80TEST_hsm_build_Should_InitializeInvalidHsmHandle_When_NoStateListGiven_TestShellC2Ev:
 1273              	.LFB730:
 1274              		.cfi_startproc
 1275 0000 55       		pushq	%rbp
 1276              		.cfi_def_cfa_offset 16
 1277              		.cfi_offset 6, -16
 1278 0001 4889E5   		movq	%rsp, %rbp
 1279              		.cfi_def_cfa_register 6
 1280 0004 4883EC10 		subq	$16, %rsp
 1281 0008 48897DF8 		movq	%rdi, -8(%rbp)
 1282 000c 488B45F8 		movq	-8(%rbp), %rax
 1283 0010 4889C7   		movq	%rax, %rdi
 1284 0013 E8000000 		call	_ZN10UtestShellC2Ev
 1284      00
 1285 0018 BA000000 		movl	$_ZTV80TEST_hsm_build_Should_InitializeInvalidHsmHandle_When_NoStateListGiven_TestShell+16, %
 1285      00
 1286 001d 488B45F8 		movq	-8(%rbp), %rax
 1287 0021 488910   		movq	%rdx, (%rax)
 1288 0024 90       		nop
 1289 0025 C9       		leave
 1290              		.cfi_def_cfa 7, 8
 1291 0026 C3       		ret
 1292              		.cfi_endproc
 1293              	.LFE730:
 1295              		.weak	_ZN80TEST_hsm_build_Should_InitializeInvalidHsmHandle_When_NoStateListGiven_TestShellC1Ev
 1296              		.set	_ZN80TEST_hsm_build_Should_InitializeInvalidHsmHandle_When_NoStateListGiven_TestShellC1Ev,_ZN
 1297              		.globl	TEST_hsm_build_Should_InitializeInvalidHsmHandle_When_NoStateListGiven_TestShell_instance
 1298              		.bss
 1299 0118 00000000 		.align 32
 1299      00000000 
 1302              	TEST_hsm_build_Should_InitializeInvalidHsmHandle_When_NoStateListGiven_TestShell_instance:
 1303 0120 00000000 		.zero	56
 1303      00000000 
 1303      00000000 
 1303      00000000 
 1303      00000000 
 1304              		.local	_ZL80TEST_hsm_build_Should_InitializeInvalidHsmHandle_When_NoStateListGiven_Installer
 1305              		.comm	_ZL80TEST_hsm_build_Should_InitializeInvalidHsmHandle_When_NoStateListGiven_Installer,8,8
 1306              		.text
 1307 048f 90       		.align 2
 1308              		.globl	_ZN75TEST_hsm_build_Should_InitializeInvalidHsmHandle_When_NoStateListGiven_Test8testBodyEv
 1310              	_ZN75TEST_hsm_build_Should_InitializeInvalidHsmHandle_When_NoStateListGiven_Test8testBodyEv:
 1311              	.LFB732:
 1312              		.cfi_startproc
 1313              		.cfi_personality 0x3,__gxx_personality_v0
GAS LISTING /tmp/ccj7sGND.s 			page 27


 1314              		.cfi_lsda 0x3,.LLSDA732
 1315 0490 55       		pushq	%rbp
 1316              		.cfi_def_cfa_offset 16
 1317              		.cfi_offset 6, -16
 1318 0491 4889E5   		movq	%rsp, %rbp
 1319              		.cfi_def_cfa_register 6
 1320 0494 4154     		pushq	%r12
 1321 0496 53       		pushq	%rbx
 1322 0497 4883EC40 		subq	$64, %rsp
 1323              		.cfi_offset 12, -24
 1324              		.cfi_offset 3, -32
 1325 049b 48897DD8 		movq	%rdi, -40(%rbp)
 1326 049f 64488B04 		movq	%fs:40, %rax
 1326      25280000 
 1326      00
 1327 04a8 488945E8 		movq	%rax, -24(%rbp)
 1328 04ac 31C0     		xorl	%eax, %eax
 1329 04ae 488B5DD8 		movq	-40(%rbp), %rbx
 1330 04b2 488D45B0 		leaq	-80(%rbp), %rax
 1331 04b6 B9020000 		movl	$2, %ecx
 1331      00
 1332 04bb BA000000 		movl	$0, %edx
 1332      00
 1333 04c0 BE000000 		movl	$parentState, %esi
 1333      00
 1334 04c5 4889C7   		movq	%rax, %rdi
 1335              	.LEHB24:
 1336 04c8 E8000000 		call	_Z10_hsm_buildPK5statePPS_j
 1336      00
 1337 04cd 488B45B0 		movq	-80(%rbp), %rax
 1338 04d1 48894308 		movq	%rax, 8(%rbx)
 1339 04d5 488B45B8 		movq	-72(%rbp), %rax
 1340 04d9 48894310 		movq	%rax, 16(%rbx)
 1341 04dd 488B45C0 		movq	-64(%rbp), %rax
 1342 04e1 48894318 		movq	%rax, 24(%rbx)
 1343 04e5 488B45C8 		movq	-56(%rbp), %rax
 1344 04e9 48894320 		movq	%rax, 32(%rbx)
 1345 04ed E8000000 		call	_ZN10UtestShell10getCurrentEv
 1345      00
 1346 04f2 488B10   		movq	(%rax), %rdx
 1347 04f5 4881C288 		addq	$136, %rdx
 1347      000000
 1348 04fc 4C8B0A   		movq	(%rdx), %r9
 1349 04ff 488B55D8 		movq	-40(%rbp), %rdx
 1350 0503 488B5208 		movq	8(%rdx), %rdx
 1351 0507 41B86200 		movl	$98, %r8d
 1351      0000
 1352 050d B9000000 		movl	$.LC0, %ecx
 1352      00
 1353 0512 BE000000 		movl	$0, %esi
 1353      00
 1354 0517 4889C7   		movq	%rax, %rdi
 1355 051a 41FFD1   		call	*%r9
 1356 051d E8000000 		call	_ZN10UtestShell10getCurrentEv
 1356      00
 1357 0522 488B10   		movq	(%rax), %rdx
 1358 0525 4881C288 		addq	$136, %rdx
GAS LISTING /tmp/ccj7sGND.s 			page 28


 1358      000000
 1359 052c 4C8B0A   		movq	(%rdx), %r9
 1360 052f 488B55D8 		movq	-40(%rbp), %rdx
 1361 0533 488B5210 		movq	16(%rdx), %rdx
 1362 0537 41B86300 		movl	$99, %r8d
 1362      0000
 1363 053d B9000000 		movl	$.LC0, %ecx
 1363      00
 1364 0542 BE000000 		movl	$0, %esi
 1364      00
 1365 0547 4889C7   		movq	%rax, %rdi
 1366 054a 41FFD1   		call	*%r9
 1367 054d E8000000 		call	_ZN10UtestShell10getCurrentEv
 1367      00
 1368 0552 488B10   		movq	(%rax), %rdx
 1369 0555 4881C288 		addq	$136, %rdx
 1369      000000
 1370 055c 4C8B0A   		movq	(%rdx), %r9
 1371 055f 488B55D8 		movq	-40(%rbp), %rdx
 1372 0563 488B5218 		movq	24(%rdx), %rdx
 1373 0567 41B86400 		movl	$100, %r8d
 1373      0000
 1374 056d B9000000 		movl	$.LC0, %ecx
 1374      00
 1375 0572 BE000000 		movl	$0, %esi
 1375      00
 1376 0577 4889C7   		movq	%rax, %rdi
 1377 057a 41FFD1   		call	*%r9
 1378 057d E8000000 		call	_ZN10UtestShell10getCurrentEv
 1378      00
 1379              	.LEHE24:
 1380 0582 4889C3   		movq	%rax, %rbx
 1381 0585 488B03   		movq	(%rbx), %rax
 1382 0588 4883C078 		addq	$120, %rax
 1383 058c 4C8B20   		movq	(%rax), %r12
 1384 058f 48C745E0 		movq	$0, -32(%rbp)
 1384      00000000 
 1385 0597 488D45E0 		leaq	-32(%rbp), %rax
 1386 059b 4889C7   		movq	%rax, %rdi
 1387 059e E8000000 		call	_ZN20NormalTestTerminatorC1Ev
 1387      00
 1388 05a3 488B45D8 		movq	-40(%rbp), %rax
 1389 05a7 8B4020   		movl	32(%rax), %eax
 1390 05aa 89C2     		movl	%eax, %edx
 1391 05ac 488D45E0 		leaq	-32(%rbp), %rax
 1392 05b0 4989C1   		movq	%rax, %r9
 1393 05b3 41B86500 		movl	$101, %r8d
 1393      0000
 1394 05b9 B9000000 		movl	$.LC0, %ecx
 1394      00
 1395 05be BE000000 		movl	$0, %esi
 1395      00
 1396 05c3 4889DF   		movq	%rbx, %rdi
 1397              	.LEHB25:
 1398 05c6 41FFD4   		call	*%r12
 1399              	.LEHE25:
 1400 05c9 488D45E0 		leaq	-32(%rbp), %rax
GAS LISTING /tmp/ccj7sGND.s 			page 29


 1401 05cd 4889C7   		movq	%rax, %rdi
 1402              	.LEHB26:
 1403 05d0 E8000000 		call	_ZN20NormalTestTerminatorD1Ev
 1403      00
 1404              	.LEHE26:
 1405 05d5 90       		nop
 1406 05d6 488B45E8 		movq	-24(%rbp), %rax
 1407 05da 64483304 		xorq	%fs:40, %rax
 1407      25280000 
 1407      00
 1408 05e3 7421     		je	.L54
 1409 05e5 EB1A     		jmp	.L56
 1410              	.L55:
 1411 05e7 4889C3   		movq	%rax, %rbx
 1412 05ea 488D45E0 		leaq	-32(%rbp), %rax
 1413 05ee 4889C7   		movq	%rax, %rdi
 1414 05f1 E8000000 		call	_ZN20NormalTestTerminatorD1Ev
 1414      00
 1415 05f6 4889D8   		movq	%rbx, %rax
 1416 05f9 4889C7   		movq	%rax, %rdi
 1417              	.LEHB27:
 1418 05fc E8000000 		call	_Unwind_Resume
 1418      00
 1419              	.LEHE27:
 1420              	.L56:
 1421 0601 E8000000 		call	__stack_chk_fail
 1421      00
 1422              	.L54:
 1423 0606 4883C440 		addq	$64, %rsp
 1424 060a 5B       		popq	%rbx
 1425 060b 415C     		popq	%r12
 1426 060d 5D       		popq	%rbp
 1427              		.cfi_def_cfa 7, 8
 1428 060e C3       		ret
 1429              		.cfi_endproc
 1430              	.LFE732:
 1431              		.section	.gcc_except_table
 1432              	.LLSDA732:
 1433 007b FF       		.byte	0xff
 1434 007c FF       		.byte	0xff
 1435 007d 01       		.byte	0x1
 1436 007e 15       		.uleb128 .LLSDACSE732-.LLSDACSB732
 1437              	.LLSDACSB732:
 1438 007f 38       		.uleb128 .LEHB24-.LFB732
 1439 0080 BA01     		.uleb128 .LEHE24-.LEHB24
 1440 0082 00       		.uleb128 0
 1441 0083 00       		.uleb128 0
 1442 0084 B602     		.uleb128 .LEHB25-.LFB732
 1443 0086 03       		.uleb128 .LEHE25-.LEHB25
 1444 0087 D702     		.uleb128 .L55-.LFB732
 1445 0089 00       		.uleb128 0
 1446 008a C002     		.uleb128 .LEHB26-.LFB732
 1447 008c 05       		.uleb128 .LEHE26-.LEHB26
 1448 008d 00       		.uleb128 0
 1449 008e 00       		.uleb128 0
 1450 008f EC02     		.uleb128 .LEHB27-.LFB732
 1451 0091 05       		.uleb128 .LEHE27-.LEHB27
GAS LISTING /tmp/ccj7sGND.s 			page 30


 1452 0092 00       		.uleb128 0
 1453 0093 00       		.uleb128 0
 1454              	.LLSDACSE732:
 1455              		.text
 1457              		.section	.text._ZN83TEST_hsm_build_Should_InitializeInvalidHsmHandle_When_NoNumberOfStateListGiven
 1458              		.align 2
 1459              		.weak	_ZN83TEST_hsm_build_Should_InitializeInvalidHsmHandle_When_NoNumberOfStateListGiven_TestC2Ev
 1461              	_ZN83TEST_hsm_build_Should_InitializeInvalidHsmHandle_When_NoNumberOfStateListGiven_TestC2Ev:
 1462              	.LFB734:
 1463              		.cfi_startproc
 1464 0000 55       		pushq	%rbp
 1465              		.cfi_def_cfa_offset 16
 1466              		.cfi_offset 6, -16
 1467 0001 4889E5   		movq	%rsp, %rbp
 1468              		.cfi_def_cfa_register 6
 1469 0004 4883EC10 		subq	$16, %rsp
 1470 0008 48897DF8 		movq	%rdi, -8(%rbp)
 1471 000c 488B45F8 		movq	-8(%rbp), %rax
 1472 0010 48C70000 		movq	$0, (%rax)
 1472      000000
 1473 0017 488B45F8 		movq	-8(%rbp), %rax
 1474 001b 48C74008 		movq	$0, 8(%rax)
 1474      00000000 
 1475 0023 488B45F8 		movq	-8(%rbp), %rax
 1476 0027 48C74010 		movq	$0, 16(%rax)
 1476      00000000 
 1477 002f 488B45F8 		movq	-8(%rbp), %rax
 1478 0033 48C74018 		movq	$0, 24(%rax)
 1478      00000000 
 1479 003b 488B45F8 		movq	-8(%rbp), %rax
 1480 003f C7402000 		movl	$0, 32(%rax)
 1480      000000
 1481 0046 488B45F8 		movq	-8(%rbp), %rax
 1482 004a C7402800 		movl	$0, 40(%rax)
 1482      000000
 1483 0051 488B45F8 		movq	-8(%rbp), %rax
 1484 0055 4889C7   		movq	%rax, %rdi
 1485 0058 E8000000 		call	_ZN33TEST_GROUP_CppUTestGrouphsm_buildC2Ev
 1485      00
 1486 005d BA000000 		movl	$_ZTV83TEST_hsm_build_Should_InitializeInvalidHsmHandle_When_NoNumberOfStateListGiven_Test+16
 1486      00
 1487 0062 488B45F8 		movq	-8(%rbp), %rax
 1488 0066 488910   		movq	%rdx, (%rax)
 1489 0069 90       		nop
 1490 006a C9       		leave
 1491              		.cfi_def_cfa 7, 8
 1492 006b C3       		ret
 1493              		.cfi_endproc
 1494              	.LFE734:
 1496              		.weak	_ZN83TEST_hsm_build_Should_InitializeInvalidHsmHandle_When_NoNumberOfStateListGiven_TestC1Ev
 1497              		.set	_ZN83TEST_hsm_build_Should_InitializeInvalidHsmHandle_When_NoNumberOfStateListGiven_TestC1Ev,
 1498              		.section	.text._ZN88TEST_hsm_build_Should_InitializeInvalidHsmHandle_When_NoNumberOfStateListGiven
 1499              		.align 2
 1500              		.weak	_ZN88TEST_hsm_build_Should_InitializeInvalidHsmHandle_When_NoNumberOfStateListGiven_TestShel
 1502              	_ZN88TEST_hsm_build_Should_InitializeInvalidHsmHandle_When_NoNumberOfStateListGiven_TestShell10crea
 1503              	.LFB736:
 1504              		.cfi_startproc
GAS LISTING /tmp/ccj7sGND.s 			page 31


 1505              		.cfi_personality 0x3,__gxx_personality_v0
 1506              		.cfi_lsda 0x3,.LLSDA736
 1507 0000 55       		pushq	%rbp
 1508              		.cfi_def_cfa_offset 16
 1509              		.cfi_offset 6, -16
 1510 0001 4889E5   		movq	%rsp, %rbp
 1511              		.cfi_def_cfa_register 6
 1512 0004 4154     		pushq	%r12
 1513 0006 53       		pushq	%rbx
 1514 0007 4883EC10 		subq	$16, %rsp
 1515              		.cfi_offset 12, -24
 1516              		.cfi_offset 3, -32
 1517 000b 48897DE8 		movq	%rdi, -24(%rbp)
 1518 000f BA680000 		movl	$104, %edx
 1518      00
 1519 0014 BE000000 		movl	$.LC0, %esi
 1519      00
 1520 0019 BF300000 		movl	$48, %edi
 1520      00
 1521              	.LEHB28:
 1522 001e E8000000 		call	_ZnwmPKci
 1522      00
 1523              	.LEHE28:
 1524 0023 4889C3   		movq	%rax, %rbx
 1525 0026 4889DF   		movq	%rbx, %rdi
 1526              	.LEHB29:
 1527 0029 E8000000 		call	_ZN83TEST_hsm_build_Should_InitializeInvalidHsmHandle_When_NoNumberOfStateListGiven_TestC1Ev
 1527      00
 1528              	.LEHE29:
 1529 002e 4889D8   		movq	%rbx, %rax
 1530 0031 EB20     		jmp	.L62
 1531              	.L61:
 1532 0033 4989C4   		movq	%rax, %r12
 1533 0036 BA680000 		movl	$104, %edx
 1533      00
 1534 003b BE000000 		movl	$.LC0, %esi
 1534      00
 1535 0040 4889DF   		movq	%rbx, %rdi
 1536 0043 E8000000 		call	_ZdlPvPKci
 1536      00
 1537 0048 4C89E0   		movq	%r12, %rax
 1538 004b 4889C7   		movq	%rax, %rdi
 1539              	.LEHB30:
 1540 004e E8000000 		call	_Unwind_Resume
 1540      00
 1541              	.LEHE30:
 1542              	.L62:
 1543 0053 4883C410 		addq	$16, %rsp
 1544 0057 5B       		popq	%rbx
 1545 0058 415C     		popq	%r12
 1546 005a 5D       		popq	%rbp
 1547              		.cfi_def_cfa 7, 8
 1548 005b C3       		ret
 1549              		.cfi_endproc
 1550              	.LFE736:
 1551              		.section	.gcc_except_table
 1552              	.LLSDA736:
GAS LISTING /tmp/ccj7sGND.s 			page 32


 1553 0094 FF       		.byte	0xff
 1554 0095 FF       		.byte	0xff
 1555 0096 01       		.byte	0x1
 1556 0097 0C       		.uleb128 .LLSDACSE736-.LLSDACSB736
 1557              	.LLSDACSB736:
 1558 0098 1E       		.uleb128 .LEHB28-.LFB736
 1559 0099 05       		.uleb128 .LEHE28-.LEHB28
 1560 009a 00       		.uleb128 0
 1561 009b 00       		.uleb128 0
 1562 009c 29       		.uleb128 .LEHB29-.LFB736
 1563 009d 05       		.uleb128 .LEHE29-.LEHB29
 1564 009e 33       		.uleb128 .L61-.LFB736
 1565 009f 00       		.uleb128 0
 1566 00a0 4E       		.uleb128 .LEHB30-.LFB736
 1567 00a1 05       		.uleb128 .LEHE30-.LEHB30
 1568 00a2 00       		.uleb128 0
 1569 00a3 00       		.uleb128 0
 1570              	.LLSDACSE736:
 1571              		.section	.text._ZN88TEST_hsm_build_Should_InitializeInvalidHsmHandle_When_NoNumberOfStateListGiven
 1573              		.section	.text._ZN88TEST_hsm_build_Should_InitializeInvalidHsmHandle_When_NoNumberOfStateListGiven
 1574              		.align 2
 1575              		.weak	_ZN88TEST_hsm_build_Should_InitializeInvalidHsmHandle_When_NoNumberOfStateListGiven_TestShel
 1577              	_ZN88TEST_hsm_build_Should_InitializeInvalidHsmHandle_When_NoNumberOfStateListGiven_TestShellC2Ev:
 1578              	.LFB738:
 1579              		.cfi_startproc
 1580 0000 55       		pushq	%rbp
 1581              		.cfi_def_cfa_offset 16
 1582              		.cfi_offset 6, -16
 1583 0001 4889E5   		movq	%rsp, %rbp
 1584              		.cfi_def_cfa_register 6
 1585 0004 4883EC10 		subq	$16, %rsp
 1586 0008 48897DF8 		movq	%rdi, -8(%rbp)
 1587 000c 488B45F8 		movq	-8(%rbp), %rax
 1588 0010 4889C7   		movq	%rax, %rdi
 1589 0013 E8000000 		call	_ZN10UtestShellC2Ev
 1589      00
 1590 0018 BA000000 		movl	$_ZTV88TEST_hsm_build_Should_InitializeInvalidHsmHandle_When_NoNumberOfStateListGiven_TestShe
 1590      00
 1591 001d 488B45F8 		movq	-8(%rbp), %rax
 1592 0021 488910   		movq	%rdx, (%rax)
 1593 0024 90       		nop
 1594 0025 C9       		leave
 1595              		.cfi_def_cfa 7, 8
 1596 0026 C3       		ret
 1597              		.cfi_endproc
 1598              	.LFE738:
 1600              		.weak	_ZN88TEST_hsm_build_Should_InitializeInvalidHsmHandle_When_NoNumberOfStateListGiven_TestShel
 1601              		.set	_ZN88TEST_hsm_build_Should_InitializeInvalidHsmHandle_When_NoNumberOfStateListGiven_TestShell
 1602              		.globl	TEST_hsm_build_Should_InitializeInvalidHsmHandle_When_NoNumberOfStateListGiven_TestShell_in
 1603              		.bss
 1604 0158 00000000 		.align 32
 1604      00000000 
 1607              	TEST_hsm_build_Should_InitializeInvalidHsmHandle_When_NoNumberOfStateListGiven_TestShell_instance:
 1608 0160 00000000 		.zero	56
 1608      00000000 
 1608      00000000 
 1608      00000000 
GAS LISTING /tmp/ccj7sGND.s 			page 33


 1608      00000000 
 1609              		.local	_ZL88TEST_hsm_build_Should_InitializeInvalidHsmHandle_When_NoNumberOfStateListGiven_Install
 1610              		.comm	_ZL88TEST_hsm_build_Should_InitializeInvalidHsmHandle_When_NoNumberOfStateListGiven_Installe
 1611              		.text
 1612 060f 90       		.align 2
 1613              		.globl	_ZN83TEST_hsm_build_Should_InitializeInvalidHsmHandle_When_NoNumberOfStateListGiven_Test8te
 1615              	_ZN83TEST_hsm_build_Should_InitializeInvalidHsmHandle_When_NoNumberOfStateListGiven_Test8testBodyEv
 1616              	.LFB740:
 1617              		.cfi_startproc
 1618              		.cfi_personality 0x3,__gxx_personality_v0
 1619              		.cfi_lsda 0x3,.LLSDA740
 1620 0610 55       		pushq	%rbp
 1621              		.cfi_def_cfa_offset 16
 1622              		.cfi_offset 6, -16
 1623 0611 4889E5   		movq	%rsp, %rbp
 1624              		.cfi_def_cfa_register 6
 1625 0614 4154     		pushq	%r12
 1626 0616 53       		pushq	%rbx
 1627 0617 4883EC40 		subq	$64, %rsp
 1628              		.cfi_offset 12, -24
 1629              		.cfi_offset 3, -32
 1630 061b 48897DD8 		movq	%rdi, -40(%rbp)
 1631 061f 64488B04 		movq	%fs:40, %rax
 1631      25280000 
 1631      00
 1632 0628 488945E8 		movq	%rax, -24(%rbp)
 1633 062c 31C0     		xorl	%eax, %eax
 1634 062e 488B5DD8 		movq	-40(%rbp), %rbx
 1635 0632 488D45B0 		leaq	-80(%rbp), %rax
 1636 0636 B9000000 		movl	$0, %ecx
 1636      00
 1637 063b BA000000 		movl	$_ZL9stateList, %edx
 1637      00
 1638 0640 BE000000 		movl	$parentState, %esi
 1638      00
 1639 0645 4889C7   		movq	%rax, %rdi
 1640              	.LEHB31:
 1641 0648 E8000000 		call	_Z10_hsm_buildPK5statePPS_j
 1641      00
 1642 064d 488B45B0 		movq	-80(%rbp), %rax
 1643 0651 48894308 		movq	%rax, 8(%rbx)
 1644 0655 488B45B8 		movq	-72(%rbp), %rax
 1645 0659 48894310 		movq	%rax, 16(%rbx)
 1646 065d 488B45C0 		movq	-64(%rbp), %rax
 1647 0661 48894318 		movq	%rax, 24(%rbx)
 1648 0665 488B45C8 		movq	-56(%rbp), %rax
 1649 0669 48894320 		movq	%rax, 32(%rbx)
 1650 066d E8000000 		call	_ZN10UtestShell10getCurrentEv
 1650      00
 1651 0672 488B10   		movq	(%rax), %rdx
 1652 0675 4881C288 		addq	$136, %rdx
 1652      000000
 1653 067c 4C8B0A   		movq	(%rdx), %r9
 1654 067f 488B55D8 		movq	-40(%rbp), %rdx
 1655 0683 488B5208 		movq	8(%rdx), %rdx
 1656 0687 41B86E00 		movl	$110, %r8d
 1656      0000
GAS LISTING /tmp/ccj7sGND.s 			page 34


 1657 068d B9000000 		movl	$.LC0, %ecx
 1657      00
 1658 0692 BE000000 		movl	$0, %esi
 1658      00
 1659 0697 4889C7   		movq	%rax, %rdi
 1660 069a 41FFD1   		call	*%r9
 1661 069d E8000000 		call	_ZN10UtestShell10getCurrentEv
 1661      00
 1662 06a2 488B10   		movq	(%rax), %rdx
 1663 06a5 4881C288 		addq	$136, %rdx
 1663      000000
 1664 06ac 4C8B0A   		movq	(%rdx), %r9
 1665 06af 488B55D8 		movq	-40(%rbp), %rdx
 1666 06b3 488B5210 		movq	16(%rdx), %rdx
 1667 06b7 41B86F00 		movl	$111, %r8d
 1667      0000
 1668 06bd B9000000 		movl	$.LC0, %ecx
 1668      00
 1669 06c2 BE000000 		movl	$0, %esi
 1669      00
 1670 06c7 4889C7   		movq	%rax, %rdi
 1671 06ca 41FFD1   		call	*%r9
 1672 06cd E8000000 		call	_ZN10UtestShell10getCurrentEv
 1672      00
 1673 06d2 488B10   		movq	(%rax), %rdx
 1674 06d5 4881C288 		addq	$136, %rdx
 1674      000000
 1675 06dc 4C8B0A   		movq	(%rdx), %r9
 1676 06df 488B55D8 		movq	-40(%rbp), %rdx
 1677 06e3 488B5218 		movq	24(%rdx), %rdx
 1678 06e7 41B87000 		movl	$112, %r8d
 1678      0000
 1679 06ed B9000000 		movl	$.LC0, %ecx
 1679      00
 1680 06f2 BE000000 		movl	$0, %esi
 1680      00
 1681 06f7 4889C7   		movq	%rax, %rdi
 1682 06fa 41FFD1   		call	*%r9
 1683 06fd E8000000 		call	_ZN10UtestShell10getCurrentEv
 1683      00
 1684              	.LEHE31:
 1685 0702 4889C3   		movq	%rax, %rbx
 1686 0705 488B03   		movq	(%rbx), %rax
 1687 0708 4883C078 		addq	$120, %rax
 1688 070c 4C8B20   		movq	(%rax), %r12
 1689 070f 48C745E0 		movq	$0, -32(%rbp)
 1689      00000000 
 1690 0717 488D45E0 		leaq	-32(%rbp), %rax
 1691 071b 4889C7   		movq	%rax, %rdi
 1692 071e E8000000 		call	_ZN20NormalTestTerminatorC1Ev
 1692      00
 1693 0723 488B45D8 		movq	-40(%rbp), %rax
 1694 0727 8B4020   		movl	32(%rax), %eax
 1695 072a 89C2     		movl	%eax, %edx
 1696 072c 488D45E0 		leaq	-32(%rbp), %rax
 1697 0730 4989C1   		movq	%rax, %r9
 1698 0733 41B87100 		movl	$113, %r8d
GAS LISTING /tmp/ccj7sGND.s 			page 35


 1698      0000
 1699 0739 B9000000 		movl	$.LC0, %ecx
 1699      00
 1700 073e BE000000 		movl	$0, %esi
 1700      00
 1701 0743 4889DF   		movq	%rbx, %rdi
 1702              	.LEHB32:
 1703 0746 41FFD4   		call	*%r12
 1704              	.LEHE32:
 1705 0749 488D45E0 		leaq	-32(%rbp), %rax
 1706 074d 4889C7   		movq	%rax, %rdi
 1707              	.LEHB33:
 1708 0750 E8000000 		call	_ZN20NormalTestTerminatorD1Ev
 1708      00
 1709              	.LEHE33:
 1710 0755 90       		nop
 1711 0756 488B45E8 		movq	-24(%rbp), %rax
 1712 075a 64483304 		xorq	%fs:40, %rax
 1712      25280000 
 1712      00
 1713 0763 7421     		je	.L66
 1714 0765 EB1A     		jmp	.L68
 1715              	.L67:
 1716 0767 4889C3   		movq	%rax, %rbx
 1717 076a 488D45E0 		leaq	-32(%rbp), %rax
 1718 076e 4889C7   		movq	%rax, %rdi
 1719 0771 E8000000 		call	_ZN20NormalTestTerminatorD1Ev
 1719      00
 1720 0776 4889D8   		movq	%rbx, %rax
 1721 0779 4889C7   		movq	%rax, %rdi
 1722              	.LEHB34:
 1723 077c E8000000 		call	_Unwind_Resume
 1723      00
 1724              	.LEHE34:
 1725              	.L68:
 1726 0781 E8000000 		call	__stack_chk_fail
 1726      00
 1727              	.L66:
 1728 0786 4883C440 		addq	$64, %rsp
 1729 078a 5B       		popq	%rbx
 1730 078b 415C     		popq	%r12
 1731 078d 5D       		popq	%rbp
 1732              		.cfi_def_cfa 7, 8
 1733 078e C3       		ret
 1734              		.cfi_endproc
 1735              	.LFE740:
 1736              		.section	.gcc_except_table
 1737              	.LLSDA740:
 1738 00a4 FF       		.byte	0xff
 1739 00a5 FF       		.byte	0xff
 1740 00a6 01       		.byte	0x1
 1741 00a7 15       		.uleb128 .LLSDACSE740-.LLSDACSB740
 1742              	.LLSDACSB740:
 1743 00a8 38       		.uleb128 .LEHB31-.LFB740
 1744 00a9 BA01     		.uleb128 .LEHE31-.LEHB31
 1745 00ab 00       		.uleb128 0
 1746 00ac 00       		.uleb128 0
GAS LISTING /tmp/ccj7sGND.s 			page 36


 1747 00ad B602     		.uleb128 .LEHB32-.LFB740
 1748 00af 03       		.uleb128 .LEHE32-.LEHB32
 1749 00b0 D702     		.uleb128 .L67-.LFB740
 1750 00b2 00       		.uleb128 0
 1751 00b3 C002     		.uleb128 .LEHB33-.LFB740
 1752 00b5 05       		.uleb128 .LEHE33-.LEHB33
 1753 00b6 00       		.uleb128 0
 1754 00b7 00       		.uleb128 0
 1755 00b8 EC02     		.uleb128 .LEHB34-.LFB740
 1756 00ba 05       		.uleb128 .LEHE34-.LEHB34
 1757 00bb 00       		.uleb128 0
 1758 00bc 00       		.uleb128 0
 1759              	.LLSDACSE740:
 1760              		.text
 1762              		.section	.text._ZN97TEST_hsm_build_Should_InitializeInvalidHsmHandle_When_NoStateListAndNoNumberOf
 1763              		.align 2
 1764              		.weak	_ZN97TEST_hsm_build_Should_InitializeInvalidHsmHandle_When_NoStateListAndNoNumberOfStateList
 1766              	_ZN97TEST_hsm_build_Should_InitializeInvalidHsmHandle_When_NoStateListAndNoNumberOfStateListGiven_T
 1767              	.LFB742:
 1768              		.cfi_startproc
 1769 0000 55       		pushq	%rbp
 1770              		.cfi_def_cfa_offset 16
 1771              		.cfi_offset 6, -16
 1772 0001 4889E5   		movq	%rsp, %rbp
 1773              		.cfi_def_cfa_register 6
 1774 0004 4883EC10 		subq	$16, %rsp
 1775 0008 48897DF8 		movq	%rdi, -8(%rbp)
 1776 000c 488B45F8 		movq	-8(%rbp), %rax
 1777 0010 48C70000 		movq	$0, (%rax)
 1777      000000
 1778 0017 488B45F8 		movq	-8(%rbp), %rax
 1779 001b 48C74008 		movq	$0, 8(%rax)
 1779      00000000 
 1780 0023 488B45F8 		movq	-8(%rbp), %rax
 1781 0027 48C74010 		movq	$0, 16(%rax)
 1781      00000000 
 1782 002f 488B45F8 		movq	-8(%rbp), %rax
 1783 0033 48C74018 		movq	$0, 24(%rax)
 1783      00000000 
 1784 003b 488B45F8 		movq	-8(%rbp), %rax
 1785 003f C7402000 		movl	$0, 32(%rax)
 1785      000000
 1786 0046 488B45F8 		movq	-8(%rbp), %rax
 1787 004a C7402800 		movl	$0, 40(%rax)
 1787      000000
 1788 0051 488B45F8 		movq	-8(%rbp), %rax
 1789 0055 4889C7   		movq	%rax, %rdi
 1790 0058 E8000000 		call	_ZN33TEST_GROUP_CppUTestGrouphsm_buildC2Ev
 1790      00
 1791 005d BA000000 		movl	$_ZTV97TEST_hsm_build_Should_InitializeInvalidHsmHandle_When_NoStateListAndNoNumberOfStateLis
 1791      00
 1792 0062 488B45F8 		movq	-8(%rbp), %rax
 1793 0066 488910   		movq	%rdx, (%rax)
 1794 0069 90       		nop
 1795 006a C9       		leave
 1796              		.cfi_def_cfa 7, 8
 1797 006b C3       		ret
GAS LISTING /tmp/ccj7sGND.s 			page 37


 1798              		.cfi_endproc
 1799              	.LFE742:
 1801              		.weak	_ZN97TEST_hsm_build_Should_InitializeInvalidHsmHandle_When_NoStateListAndNoNumberOfStateList
 1802              		.set	_ZN97TEST_hsm_build_Should_InitializeInvalidHsmHandle_When_NoStateListAndNoNumberOfStateListG
 1803              		.section	.text._ZN102TEST_hsm_build_Should_InitializeInvalidHsmHandle_When_NoStateListAndNoNumberO
 1804              		.align 2
 1805              		.weak	_ZN102TEST_hsm_build_Should_InitializeInvalidHsmHandle_When_NoStateListAndNoNumberOfStateLis
 1807              	_ZN102TEST_hsm_build_Should_InitializeInvalidHsmHandle_When_NoStateListAndNoNumberOfStateListGiven_
 1808              	.LFB744:
 1809              		.cfi_startproc
 1810              		.cfi_personality 0x3,__gxx_personality_v0
 1811              		.cfi_lsda 0x3,.LLSDA744
 1812 0000 55       		pushq	%rbp
 1813              		.cfi_def_cfa_offset 16
 1814              		.cfi_offset 6, -16
 1815 0001 4889E5   		movq	%rsp, %rbp
 1816              		.cfi_def_cfa_register 6
 1817 0004 4154     		pushq	%r12
 1818 0006 53       		pushq	%rbx
 1819 0007 4883EC10 		subq	$16, %rsp
 1820              		.cfi_offset 12, -24
 1821              		.cfi_offset 3, -32
 1822 000b 48897DE8 		movq	%rdi, -24(%rbp)
 1823 000f BA740000 		movl	$116, %edx
 1823      00
 1824 0014 BE000000 		movl	$.LC0, %esi
 1824      00
 1825 0019 BF300000 		movl	$48, %edi
 1825      00
 1826              	.LEHB35:
 1827 001e E8000000 		call	_ZnwmPKci
 1827      00
 1828              	.LEHE35:
 1829 0023 4889C3   		movq	%rax, %rbx
 1830 0026 4889DF   		movq	%rbx, %rdi
 1831              	.LEHB36:
 1832 0029 E8000000 		call	_ZN97TEST_hsm_build_Should_InitializeInvalidHsmHandle_When_NoStateListAndNoNumberOfStateListG
 1832      00
 1833              	.LEHE36:
 1834 002e 4889D8   		movq	%rbx, %rax
 1835 0031 EB20     		jmp	.L74
 1836              	.L73:
 1837 0033 4989C4   		movq	%rax, %r12
 1838 0036 BA740000 		movl	$116, %edx
 1838      00
 1839 003b BE000000 		movl	$.LC0, %esi
 1839      00
 1840 0040 4889DF   		movq	%rbx, %rdi
 1841 0043 E8000000 		call	_ZdlPvPKci
 1841      00
 1842 0048 4C89E0   		movq	%r12, %rax
 1843 004b 4889C7   		movq	%rax, %rdi
 1844              	.LEHB37:
 1845 004e E8000000 		call	_Unwind_Resume
 1845      00
 1846              	.LEHE37:
 1847              	.L74:
GAS LISTING /tmp/ccj7sGND.s 			page 38


 1848 0053 4883C410 		addq	$16, %rsp
 1849 0057 5B       		popq	%rbx
 1850 0058 415C     		popq	%r12
 1851 005a 5D       		popq	%rbp
 1852              		.cfi_def_cfa 7, 8
 1853 005b C3       		ret
 1854              		.cfi_endproc
 1855              	.LFE744:
 1856              		.section	.gcc_except_table
 1857              	.LLSDA744:
 1858 00bd FF       		.byte	0xff
 1859 00be FF       		.byte	0xff
 1860 00bf 01       		.byte	0x1
 1861 00c0 0C       		.uleb128 .LLSDACSE744-.LLSDACSB744
 1862              	.LLSDACSB744:
 1863 00c1 1E       		.uleb128 .LEHB35-.LFB744
 1864 00c2 05       		.uleb128 .LEHE35-.LEHB35
 1865 00c3 00       		.uleb128 0
 1866 00c4 00       		.uleb128 0
 1867 00c5 29       		.uleb128 .LEHB36-.LFB744
 1868 00c6 05       		.uleb128 .LEHE36-.LEHB36
 1869 00c7 33       		.uleb128 .L73-.LFB744
 1870 00c8 00       		.uleb128 0
 1871 00c9 4E       		.uleb128 .LEHB37-.LFB744
 1872 00ca 05       		.uleb128 .LEHE37-.LEHB37
 1873 00cb 00       		.uleb128 0
 1874 00cc 00       		.uleb128 0
 1875              	.LLSDACSE744:
 1876              		.section	.text._ZN102TEST_hsm_build_Should_InitializeInvalidHsmHandle_When_NoStateListAndNoNumberO
 1878              		.section	.text._ZN102TEST_hsm_build_Should_InitializeInvalidHsmHandle_When_NoStateListAndNoNumberO
 1879              		.align 2
 1880              		.weak	_ZN102TEST_hsm_build_Should_InitializeInvalidHsmHandle_When_NoStateListAndNoNumberOfStateLis
 1882              	_ZN102TEST_hsm_build_Should_InitializeInvalidHsmHandle_When_NoStateListAndNoNumberOfStateListGiven_
 1883              	.LFB746:
 1884              		.cfi_startproc
 1885 0000 55       		pushq	%rbp
 1886              		.cfi_def_cfa_offset 16
 1887              		.cfi_offset 6, -16
 1888 0001 4889E5   		movq	%rsp, %rbp
 1889              		.cfi_def_cfa_register 6
 1890 0004 4883EC10 		subq	$16, %rsp
 1891 0008 48897DF8 		movq	%rdi, -8(%rbp)
 1892 000c 488B45F8 		movq	-8(%rbp), %rax
 1893 0010 4889C7   		movq	%rax, %rdi
 1894 0013 E8000000 		call	_ZN10UtestShellC2Ev
 1894      00
 1895 0018 BA000000 		movl	$_ZTV102TEST_hsm_build_Should_InitializeInvalidHsmHandle_When_NoStateListAndNoNumberOfStateLi
 1895      00
 1896 001d 488B45F8 		movq	-8(%rbp), %rax
 1897 0021 488910   		movq	%rdx, (%rax)
 1898 0024 90       		nop
 1899 0025 C9       		leave
 1900              		.cfi_def_cfa 7, 8
 1901 0026 C3       		ret
 1902              		.cfi_endproc
 1903              	.LFE746:
 1905              		.weak	_ZN102TEST_hsm_build_Should_InitializeInvalidHsmHandle_When_NoStateListAndNoNumberOfStateLis
GAS LISTING /tmp/ccj7sGND.s 			page 39


 1906              		.set	_ZN102TEST_hsm_build_Should_InitializeInvalidHsmHandle_When_NoStateListAndNoNumberOfStateList
 1907              		.globl	TEST_hsm_build_Should_InitializeInvalidHsmHandle_When_NoStateListAndNoNumberOfStateListGive
 1908              		.bss
 1909 0198 00000000 		.align 32
 1909      00000000 
 1912              	TEST_hsm_build_Should_InitializeInvalidHsmHandle_When_NoStateListAndNoNumberOfStateListGiven_TestSh
 1913 01a0 00000000 		.zero	56
 1913      00000000 
 1913      00000000 
 1913      00000000 
 1913      00000000 
 1914              		.local	_ZL102TEST_hsm_build_Should_InitializeInvalidHsmHandle_When_NoStateListAndNoNumberOfStateLi
 1915              		.comm	_ZL102TEST_hsm_build_Should_InitializeInvalidHsmHandle_When_NoStateListAndNoNumberOfStateLis
 1916              		.text
 1917 078f 90       		.align 2
 1918              		.globl	_ZN97TEST_hsm_build_Should_InitializeInvalidHsmHandle_When_NoStateListAndNoNumberOfStateLis
 1920              	_ZN97TEST_hsm_build_Should_InitializeInvalidHsmHandle_When_NoStateListAndNoNumberOfStateListGiven_T
 1921              	.LFB748:
 1922              		.cfi_startproc
 1923              		.cfi_personality 0x3,__gxx_personality_v0
 1924              		.cfi_lsda 0x3,.LLSDA748
 1925 0790 55       		pushq	%rbp
 1926              		.cfi_def_cfa_offset 16
 1927              		.cfi_offset 6, -16
 1928 0791 4889E5   		movq	%rsp, %rbp
 1929              		.cfi_def_cfa_register 6
 1930 0794 4154     		pushq	%r12
 1931 0796 53       		pushq	%rbx
 1932 0797 4883EC40 		subq	$64, %rsp
 1933              		.cfi_offset 12, -24
 1934              		.cfi_offset 3, -32
 1935 079b 48897DD8 		movq	%rdi, -40(%rbp)
 1936 079f 64488B04 		movq	%fs:40, %rax
 1936      25280000 
 1936      00
 1937 07a8 488945E8 		movq	%rax, -24(%rbp)
 1938 07ac 31C0     		xorl	%eax, %eax
 1939 07ae 488B5DD8 		movq	-40(%rbp), %rbx
 1940 07b2 488D45B0 		leaq	-80(%rbp), %rax
 1941 07b6 B9000000 		movl	$0, %ecx
 1941      00
 1942 07bb BA000000 		movl	$0, %edx
 1942      00
 1943 07c0 BE000000 		movl	$parentState, %esi
 1943      00
 1944 07c5 4889C7   		movq	%rax, %rdi
 1945              	.LEHB38:
 1946 07c8 E8000000 		call	_Z10_hsm_buildPK5statePPS_j
 1946      00
 1947 07cd 488B45B0 		movq	-80(%rbp), %rax
 1948 07d1 48894308 		movq	%rax, 8(%rbx)
 1949 07d5 488B45B8 		movq	-72(%rbp), %rax
 1950 07d9 48894310 		movq	%rax, 16(%rbx)
 1951 07dd 488B45C0 		movq	-64(%rbp), %rax
 1952 07e1 48894318 		movq	%rax, 24(%rbx)
 1953 07e5 488B45C8 		movq	-56(%rbp), %rax
 1954 07e9 48894320 		movq	%rax, 32(%rbx)
GAS LISTING /tmp/ccj7sGND.s 			page 40


 1955 07ed E8000000 		call	_ZN10UtestShell10getCurrentEv
 1955      00
 1956 07f2 488B10   		movq	(%rax), %rdx
 1957 07f5 4881C288 		addq	$136, %rdx
 1957      000000
 1958 07fc 4C8B0A   		movq	(%rdx), %r9
 1959 07ff 488B55D8 		movq	-40(%rbp), %rdx
 1960 0803 488B5208 		movq	8(%rdx), %rdx
 1961 0807 41B87A00 		movl	$122, %r8d
 1961      0000
 1962 080d B9000000 		movl	$.LC0, %ecx
 1962      00
 1963 0812 BE000000 		movl	$0, %esi
 1963      00
 1964 0817 4889C7   		movq	%rax, %rdi
 1965 081a 41FFD1   		call	*%r9
 1966 081d E8000000 		call	_ZN10UtestShell10getCurrentEv
 1966      00
 1967 0822 488B10   		movq	(%rax), %rdx
 1968 0825 4881C288 		addq	$136, %rdx
 1968      000000
 1969 082c 4C8B0A   		movq	(%rdx), %r9
 1970 082f 488B55D8 		movq	-40(%rbp), %rdx
 1971 0833 488B5210 		movq	16(%rdx), %rdx
 1972 0837 41B87B00 		movl	$123, %r8d
 1972      0000
 1973 083d B9000000 		movl	$.LC0, %ecx
 1973      00
 1974 0842 BE000000 		movl	$0, %esi
 1974      00
 1975 0847 4889C7   		movq	%rax, %rdi
 1976 084a 41FFD1   		call	*%r9
 1977 084d E8000000 		call	_ZN10UtestShell10getCurrentEv
 1977      00
 1978 0852 488B10   		movq	(%rax), %rdx
 1979 0855 4881C288 		addq	$136, %rdx
 1979      000000
 1980 085c 4C8B0A   		movq	(%rdx), %r9
 1981 085f 488B55D8 		movq	-40(%rbp), %rdx
 1982 0863 488B5218 		movq	24(%rdx), %rdx
 1983 0867 41B87C00 		movl	$124, %r8d
 1983      0000
 1984 086d B9000000 		movl	$.LC0, %ecx
 1984      00
 1985 0872 BE000000 		movl	$0, %esi
 1985      00
 1986 0877 4889C7   		movq	%rax, %rdi
 1987 087a 41FFD1   		call	*%r9
 1988 087d E8000000 		call	_ZN10UtestShell10getCurrentEv
 1988      00
 1989              	.LEHE38:
 1990 0882 4889C3   		movq	%rax, %rbx
 1991 0885 488B03   		movq	(%rbx), %rax
 1992 0888 4883C078 		addq	$120, %rax
 1993 088c 4C8B20   		movq	(%rax), %r12
 1994 088f 48C745E0 		movq	$0, -32(%rbp)
 1994      00000000 
GAS LISTING /tmp/ccj7sGND.s 			page 41


 1995 0897 488D45E0 		leaq	-32(%rbp), %rax
 1996 089b 4889C7   		movq	%rax, %rdi
 1997 089e E8000000 		call	_ZN20NormalTestTerminatorC1Ev
 1997      00
 1998 08a3 488B45D8 		movq	-40(%rbp), %rax
 1999 08a7 8B4020   		movl	32(%rax), %eax
 2000 08aa 89C2     		movl	%eax, %edx
 2001 08ac 488D45E0 		leaq	-32(%rbp), %rax
 2002 08b0 4989C1   		movq	%rax, %r9
 2003 08b3 41B87D00 		movl	$125, %r8d
 2003      0000
 2004 08b9 B9000000 		movl	$.LC0, %ecx
 2004      00
 2005 08be BE000000 		movl	$0, %esi
 2005      00
 2006 08c3 4889DF   		movq	%rbx, %rdi
 2007              	.LEHB39:
 2008 08c6 41FFD4   		call	*%r12
 2009              	.LEHE39:
 2010 08c9 488D45E0 		leaq	-32(%rbp), %rax
 2011 08cd 4889C7   		movq	%rax, %rdi
 2012              	.LEHB40:
 2013 08d0 E8000000 		call	_ZN20NormalTestTerminatorD1Ev
 2013      00
 2014              	.LEHE40:
 2015 08d5 90       		nop
 2016 08d6 488B45E8 		movq	-24(%rbp), %rax
 2017 08da 64483304 		xorq	%fs:40, %rax
 2017      25280000 
 2017      00
 2018 08e3 7421     		je	.L78
 2019 08e5 EB1A     		jmp	.L80
 2020              	.L79:
 2021 08e7 4889C3   		movq	%rax, %rbx
 2022 08ea 488D45E0 		leaq	-32(%rbp), %rax
 2023 08ee 4889C7   		movq	%rax, %rdi
 2024 08f1 E8000000 		call	_ZN20NormalTestTerminatorD1Ev
 2024      00
 2025 08f6 4889D8   		movq	%rbx, %rax
 2026 08f9 4889C7   		movq	%rax, %rdi
 2027              	.LEHB41:
 2028 08fc E8000000 		call	_Unwind_Resume
 2028      00
 2029              	.LEHE41:
 2030              	.L80:
 2031 0901 E8000000 		call	__stack_chk_fail
 2031      00
 2032              	.L78:
 2033 0906 4883C440 		addq	$64, %rsp
 2034 090a 5B       		popq	%rbx
 2035 090b 415C     		popq	%r12
 2036 090d 5D       		popq	%rbp
 2037              		.cfi_def_cfa 7, 8
 2038 090e C3       		ret
 2039              		.cfi_endproc
 2040              	.LFE748:
 2041              		.section	.gcc_except_table
GAS LISTING /tmp/ccj7sGND.s 			page 42


 2042              	.LLSDA748:
 2043 00cd FF       		.byte	0xff
 2044 00ce FF       		.byte	0xff
 2045 00cf 01       		.byte	0x1
 2046 00d0 15       		.uleb128 .LLSDACSE748-.LLSDACSB748
 2047              	.LLSDACSB748:
 2048 00d1 38       		.uleb128 .LEHB38-.LFB748
 2049 00d2 BA01     		.uleb128 .LEHE38-.LEHB38
 2050 00d4 00       		.uleb128 0
 2051 00d5 00       		.uleb128 0
 2052 00d6 B602     		.uleb128 .LEHB39-.LFB748
 2053 00d8 03       		.uleb128 .LEHE39-.LEHB39
 2054 00d9 D702     		.uleb128 .L79-.LFB748
 2055 00db 00       		.uleb128 0
 2056 00dc C002     		.uleb128 .LEHB40-.LFB748
 2057 00de 05       		.uleb128 .LEHE40-.LEHB40
 2058 00df 00       		.uleb128 0
 2059 00e0 00       		.uleb128 0
 2060 00e1 EC02     		.uleb128 .LEHB41-.LFB748
 2061 00e3 05       		.uleb128 .LEHE41-.LEHB41
 2062 00e4 00       		.uleb128 0
 2063 00e5 00       		.uleb128 0
 2064              	.LLSDACSE748:
 2065              		.text
 2067              		.section	.text._ZN76TEST_hsm_build_Should_InitializeInvalidHsmHandle_When_NothingGivenGiven_TestC2
 2068              		.align 2
 2069              		.weak	_ZN76TEST_hsm_build_Should_InitializeInvalidHsmHandle_When_NothingGivenGiven_TestC2Ev
 2071              	_ZN76TEST_hsm_build_Should_InitializeInvalidHsmHandle_When_NothingGivenGiven_TestC2Ev:
 2072              	.LFB750:
 2073              		.cfi_startproc
 2074 0000 55       		pushq	%rbp
 2075              		.cfi_def_cfa_offset 16
 2076              		.cfi_offset 6, -16
 2077 0001 4889E5   		movq	%rsp, %rbp
 2078              		.cfi_def_cfa_register 6
 2079 0004 4883EC10 		subq	$16, %rsp
 2080 0008 48897DF8 		movq	%rdi, -8(%rbp)
 2081 000c 488B45F8 		movq	-8(%rbp), %rax
 2082 0010 48C70000 		movq	$0, (%rax)
 2082      000000
 2083 0017 488B45F8 		movq	-8(%rbp), %rax
 2084 001b 48C74008 		movq	$0, 8(%rax)
 2084      00000000 
 2085 0023 488B45F8 		movq	-8(%rbp), %rax
 2086 0027 48C74010 		movq	$0, 16(%rax)
 2086      00000000 
 2087 002f 488B45F8 		movq	-8(%rbp), %rax
 2088 0033 48C74018 		movq	$0, 24(%rax)
 2088      00000000 
 2089 003b 488B45F8 		movq	-8(%rbp), %rax
 2090 003f C7402000 		movl	$0, 32(%rax)
 2090      000000
 2091 0046 488B45F8 		movq	-8(%rbp), %rax
 2092 004a C7402800 		movl	$0, 40(%rax)
 2092      000000
 2093 0051 488B45F8 		movq	-8(%rbp), %rax
 2094 0055 4889C7   		movq	%rax, %rdi
GAS LISTING /tmp/ccj7sGND.s 			page 43


 2095 0058 E8000000 		call	_ZN33TEST_GROUP_CppUTestGrouphsm_buildC2Ev
 2095      00
 2096 005d BA000000 		movl	$_ZTV76TEST_hsm_build_Should_InitializeInvalidHsmHandle_When_NothingGivenGiven_Test+16, %edx
 2096      00
 2097 0062 488B45F8 		movq	-8(%rbp), %rax
 2098 0066 488910   		movq	%rdx, (%rax)
 2099 0069 90       		nop
 2100 006a C9       		leave
 2101              		.cfi_def_cfa 7, 8
 2102 006b C3       		ret
 2103              		.cfi_endproc
 2104              	.LFE750:
 2106              		.weak	_ZN76TEST_hsm_build_Should_InitializeInvalidHsmHandle_When_NothingGivenGiven_TestC1Ev
 2107              		.set	_ZN76TEST_hsm_build_Should_InitializeInvalidHsmHandle_When_NothingGivenGiven_TestC1Ev,_ZN76TE
 2108              		.section	.text._ZN81TEST_hsm_build_Should_InitializeInvalidHsmHandle_When_NothingGivenGiven_TestSh
 2109              		.align 2
 2110              		.weak	_ZN81TEST_hsm_build_Should_InitializeInvalidHsmHandle_When_NothingGivenGiven_TestShell10crea
 2112              	_ZN81TEST_hsm_build_Should_InitializeInvalidHsmHandle_When_NothingGivenGiven_TestShell10createTestE
 2113              	.LFB752:
 2114              		.cfi_startproc
 2115              		.cfi_personality 0x3,__gxx_personality_v0
 2116              		.cfi_lsda 0x3,.LLSDA752
 2117 0000 55       		pushq	%rbp
 2118              		.cfi_def_cfa_offset 16
 2119              		.cfi_offset 6, -16
 2120 0001 4889E5   		movq	%rsp, %rbp
 2121              		.cfi_def_cfa_register 6
 2122 0004 4154     		pushq	%r12
 2123 0006 53       		pushq	%rbx
 2124 0007 4883EC10 		subq	$16, %rsp
 2125              		.cfi_offset 12, -24
 2126              		.cfi_offset 3, -32
 2127 000b 48897DE8 		movq	%rdi, -24(%rbp)
 2128 000f BA800000 		movl	$128, %edx
 2128      00
 2129 0014 BE000000 		movl	$.LC0, %esi
 2129      00
 2130 0019 BF300000 		movl	$48, %edi
 2130      00
 2131              	.LEHB42:
 2132 001e E8000000 		call	_ZnwmPKci
 2132      00
 2133              	.LEHE42:
 2134 0023 4889C3   		movq	%rax, %rbx
 2135 0026 4889DF   		movq	%rbx, %rdi
 2136              	.LEHB43:
 2137 0029 E8000000 		call	_ZN76TEST_hsm_build_Should_InitializeInvalidHsmHandle_When_NothingGivenGiven_TestC1Ev
 2137      00
 2138              	.LEHE43:
 2139 002e 4889D8   		movq	%rbx, %rax
 2140 0031 EB20     		jmp	.L86
 2141              	.L85:
 2142 0033 4989C4   		movq	%rax, %r12
 2143 0036 BA800000 		movl	$128, %edx
 2143      00
 2144 003b BE000000 		movl	$.LC0, %esi
 2144      00
GAS LISTING /tmp/ccj7sGND.s 			page 44


 2145 0040 4889DF   		movq	%rbx, %rdi
 2146 0043 E8000000 		call	_ZdlPvPKci
 2146      00
 2147 0048 4C89E0   		movq	%r12, %rax
 2148 004b 4889C7   		movq	%rax, %rdi
 2149              	.LEHB44:
 2150 004e E8000000 		call	_Unwind_Resume
 2150      00
 2151              	.LEHE44:
 2152              	.L86:
 2153 0053 4883C410 		addq	$16, %rsp
 2154 0057 5B       		popq	%rbx
 2155 0058 415C     		popq	%r12
 2156 005a 5D       		popq	%rbp
 2157              		.cfi_def_cfa 7, 8
 2158 005b C3       		ret
 2159              		.cfi_endproc
 2160              	.LFE752:
 2161              		.section	.gcc_except_table
 2162              	.LLSDA752:
 2163 00e6 FF       		.byte	0xff
 2164 00e7 FF       		.byte	0xff
 2165 00e8 01       		.byte	0x1
 2166 00e9 0C       		.uleb128 .LLSDACSE752-.LLSDACSB752
 2167              	.LLSDACSB752:
 2168 00ea 1E       		.uleb128 .LEHB42-.LFB752
 2169 00eb 05       		.uleb128 .LEHE42-.LEHB42
 2170 00ec 00       		.uleb128 0
 2171 00ed 00       		.uleb128 0
 2172 00ee 29       		.uleb128 .LEHB43-.LFB752
 2173 00ef 05       		.uleb128 .LEHE43-.LEHB43
 2174 00f0 33       		.uleb128 .L85-.LFB752
 2175 00f1 00       		.uleb128 0
 2176 00f2 4E       		.uleb128 .LEHB44-.LFB752
 2177 00f3 05       		.uleb128 .LEHE44-.LEHB44
 2178 00f4 00       		.uleb128 0
 2179 00f5 00       		.uleb128 0
 2180              	.LLSDACSE752:
 2181              		.section	.text._ZN81TEST_hsm_build_Should_InitializeInvalidHsmHandle_When_NothingGivenGiven_TestSh
 2183              		.section	.text._ZN81TEST_hsm_build_Should_InitializeInvalidHsmHandle_When_NothingGivenGiven_TestSh
 2184              		.align 2
 2185              		.weak	_ZN81TEST_hsm_build_Should_InitializeInvalidHsmHandle_When_NothingGivenGiven_TestShellC2Ev
 2187              	_ZN81TEST_hsm_build_Should_InitializeInvalidHsmHandle_When_NothingGivenGiven_TestShellC2Ev:
 2188              	.LFB754:
 2189              		.cfi_startproc
 2190 0000 55       		pushq	%rbp
 2191              		.cfi_def_cfa_offset 16
 2192              		.cfi_offset 6, -16
 2193 0001 4889E5   		movq	%rsp, %rbp
 2194              		.cfi_def_cfa_register 6
 2195 0004 4883EC10 		subq	$16, %rsp
 2196 0008 48897DF8 		movq	%rdi, -8(%rbp)
 2197 000c 488B45F8 		movq	-8(%rbp), %rax
 2198 0010 4889C7   		movq	%rax, %rdi
 2199 0013 E8000000 		call	_ZN10UtestShellC2Ev
 2199      00
 2200 0018 BA000000 		movl	$_ZTV81TEST_hsm_build_Should_InitializeInvalidHsmHandle_When_NothingGivenGiven_TestShell+16, 
GAS LISTING /tmp/ccj7sGND.s 			page 45


 2200      00
 2201 001d 488B45F8 		movq	-8(%rbp), %rax
 2202 0021 488910   		movq	%rdx, (%rax)
 2203 0024 90       		nop
 2204 0025 C9       		leave
 2205              		.cfi_def_cfa 7, 8
 2206 0026 C3       		ret
 2207              		.cfi_endproc
 2208              	.LFE754:
 2210              		.weak	_ZN81TEST_hsm_build_Should_InitializeInvalidHsmHandle_When_NothingGivenGiven_TestShellC1Ev
 2211              		.set	_ZN81TEST_hsm_build_Should_InitializeInvalidHsmHandle_When_NothingGivenGiven_TestShellC1Ev,_Z
 2212              		.globl	TEST_hsm_build_Should_InitializeInvalidHsmHandle_When_NothingGivenGiven_TestShell_instance
 2213              		.bss
 2214 01d8 00000000 		.align 32
 2214      00000000 
 2217              	TEST_hsm_build_Should_InitializeInvalidHsmHandle_When_NothingGivenGiven_TestShell_instance:
 2218 01e0 00000000 		.zero	56
 2218      00000000 
 2218      00000000 
 2218      00000000 
 2218      00000000 
 2219              		.local	_ZL81TEST_hsm_build_Should_InitializeInvalidHsmHandle_When_NothingGivenGiven_Installer
 2220              		.comm	_ZL81TEST_hsm_build_Should_InitializeInvalidHsmHandle_When_NothingGivenGiven_Installer,8,8
 2221              		.text
 2222 090f 90       		.align 2
 2223              		.globl	_ZN76TEST_hsm_build_Should_InitializeInvalidHsmHandle_When_NothingGivenGiven_Test8testBodyE
 2225              	_ZN76TEST_hsm_build_Should_InitializeInvalidHsmHandle_When_NothingGivenGiven_Test8testBodyEv:
 2226              	.LFB756:
 2227              		.cfi_startproc
 2228              		.cfi_personality 0x3,__gxx_personality_v0
 2229              		.cfi_lsda 0x3,.LLSDA756
 2230 0910 55       		pushq	%rbp
 2231              		.cfi_def_cfa_offset 16
 2232              		.cfi_offset 6, -16
 2233 0911 4889E5   		movq	%rsp, %rbp
 2234              		.cfi_def_cfa_register 6
 2235 0914 4154     		pushq	%r12
 2236 0916 53       		pushq	%rbx
 2237 0917 4883EC40 		subq	$64, %rsp
 2238              		.cfi_offset 12, -24
 2239              		.cfi_offset 3, -32
 2240 091b 48897DD8 		movq	%rdi, -40(%rbp)
 2241 091f 64488B04 		movq	%fs:40, %rax
 2241      25280000 
 2241      00
 2242 0928 488945E8 		movq	%rax, -24(%rbp)
 2243 092c 31C0     		xorl	%eax, %eax
 2244 092e 488B5DD8 		movq	-40(%rbp), %rbx
 2245 0932 488D45B0 		leaq	-80(%rbp), %rax
 2246 0936 B9000000 		movl	$0, %ecx
 2246      00
 2247 093b BA000000 		movl	$0, %edx
 2247      00
 2248 0940 BE000000 		movl	$0, %esi
 2248      00
 2249 0945 4889C7   		movq	%rax, %rdi
 2250              	.LEHB45:
GAS LISTING /tmp/ccj7sGND.s 			page 46


 2251 0948 E8000000 		call	_Z10_hsm_buildPK5statePPS_j
 2251      00
 2252 094d 488B45B0 		movq	-80(%rbp), %rax
 2253 0951 48894308 		movq	%rax, 8(%rbx)
 2254 0955 488B45B8 		movq	-72(%rbp), %rax
 2255 0959 48894310 		movq	%rax, 16(%rbx)
 2256 095d 488B45C0 		movq	-64(%rbp), %rax
 2257 0961 48894318 		movq	%rax, 24(%rbx)
 2258 0965 488B45C8 		movq	-56(%rbp), %rax
 2259 0969 48894320 		movq	%rax, 32(%rbx)
 2260 096d E8000000 		call	_ZN10UtestShell10getCurrentEv
 2260      00
 2261 0972 488B10   		movq	(%rax), %rdx
 2262 0975 4881C288 		addq	$136, %rdx
 2262      000000
 2263 097c 4C8B0A   		movq	(%rdx), %r9
 2264 097f 488B55D8 		movq	-40(%rbp), %rdx
 2265 0983 488B5208 		movq	8(%rdx), %rdx
 2266 0987 41B88600 		movl	$134, %r8d
 2266      0000
 2267 098d B9000000 		movl	$.LC0, %ecx
 2267      00
 2268 0992 BE000000 		movl	$0, %esi
 2268      00
 2269 0997 4889C7   		movq	%rax, %rdi
 2270 099a 41FFD1   		call	*%r9
 2271 099d E8000000 		call	_ZN10UtestShell10getCurrentEv
 2271      00
 2272 09a2 488B10   		movq	(%rax), %rdx
 2273 09a5 4881C288 		addq	$136, %rdx
 2273      000000
 2274 09ac 4C8B0A   		movq	(%rdx), %r9
 2275 09af 488B55D8 		movq	-40(%rbp), %rdx
 2276 09b3 488B5210 		movq	16(%rdx), %rdx
 2277 09b7 41B88700 		movl	$135, %r8d
 2277      0000
 2278 09bd B9000000 		movl	$.LC0, %ecx
 2278      00
 2279 09c2 BE000000 		movl	$0, %esi
 2279      00
 2280 09c7 4889C7   		movq	%rax, %rdi
 2281 09ca 41FFD1   		call	*%r9
 2282 09cd E8000000 		call	_ZN10UtestShell10getCurrentEv
 2282      00
 2283 09d2 488B10   		movq	(%rax), %rdx
 2284 09d5 4881C288 		addq	$136, %rdx
 2284      000000
 2285 09dc 4C8B0A   		movq	(%rdx), %r9
 2286 09df 488B55D8 		movq	-40(%rbp), %rdx
 2287 09e3 488B5218 		movq	24(%rdx), %rdx
 2288 09e7 41B88800 		movl	$136, %r8d
 2288      0000
 2289 09ed B9000000 		movl	$.LC0, %ecx
 2289      00
 2290 09f2 BE000000 		movl	$0, %esi
 2290      00
 2291 09f7 4889C7   		movq	%rax, %rdi
GAS LISTING /tmp/ccj7sGND.s 			page 47


 2292 09fa 41FFD1   		call	*%r9
 2293 09fd E8000000 		call	_ZN10UtestShell10getCurrentEv
 2293      00
 2294              	.LEHE45:
 2295 0a02 4889C3   		movq	%rax, %rbx
 2296 0a05 488B03   		movq	(%rbx), %rax
 2297 0a08 4883C078 		addq	$120, %rax
 2298 0a0c 4C8B20   		movq	(%rax), %r12
 2299 0a0f 48C745E0 		movq	$0, -32(%rbp)
 2299      00000000 
 2300 0a17 488D45E0 		leaq	-32(%rbp), %rax
 2301 0a1b 4889C7   		movq	%rax, %rdi
 2302 0a1e E8000000 		call	_ZN20NormalTestTerminatorC1Ev
 2302      00
 2303 0a23 488B45D8 		movq	-40(%rbp), %rax
 2304 0a27 8B4020   		movl	32(%rax), %eax
 2305 0a2a 89C2     		movl	%eax, %edx
 2306 0a2c 488D45E0 		leaq	-32(%rbp), %rax
 2307 0a30 4989C1   		movq	%rax, %r9
 2308 0a33 41B88900 		movl	$137, %r8d
 2308      0000
 2309 0a39 B9000000 		movl	$.LC0, %ecx
 2309      00
 2310 0a3e BE000000 		movl	$0, %esi
 2310      00
 2311 0a43 4889DF   		movq	%rbx, %rdi
 2312              	.LEHB46:
 2313 0a46 41FFD4   		call	*%r12
 2314              	.LEHE46:
 2315 0a49 488D45E0 		leaq	-32(%rbp), %rax
 2316 0a4d 4889C7   		movq	%rax, %rdi
 2317              	.LEHB47:
 2318 0a50 E8000000 		call	_ZN20NormalTestTerminatorD1Ev
 2318      00
 2319              	.LEHE47:
 2320 0a55 90       		nop
 2321 0a56 488B45E8 		movq	-24(%rbp), %rax
 2322 0a5a 64483304 		xorq	%fs:40, %rax
 2322      25280000 
 2322      00
 2323 0a63 7421     		je	.L90
 2324 0a65 EB1A     		jmp	.L92
 2325              	.L91:
 2326 0a67 4889C3   		movq	%rax, %rbx
 2327 0a6a 488D45E0 		leaq	-32(%rbp), %rax
 2328 0a6e 4889C7   		movq	%rax, %rdi
 2329 0a71 E8000000 		call	_ZN20NormalTestTerminatorD1Ev
 2329      00
 2330 0a76 4889D8   		movq	%rbx, %rax
 2331 0a79 4889C7   		movq	%rax, %rdi
 2332              	.LEHB48:
 2333 0a7c E8000000 		call	_Unwind_Resume
 2333      00
 2334              	.LEHE48:
 2335              	.L92:
 2336 0a81 E8000000 		call	__stack_chk_fail
 2336      00
GAS LISTING /tmp/ccj7sGND.s 			page 48


 2337              	.L90:
 2338 0a86 4883C440 		addq	$64, %rsp
 2339 0a8a 5B       		popq	%rbx
 2340 0a8b 415C     		popq	%r12
 2341 0a8d 5D       		popq	%rbp
 2342              		.cfi_def_cfa 7, 8
 2343 0a8e C3       		ret
 2344              		.cfi_endproc
 2345              	.LFE756:
 2346              		.section	.gcc_except_table
 2347              	.LLSDA756:
 2348 00f6 FF       		.byte	0xff
 2349 00f7 FF       		.byte	0xff
 2350 00f8 01       		.byte	0x1
 2351 00f9 15       		.uleb128 .LLSDACSE756-.LLSDACSB756
 2352              	.LLSDACSB756:
 2353 00fa 38       		.uleb128 .LEHB45-.LFB756
 2354 00fb BA01     		.uleb128 .LEHE45-.LEHB45
 2355 00fd 00       		.uleb128 0
 2356 00fe 00       		.uleb128 0
 2357 00ff B602     		.uleb128 .LEHB46-.LFB756
 2358 0101 03       		.uleb128 .LEHE46-.LEHB46
 2359 0102 D702     		.uleb128 .L91-.LFB756
 2360 0104 00       		.uleb128 0
 2361 0105 C002     		.uleb128 .LEHB47-.LFB756
 2362 0107 05       		.uleb128 .LEHE47-.LEHB47
 2363 0108 00       		.uleb128 0
 2364 0109 00       		.uleb128 0
 2365 010a EC02     		.uleb128 .LEHB48-.LFB756
 2366 010c 05       		.uleb128 .LEHE48-.LEHB48
 2367 010d 00       		.uleb128 0
 2368 010e 00       		.uleb128 0
 2369              	.LLSDACSE756:
 2370              		.text
 2372              		.weak	_ZTV76TEST_hsm_build_Should_InitializeInvalidHsmHandle_When_NothingGivenGiven_Test
 2373              		.section	.rodata._ZTV76TEST_hsm_build_Should_InitializeInvalidHsmHandle_When_NothingGivenGiven_Tes
 2374              		.align 8
 2377              	_ZTV76TEST_hsm_build_Should_InitializeInvalidHsmHandle_When_NothingGivenGiven_Test:
 2378 0000 00000000 		.quad	0
 2378      00000000 
 2379 0008 00000000 		.quad	_ZTI76TEST_hsm_build_Should_InitializeInvalidHsmHandle_When_NothingGivenGiven_Test
 2379      00000000 
 2380 0010 00000000 		.quad	_ZN76TEST_hsm_build_Should_InitializeInvalidHsmHandle_When_NothingGivenGiven_TestD1Ev
 2380      00000000 
 2381 0018 00000000 		.quad	_ZN76TEST_hsm_build_Should_InitializeInvalidHsmHandle_When_NothingGivenGiven_TestD0Ev
 2381      00000000 
 2382 0020 00000000 		.quad	_ZN5Utest3runEv
 2382      00000000 
 2383 0028 00000000 		.quad	_ZN33TEST_GROUP_CppUTestGrouphsm_build5setupEv
 2383      00000000 
 2384 0030 00000000 		.quad	_ZN33TEST_GROUP_CppUTestGrouphsm_build8teardownEv
 2384      00000000 
 2385 0038 00000000 		.quad	_ZN76TEST_hsm_build_Should_InitializeInvalidHsmHandle_When_NothingGivenGiven_Test8testBodyEv
 2385      00000000 
 2386              		.section	.text._ZN76TEST_hsm_build_Should_InitializeInvalidHsmHandle_When_NothingGivenGiven_TestD2
 2387              		.align 2
 2388              		.weak	_ZN76TEST_hsm_build_Should_InitializeInvalidHsmHandle_When_NothingGivenGiven_TestD2Ev
GAS LISTING /tmp/ccj7sGND.s 			page 49


 2390              	_ZN76TEST_hsm_build_Should_InitializeInvalidHsmHandle_When_NothingGivenGiven_TestD2Ev:
 2391              	.LFB758:
 2392              		.cfi_startproc
 2393 0000 55       		pushq	%rbp
 2394              		.cfi_def_cfa_offset 16
 2395              		.cfi_offset 6, -16
 2396 0001 4889E5   		movq	%rsp, %rbp
 2397              		.cfi_def_cfa_register 6
 2398 0004 4883EC10 		subq	$16, %rsp
 2399 0008 48897DF8 		movq	%rdi, -8(%rbp)
 2400 000c BA000000 		movl	$_ZTV76TEST_hsm_build_Should_InitializeInvalidHsmHandle_When_NothingGivenGiven_Test+16, %edx
 2400      00
 2401 0011 488B45F8 		movq	-8(%rbp), %rax
 2402 0015 488910   		movq	%rdx, (%rax)
 2403 0018 488B45F8 		movq	-8(%rbp), %rax
 2404 001c 4889C7   		movq	%rax, %rdi
 2405 001f E8000000 		call	_ZN33TEST_GROUP_CppUTestGrouphsm_buildD2Ev
 2405      00
 2406 0024 B8000000 		movl	$0, %eax
 2406      00
 2407 0029 85C0     		testl	%eax, %eax
 2408 002b 740C     		je	.L93
 2409 002d 488B45F8 		movq	-8(%rbp), %rax
 2410 0031 4889C7   		movq	%rax, %rdi
 2411 0034 E8000000 		call	_ZdlPv
 2411      00
 2412              	.L93:
 2413 0039 C9       		leave
 2414              		.cfi_def_cfa 7, 8
 2415 003a C3       		ret
 2416              		.cfi_endproc
 2417              	.LFE758:
 2419              		.weak	_ZN76TEST_hsm_build_Should_InitializeInvalidHsmHandle_When_NothingGivenGiven_TestD1Ev
 2420              		.set	_ZN76TEST_hsm_build_Should_InitializeInvalidHsmHandle_When_NothingGivenGiven_TestD1Ev,_ZN76TE
 2421              		.section	.text._ZN76TEST_hsm_build_Should_InitializeInvalidHsmHandle_When_NothingGivenGiven_TestD0
 2422              		.align 2
 2423              		.weak	_ZN76TEST_hsm_build_Should_InitializeInvalidHsmHandle_When_NothingGivenGiven_TestD0Ev
 2425              	_ZN76TEST_hsm_build_Should_InitializeInvalidHsmHandle_When_NothingGivenGiven_TestD0Ev:
 2426              	.LFB760:
 2427              		.cfi_startproc
 2428 0000 55       		pushq	%rbp
 2429              		.cfi_def_cfa_offset 16
 2430              		.cfi_offset 6, -16
 2431 0001 4889E5   		movq	%rsp, %rbp
 2432              		.cfi_def_cfa_register 6
 2433 0004 4883EC10 		subq	$16, %rsp
 2434 0008 48897DF8 		movq	%rdi, -8(%rbp)
 2435 000c 488B45F8 		movq	-8(%rbp), %rax
 2436 0010 4889C7   		movq	%rax, %rdi
 2437 0013 E8000000 		call	_ZN76TEST_hsm_build_Should_InitializeInvalidHsmHandle_When_NothingGivenGiven_TestD1Ev
 2437      00
 2438 0018 488B45F8 		movq	-8(%rbp), %rax
 2439 001c 4889C7   		movq	%rax, %rdi
 2440 001f E8000000 		call	_ZdlPv
 2440      00
 2441 0024 C9       		leave
 2442              		.cfi_def_cfa 7, 8
GAS LISTING /tmp/ccj7sGND.s 			page 50


 2443 0025 C3       		ret
 2444              		.cfi_endproc
 2445              	.LFE760:
 2447              		.weak	_ZTV81TEST_hsm_build_Should_InitializeInvalidHsmHandle_When_NothingGivenGiven_TestShell
 2448              		.section	.rodata._ZTV81TEST_hsm_build_Should_InitializeInvalidHsmHandle_When_NothingGivenGiven_Tes
 2449              		.align 8
 2452              	_ZTV81TEST_hsm_build_Should_InitializeInvalidHsmHandle_When_NothingGivenGiven_TestShell:
 2453 0000 00000000 		.quad	0
 2453      00000000 
 2454 0008 00000000 		.quad	_ZTI81TEST_hsm_build_Should_InitializeInvalidHsmHandle_When_NothingGivenGiven_TestShell
 2454      00000000 
 2455 0010 00000000 		.quad	_ZN81TEST_hsm_build_Should_InitializeInvalidHsmHandle_When_NothingGivenGiven_TestShellD1Ev
 2455      00000000 
 2456 0018 00000000 		.quad	_ZN81TEST_hsm_build_Should_InitializeInvalidHsmHandle_When_NothingGivenGiven_TestShellD0Ev
 2456      00000000 
 2457 0020 00000000 		.quad	_ZN10UtestShell7addTestEPS_
 2457      00000000 
 2458 0028 00000000 		.quad	_ZNK10UtestShell7getNextEv
 2458      00000000 
 2459 0030 00000000 		.quad	_ZN10UtestShell10countTestsEv
 2459      00000000 
 2460 0038 00000000 		.quad	_ZNK10UtestShell16getFormattedNameEv
 2460      00000000 
 2461 0040 00000000 		.quad	_ZNK10UtestShell7willRunEv
 2461      00000000 
 2462 0048 00000000 		.quad	_ZNK10UtestShell9hasFailedEv
 2462      00000000 
 2463 0050 00000000 		.quad	_ZN10UtestShell10assertTrueEbPKcS1_S1_iRK14TestTerminator
 2463      00000000 
 2464 0058 00000000 		.quad	_ZN10UtestShell14assertTrueTextEbPKcS1_S1_S1_iRK14TestTerminator
 2464      00000000 
 2465 0060 00000000 		.quad	_ZN10UtestShell15assertCstrEqualEPKcS1_S1_iRK14TestTerminator
 2465      00000000 
 2466 0068 00000000 		.quad	_ZN10UtestShell16assertCstrNEqualEPKcS1_mS1_iRK14TestTerminator
 2466      00000000 
 2467 0070 00000000 		.quad	_ZN10UtestShell21assertCstrNoCaseEqualEPKcS1_S1_i
 2467      00000000 
 2468 0078 00000000 		.quad	_ZN10UtestShell18assertCstrContainsEPKcS1_S1_i
 2468      00000000 
 2469 0080 00000000 		.quad	_ZN10UtestShell24assertCstrNoCaseContainsEPKcS1_S1_i
 2469      00000000 
 2470 0088 00000000 		.quad	_ZN10UtestShell16assertLongsEqualEllPKciRK14TestTerminator
 2470      00000000 
 2471 0090 00000000 		.quad	_ZN10UtestShell24assertUnsignedLongsEqualEmmPKciRK14TestTerminator
 2471      00000000 
 2472 0098 00000000 		.quad	_ZN10UtestShell19assertPointersEqualEPKvS1_PKci
 2472      00000000 
 2473 00a0 00000000 		.quad	_ZN10UtestShell18assertDoublesEqualEdddPKciRK14TestTerminator
 2473      00000000 
 2474 00a8 00000000 		.quad	_ZN10UtestShell12assertEqualsEbPKcS1_S1_iRK14TestTerminator
 2474      00000000 
 2475 00b0 00000000 		.quad	_ZN10UtestShell17assertBinaryEqualEPKvS1_mPKciRK14TestTerminator
 2475      00000000 
 2476 00b8 00000000 		.quad	_ZN10UtestShell4failEPKcS1_iRK14TestTerminator
 2476      00000000 
 2477 00c0 00000000 		.quad	_ZN10UtestShell5printEPKcS1_i
 2477      00000000 
GAS LISTING /tmp/ccj7sGND.s 			page 51


 2478 00c8 00000000 		.quad	_ZN10UtestShell5printERK12SimpleStringPKci
 2478      00000000 
 2479 00d0 00000000 		.quad	_ZNK10UtestShell22isRunInSeperateProcessEv
 2479      00000000 
 2480 00d8 00000000 		.quad	_ZN10UtestShell23setRunInSeperateProcessEv
 2480      00000000 
 2481 00e0 00000000 		.quad	_ZN81TEST_hsm_build_Should_InitializeInvalidHsmHandle_When_NothingGivenGiven_TestShell10crea
 2481      00000000 
 2482 00e8 00000000 		.quad	_ZN10UtestShell11destroyTestEP5Utest
 2482      00000000 
 2483 00f0 00000000 		.quad	_ZN10UtestShell10runOneTestEP10TestPluginR10TestResult
 2483      00000000 
 2484 00f8 00000000 		.quad	_ZN10UtestShell26runOneTestInCurrentProcessEP10TestPluginR10TestResult
 2484      00000000 
 2485 0100 00000000 		.quad	_ZN10UtestShell8failWithERK11TestFailure
 2485      00000000 
 2486 0108 00000000 		.quad	_ZN10UtestShell8failWithERK11TestFailureRK14TestTerminator
 2486      00000000 
 2487 0110 00000000 		.quad	_ZNK10UtestShell12getMacroNameEv
 2487      00000000 
 2488              		.section	.text._ZN81TEST_hsm_build_Should_InitializeInvalidHsmHandle_When_NothingGivenGiven_TestSh
 2489              		.align 2
 2490              		.weak	_ZN81TEST_hsm_build_Should_InitializeInvalidHsmHandle_When_NothingGivenGiven_TestShellD2Ev
 2492              	_ZN81TEST_hsm_build_Should_InitializeInvalidHsmHandle_When_NothingGivenGiven_TestShellD2Ev:
 2493              	.LFB762:
 2494              		.cfi_startproc
 2495 0000 55       		pushq	%rbp
 2496              		.cfi_def_cfa_offset 16
 2497              		.cfi_offset 6, -16
 2498 0001 4889E5   		movq	%rsp, %rbp
 2499              		.cfi_def_cfa_register 6
 2500 0004 4883EC10 		subq	$16, %rsp
 2501 0008 48897DF8 		movq	%rdi, -8(%rbp)
 2502 000c BA000000 		movl	$_ZTV81TEST_hsm_build_Should_InitializeInvalidHsmHandle_When_NothingGivenGiven_TestShell+16, 
 2502      00
 2503 0011 488B45F8 		movq	-8(%rbp), %rax
 2504 0015 488910   		movq	%rdx, (%rax)
 2505 0018 488B45F8 		movq	-8(%rbp), %rax
 2506 001c 4889C7   		movq	%rax, %rdi
 2507 001f E8000000 		call	_ZN10UtestShellD2Ev
 2507      00
 2508 0024 B8000000 		movl	$0, %eax
 2508      00
 2509 0029 85C0     		testl	%eax, %eax
 2510 002b 740C     		je	.L96
 2511 002d 488B45F8 		movq	-8(%rbp), %rax
 2512 0031 4889C7   		movq	%rax, %rdi
 2513 0034 E8000000 		call	_ZdlPv
 2513      00
 2514              	.L96:
 2515 0039 C9       		leave
 2516              		.cfi_def_cfa 7, 8
 2517 003a C3       		ret
 2518              		.cfi_endproc
 2519              	.LFE762:
 2521              		.weak	_ZN81TEST_hsm_build_Should_InitializeInvalidHsmHandle_When_NothingGivenGiven_TestShellD1Ev
 2522              		.set	_ZN81TEST_hsm_build_Should_InitializeInvalidHsmHandle_When_NothingGivenGiven_TestShellD1Ev,_Z
GAS LISTING /tmp/ccj7sGND.s 			page 52


 2523              		.section	.text._ZN81TEST_hsm_build_Should_InitializeInvalidHsmHandle_When_NothingGivenGiven_TestSh
 2524              		.align 2
 2525              		.weak	_ZN81TEST_hsm_build_Should_InitializeInvalidHsmHandle_When_NothingGivenGiven_TestShellD0Ev
 2527              	_ZN81TEST_hsm_build_Should_InitializeInvalidHsmHandle_When_NothingGivenGiven_TestShellD0Ev:
 2528              	.LFB764:
 2529              		.cfi_startproc
 2530 0000 55       		pushq	%rbp
 2531              		.cfi_def_cfa_offset 16
 2532              		.cfi_offset 6, -16
 2533 0001 4889E5   		movq	%rsp, %rbp
 2534              		.cfi_def_cfa_register 6
 2535 0004 4883EC10 		subq	$16, %rsp
 2536 0008 48897DF8 		movq	%rdi, -8(%rbp)
 2537 000c 488B45F8 		movq	-8(%rbp), %rax
 2538 0010 4889C7   		movq	%rax, %rdi
 2539 0013 E8000000 		call	_ZN81TEST_hsm_build_Should_InitializeInvalidHsmHandle_When_NothingGivenGiven_TestShellD1Ev
 2539      00
 2540 0018 488B45F8 		movq	-8(%rbp), %rax
 2541 001c 4889C7   		movq	%rax, %rdi
 2542 001f E8000000 		call	_ZdlPv
 2542      00
 2543 0024 C9       		leave
 2544              		.cfi_def_cfa 7, 8
 2545 0025 C3       		ret
 2546              		.cfi_endproc
 2547              	.LFE764:
 2549              		.weak	_ZTV97TEST_hsm_build_Should_InitializeInvalidHsmHandle_When_NoStateListAndNoNumberOfStateLis
 2550              		.section	.rodata._ZTV97TEST_hsm_build_Should_InitializeInvalidHsmHandle_When_NoStateListAndNoNumbe
 2551              		.align 8
 2554              	_ZTV97TEST_hsm_build_Should_InitializeInvalidHsmHandle_When_NoStateListAndNoNumberOfStateListGiven_
 2555 0000 00000000 		.quad	0
 2555      00000000 
 2556 0008 00000000 		.quad	_ZTI97TEST_hsm_build_Should_InitializeInvalidHsmHandle_When_NoStateListAndNoNumberOfStateLis
 2556      00000000 
 2557 0010 00000000 		.quad	_ZN97TEST_hsm_build_Should_InitializeInvalidHsmHandle_When_NoStateListAndNoNumberOfStateList
 2557      00000000 
 2558 0018 00000000 		.quad	_ZN97TEST_hsm_build_Should_InitializeInvalidHsmHandle_When_NoStateListAndNoNumberOfStateList
 2558      00000000 
 2559 0020 00000000 		.quad	_ZN5Utest3runEv
 2559      00000000 
 2560 0028 00000000 		.quad	_ZN33TEST_GROUP_CppUTestGrouphsm_build5setupEv
 2560      00000000 
 2561 0030 00000000 		.quad	_ZN33TEST_GROUP_CppUTestGrouphsm_build8teardownEv
 2561      00000000 
 2562 0038 00000000 		.quad	_ZN97TEST_hsm_build_Should_InitializeInvalidHsmHandle_When_NoStateListAndNoNumberOfStateList
 2562      00000000 
 2563              		.section	.text._ZN97TEST_hsm_build_Should_InitializeInvalidHsmHandle_When_NoStateListAndNoNumberOf
 2564              		.align 2
 2565              		.weak	_ZN97TEST_hsm_build_Should_InitializeInvalidHsmHandle_When_NoStateListAndNoNumberOfStateList
 2567              	_ZN97TEST_hsm_build_Should_InitializeInvalidHsmHandle_When_NoStateListAndNoNumberOfStateListGiven_T
 2568              	.LFB766:
 2569              		.cfi_startproc
 2570 0000 55       		pushq	%rbp
 2571              		.cfi_def_cfa_offset 16
 2572              		.cfi_offset 6, -16
 2573 0001 4889E5   		movq	%rsp, %rbp
 2574              		.cfi_def_cfa_register 6
GAS LISTING /tmp/ccj7sGND.s 			page 53


 2575 0004 4883EC10 		subq	$16, %rsp
 2576 0008 48897DF8 		movq	%rdi, -8(%rbp)
 2577 000c BA000000 		movl	$_ZTV97TEST_hsm_build_Should_InitializeInvalidHsmHandle_When_NoStateListAndNoNumberOfStateLis
 2577      00
 2578 0011 488B45F8 		movq	-8(%rbp), %rax
 2579 0015 488910   		movq	%rdx, (%rax)
 2580 0018 488B45F8 		movq	-8(%rbp), %rax
 2581 001c 4889C7   		movq	%rax, %rdi
 2582 001f E8000000 		call	_ZN33TEST_GROUP_CppUTestGrouphsm_buildD2Ev
 2582      00
 2583 0024 B8000000 		movl	$0, %eax
 2583      00
 2584 0029 85C0     		testl	%eax, %eax
 2585 002b 740C     		je	.L99
 2586 002d 488B45F8 		movq	-8(%rbp), %rax
 2587 0031 4889C7   		movq	%rax, %rdi
 2588 0034 E8000000 		call	_ZdlPv
 2588      00
 2589              	.L99:
 2590 0039 C9       		leave
 2591              		.cfi_def_cfa 7, 8
 2592 003a C3       		ret
 2593              		.cfi_endproc
 2594              	.LFE766:
 2596              		.weak	_ZN97TEST_hsm_build_Should_InitializeInvalidHsmHandle_When_NoStateListAndNoNumberOfStateList
 2597              		.set	_ZN97TEST_hsm_build_Should_InitializeInvalidHsmHandle_When_NoStateListAndNoNumberOfStateListG
 2598              		.section	.text._ZN97TEST_hsm_build_Should_InitializeInvalidHsmHandle_When_NoStateListAndNoNumberOf
 2599              		.align 2
 2600              		.weak	_ZN97TEST_hsm_build_Should_InitializeInvalidHsmHandle_When_NoStateListAndNoNumberOfStateList
 2602              	_ZN97TEST_hsm_build_Should_InitializeInvalidHsmHandle_When_NoStateListAndNoNumberOfStateListGiven_T
 2603              	.LFB768:
 2604              		.cfi_startproc
 2605 0000 55       		pushq	%rbp
 2606              		.cfi_def_cfa_offset 16
 2607              		.cfi_offset 6, -16
 2608 0001 4889E5   		movq	%rsp, %rbp
 2609              		.cfi_def_cfa_register 6
 2610 0004 4883EC10 		subq	$16, %rsp
 2611 0008 48897DF8 		movq	%rdi, -8(%rbp)
 2612 000c 488B45F8 		movq	-8(%rbp), %rax
 2613 0010 4889C7   		movq	%rax, %rdi
 2614 0013 E8000000 		call	_ZN97TEST_hsm_build_Should_InitializeInvalidHsmHandle_When_NoStateListAndNoNumberOfStateListG
 2614      00
 2615 0018 488B45F8 		movq	-8(%rbp), %rax
 2616 001c 4889C7   		movq	%rax, %rdi
 2617 001f E8000000 		call	_ZdlPv
 2617      00
 2618 0024 C9       		leave
 2619              		.cfi_def_cfa 7, 8
 2620 0025 C3       		ret
 2621              		.cfi_endproc
 2622              	.LFE768:
 2624              		.weak	_ZTV102TEST_hsm_build_Should_InitializeInvalidHsmHandle_When_NoStateListAndNoNumberOfStateLi
 2625              		.section	.rodata._ZTV102TEST_hsm_build_Should_InitializeInvalidHsmHandle_When_NoStateListAndNoNumb
 2626              		.align 8
 2629              	_ZTV102TEST_hsm_build_Should_InitializeInvalidHsmHandle_When_NoStateListAndNoNumberOfStateListGiven
 2630 0000 00000000 		.quad	0
GAS LISTING /tmp/ccj7sGND.s 			page 54


 2630      00000000 
 2631 0008 00000000 		.quad	_ZTI102TEST_hsm_build_Should_InitializeInvalidHsmHandle_When_NoStateListAndNoNumberOfStateLi
 2631      00000000 
 2632 0010 00000000 		.quad	_ZN102TEST_hsm_build_Should_InitializeInvalidHsmHandle_When_NoStateListAndNoNumberOfStateLis
 2632      00000000 
 2633 0018 00000000 		.quad	_ZN102TEST_hsm_build_Should_InitializeInvalidHsmHandle_When_NoStateListAndNoNumberOfStateLis
 2633      00000000 
 2634 0020 00000000 		.quad	_ZN10UtestShell7addTestEPS_
 2634      00000000 
 2635 0028 00000000 		.quad	_ZNK10UtestShell7getNextEv
 2635      00000000 
 2636 0030 00000000 		.quad	_ZN10UtestShell10countTestsEv
 2636      00000000 
 2637 0038 00000000 		.quad	_ZNK10UtestShell16getFormattedNameEv
 2637      00000000 
 2638 0040 00000000 		.quad	_ZNK10UtestShell7willRunEv
 2638      00000000 
 2639 0048 00000000 		.quad	_ZNK10UtestShell9hasFailedEv
 2639      00000000 
 2640 0050 00000000 		.quad	_ZN10UtestShell10assertTrueEbPKcS1_S1_iRK14TestTerminator
 2640      00000000 
 2641 0058 00000000 		.quad	_ZN10UtestShell14assertTrueTextEbPKcS1_S1_S1_iRK14TestTerminator
 2641      00000000 
 2642 0060 00000000 		.quad	_ZN10UtestShell15assertCstrEqualEPKcS1_S1_iRK14TestTerminator
 2642      00000000 
 2643 0068 00000000 		.quad	_ZN10UtestShell16assertCstrNEqualEPKcS1_mS1_iRK14TestTerminator
 2643      00000000 
 2644 0070 00000000 		.quad	_ZN10UtestShell21assertCstrNoCaseEqualEPKcS1_S1_i
 2644      00000000 
 2645 0078 00000000 		.quad	_ZN10UtestShell18assertCstrContainsEPKcS1_S1_i
 2645      00000000 
 2646 0080 00000000 		.quad	_ZN10UtestShell24assertCstrNoCaseContainsEPKcS1_S1_i
 2646      00000000 
 2647 0088 00000000 		.quad	_ZN10UtestShell16assertLongsEqualEllPKciRK14TestTerminator
 2647      00000000 
 2648 0090 00000000 		.quad	_ZN10UtestShell24assertUnsignedLongsEqualEmmPKciRK14TestTerminator
 2648      00000000 
 2649 0098 00000000 		.quad	_ZN10UtestShell19assertPointersEqualEPKvS1_PKci
 2649      00000000 
 2650 00a0 00000000 		.quad	_ZN10UtestShell18assertDoublesEqualEdddPKciRK14TestTerminator
 2650      00000000 
 2651 00a8 00000000 		.quad	_ZN10UtestShell12assertEqualsEbPKcS1_S1_iRK14TestTerminator
 2651      00000000 
 2652 00b0 00000000 		.quad	_ZN10UtestShell17assertBinaryEqualEPKvS1_mPKciRK14TestTerminator
 2652      00000000 
 2653 00b8 00000000 		.quad	_ZN10UtestShell4failEPKcS1_iRK14TestTerminator
 2653      00000000 
 2654 00c0 00000000 		.quad	_ZN10UtestShell5printEPKcS1_i
 2654      00000000 
 2655 00c8 00000000 		.quad	_ZN10UtestShell5printERK12SimpleStringPKci
 2655      00000000 
 2656 00d0 00000000 		.quad	_ZNK10UtestShell22isRunInSeperateProcessEv
 2656      00000000 
 2657 00d8 00000000 		.quad	_ZN10UtestShell23setRunInSeperateProcessEv
 2657      00000000 
 2658 00e0 00000000 		.quad	_ZN102TEST_hsm_build_Should_InitializeInvalidHsmHandle_When_NoStateListAndNoNumberOfStateLis
 2658      00000000 
GAS LISTING /tmp/ccj7sGND.s 			page 55


 2659 00e8 00000000 		.quad	_ZN10UtestShell11destroyTestEP5Utest
 2659      00000000 
 2660 00f0 00000000 		.quad	_ZN10UtestShell10runOneTestEP10TestPluginR10TestResult
 2660      00000000 
 2661 00f8 00000000 		.quad	_ZN10UtestShell26runOneTestInCurrentProcessEP10TestPluginR10TestResult
 2661      00000000 
 2662 0100 00000000 		.quad	_ZN10UtestShell8failWithERK11TestFailure
 2662      00000000 
 2663 0108 00000000 		.quad	_ZN10UtestShell8failWithERK11TestFailureRK14TestTerminator
 2663      00000000 
 2664 0110 00000000 		.quad	_ZNK10UtestShell12getMacroNameEv
 2664      00000000 
 2665              		.section	.text._ZN102TEST_hsm_build_Should_InitializeInvalidHsmHandle_When_NoStateListAndNoNumberO
 2666              		.align 2
 2667              		.weak	_ZN102TEST_hsm_build_Should_InitializeInvalidHsmHandle_When_NoStateListAndNoNumberOfStateLis
 2669              	_ZN102TEST_hsm_build_Should_InitializeInvalidHsmHandle_When_NoStateListAndNoNumberOfStateListGiven_
 2670              	.LFB770:
 2671              		.cfi_startproc
 2672 0000 55       		pushq	%rbp
 2673              		.cfi_def_cfa_offset 16
 2674              		.cfi_offset 6, -16
 2675 0001 4889E5   		movq	%rsp, %rbp
 2676              		.cfi_def_cfa_register 6
 2677 0004 4883EC10 		subq	$16, %rsp
 2678 0008 48897DF8 		movq	%rdi, -8(%rbp)
 2679 000c BA000000 		movl	$_ZTV102TEST_hsm_build_Should_InitializeInvalidHsmHandle_When_NoStateListAndNoNumberOfStateLi
 2679      00
 2680 0011 488B45F8 		movq	-8(%rbp), %rax
 2681 0015 488910   		movq	%rdx, (%rax)
 2682 0018 488B45F8 		movq	-8(%rbp), %rax
 2683 001c 4889C7   		movq	%rax, %rdi
 2684 001f E8000000 		call	_ZN10UtestShellD2Ev
 2684      00
 2685 0024 B8000000 		movl	$0, %eax
 2685      00
 2686 0029 85C0     		testl	%eax, %eax
 2687 002b 740C     		je	.L102
 2688 002d 488B45F8 		movq	-8(%rbp), %rax
 2689 0031 4889C7   		movq	%rax, %rdi
 2690 0034 E8000000 		call	_ZdlPv
 2690      00
 2691              	.L102:
 2692 0039 C9       		leave
 2693              		.cfi_def_cfa 7, 8
 2694 003a C3       		ret
 2695              		.cfi_endproc
 2696              	.LFE770:
 2698              		.weak	_ZN102TEST_hsm_build_Should_InitializeInvalidHsmHandle_When_NoStateListAndNoNumberOfStateLis
 2699              		.set	_ZN102TEST_hsm_build_Should_InitializeInvalidHsmHandle_When_NoStateListAndNoNumberOfStateList
 2700              		.section	.text._ZN102TEST_hsm_build_Should_InitializeInvalidHsmHandle_When_NoStateListAndNoNumberO
 2701              		.align 2
 2702              		.weak	_ZN102TEST_hsm_build_Should_InitializeInvalidHsmHandle_When_NoStateListAndNoNumberOfStateLis
 2704              	_ZN102TEST_hsm_build_Should_InitializeInvalidHsmHandle_When_NoStateListAndNoNumberOfStateListGiven_
 2705              	.LFB772:
 2706              		.cfi_startproc
 2707 0000 55       		pushq	%rbp
 2708              		.cfi_def_cfa_offset 16
GAS LISTING /tmp/ccj7sGND.s 			page 56


 2709              		.cfi_offset 6, -16
 2710 0001 4889E5   		movq	%rsp, %rbp
 2711              		.cfi_def_cfa_register 6
 2712 0004 4883EC10 		subq	$16, %rsp
 2713 0008 48897DF8 		movq	%rdi, -8(%rbp)
 2714 000c 488B45F8 		movq	-8(%rbp), %rax
 2715 0010 4889C7   		movq	%rax, %rdi
 2716 0013 E8000000 		call	_ZN102TEST_hsm_build_Should_InitializeInvalidHsmHandle_When_NoStateListAndNoNumberOfStateList
 2716      00
 2717 0018 488B45F8 		movq	-8(%rbp), %rax
 2718 001c 4889C7   		movq	%rax, %rdi
 2719 001f E8000000 		call	_ZdlPv
 2719      00
 2720 0024 C9       		leave
 2721              		.cfi_def_cfa 7, 8
 2722 0025 C3       		ret
 2723              		.cfi_endproc
 2724              	.LFE772:
 2726              		.weak	_ZTV83TEST_hsm_build_Should_InitializeInvalidHsmHandle_When_NoNumberOfStateListGiven_Test
 2727              		.section	.rodata._ZTV83TEST_hsm_build_Should_InitializeInvalidHsmHandle_When_NoNumberOfStateListGi
 2728              		.align 8
 2731              	_ZTV83TEST_hsm_build_Should_InitializeInvalidHsmHandle_When_NoNumberOfStateListGiven_Test:
 2732 0000 00000000 		.quad	0
 2732      00000000 
 2733 0008 00000000 		.quad	_ZTI83TEST_hsm_build_Should_InitializeInvalidHsmHandle_When_NoNumberOfStateListGiven_Test
 2733      00000000 
 2734 0010 00000000 		.quad	_ZN83TEST_hsm_build_Should_InitializeInvalidHsmHandle_When_NoNumberOfStateListGiven_TestD1Ev
 2734      00000000 
 2735 0018 00000000 		.quad	_ZN83TEST_hsm_build_Should_InitializeInvalidHsmHandle_When_NoNumberOfStateListGiven_TestD0Ev
 2735      00000000 
 2736 0020 00000000 		.quad	_ZN5Utest3runEv
 2736      00000000 
 2737 0028 00000000 		.quad	_ZN33TEST_GROUP_CppUTestGrouphsm_build5setupEv
 2737      00000000 
 2738 0030 00000000 		.quad	_ZN33TEST_GROUP_CppUTestGrouphsm_build8teardownEv
 2738      00000000 
 2739 0038 00000000 		.quad	_ZN83TEST_hsm_build_Should_InitializeInvalidHsmHandle_When_NoNumberOfStateListGiven_Test8tes
 2739      00000000 
 2740              		.section	.text._ZN83TEST_hsm_build_Should_InitializeInvalidHsmHandle_When_NoNumberOfStateListGiven
 2741              		.align 2
 2742              		.weak	_ZN83TEST_hsm_build_Should_InitializeInvalidHsmHandle_When_NoNumberOfStateListGiven_TestD2Ev
 2744              	_ZN83TEST_hsm_build_Should_InitializeInvalidHsmHandle_When_NoNumberOfStateListGiven_TestD2Ev:
 2745              	.LFB774:
 2746              		.cfi_startproc
 2747 0000 55       		pushq	%rbp
 2748              		.cfi_def_cfa_offset 16
 2749              		.cfi_offset 6, -16
 2750 0001 4889E5   		movq	%rsp, %rbp
 2751              		.cfi_def_cfa_register 6
 2752 0004 4883EC10 		subq	$16, %rsp
 2753 0008 48897DF8 		movq	%rdi, -8(%rbp)
 2754 000c BA000000 		movl	$_ZTV83TEST_hsm_build_Should_InitializeInvalidHsmHandle_When_NoNumberOfStateListGiven_Test+16
 2754      00
 2755 0011 488B45F8 		movq	-8(%rbp), %rax
 2756 0015 488910   		movq	%rdx, (%rax)
 2757 0018 488B45F8 		movq	-8(%rbp), %rax
 2758 001c 4889C7   		movq	%rax, %rdi
GAS LISTING /tmp/ccj7sGND.s 			page 57


 2759 001f E8000000 		call	_ZN33TEST_GROUP_CppUTestGrouphsm_buildD2Ev
 2759      00
 2760 0024 B8000000 		movl	$0, %eax
 2760      00
 2761 0029 85C0     		testl	%eax, %eax
 2762 002b 740C     		je	.L105
 2763 002d 488B45F8 		movq	-8(%rbp), %rax
 2764 0031 4889C7   		movq	%rax, %rdi
 2765 0034 E8000000 		call	_ZdlPv
 2765      00
 2766              	.L105:
 2767 0039 C9       		leave
 2768              		.cfi_def_cfa 7, 8
 2769 003a C3       		ret
 2770              		.cfi_endproc
 2771              	.LFE774:
 2773              		.weak	_ZN83TEST_hsm_build_Should_InitializeInvalidHsmHandle_When_NoNumberOfStateListGiven_TestD1Ev
 2774              		.set	_ZN83TEST_hsm_build_Should_InitializeInvalidHsmHandle_When_NoNumberOfStateListGiven_TestD1Ev,
 2775              		.section	.text._ZN83TEST_hsm_build_Should_InitializeInvalidHsmHandle_When_NoNumberOfStateListGiven
 2776              		.align 2
 2777              		.weak	_ZN83TEST_hsm_build_Should_InitializeInvalidHsmHandle_When_NoNumberOfStateListGiven_TestD0Ev
 2779              	_ZN83TEST_hsm_build_Should_InitializeInvalidHsmHandle_When_NoNumberOfStateListGiven_TestD0Ev:
 2780              	.LFB776:
 2781              		.cfi_startproc
 2782 0000 55       		pushq	%rbp
 2783              		.cfi_def_cfa_offset 16
 2784              		.cfi_offset 6, -16
 2785 0001 4889E5   		movq	%rsp, %rbp
 2786              		.cfi_def_cfa_register 6
 2787 0004 4883EC10 		subq	$16, %rsp
 2788 0008 48897DF8 		movq	%rdi, -8(%rbp)
 2789 000c 488B45F8 		movq	-8(%rbp), %rax
 2790 0010 4889C7   		movq	%rax, %rdi
 2791 0013 E8000000 		call	_ZN83TEST_hsm_build_Should_InitializeInvalidHsmHandle_When_NoNumberOfStateListGiven_TestD1Ev
 2791      00
 2792 0018 488B45F8 		movq	-8(%rbp), %rax
 2793 001c 4889C7   		movq	%rax, %rdi
 2794 001f E8000000 		call	_ZdlPv
 2794      00
 2795 0024 C9       		leave
 2796              		.cfi_def_cfa 7, 8
 2797 0025 C3       		ret
 2798              		.cfi_endproc
 2799              	.LFE776:
 2801              		.weak	_ZTV88TEST_hsm_build_Should_InitializeInvalidHsmHandle_When_NoNumberOfStateListGiven_TestShe
 2802              		.section	.rodata._ZTV88TEST_hsm_build_Should_InitializeInvalidHsmHandle_When_NoNumberOfStateListGi
 2803              		.align 8
 2806              	_ZTV88TEST_hsm_build_Should_InitializeInvalidHsmHandle_When_NoNumberOfStateListGiven_TestShell:
 2807 0000 00000000 		.quad	0
 2807      00000000 
 2808 0008 00000000 		.quad	_ZTI88TEST_hsm_build_Should_InitializeInvalidHsmHandle_When_NoNumberOfStateListGiven_TestShe
 2808      00000000 
 2809 0010 00000000 		.quad	_ZN88TEST_hsm_build_Should_InitializeInvalidHsmHandle_When_NoNumberOfStateListGiven_TestShel
 2809      00000000 
 2810 0018 00000000 		.quad	_ZN88TEST_hsm_build_Should_InitializeInvalidHsmHandle_When_NoNumberOfStateListGiven_TestShel
 2810      00000000 
 2811 0020 00000000 		.quad	_ZN10UtestShell7addTestEPS_
GAS LISTING /tmp/ccj7sGND.s 			page 58


 2811      00000000 
 2812 0028 00000000 		.quad	_ZNK10UtestShell7getNextEv
 2812      00000000 
 2813 0030 00000000 		.quad	_ZN10UtestShell10countTestsEv
 2813      00000000 
 2814 0038 00000000 		.quad	_ZNK10UtestShell16getFormattedNameEv
 2814      00000000 
 2815 0040 00000000 		.quad	_ZNK10UtestShell7willRunEv
 2815      00000000 
 2816 0048 00000000 		.quad	_ZNK10UtestShell9hasFailedEv
 2816      00000000 
 2817 0050 00000000 		.quad	_ZN10UtestShell10assertTrueEbPKcS1_S1_iRK14TestTerminator
 2817      00000000 
 2818 0058 00000000 		.quad	_ZN10UtestShell14assertTrueTextEbPKcS1_S1_S1_iRK14TestTerminator
 2818      00000000 
 2819 0060 00000000 		.quad	_ZN10UtestShell15assertCstrEqualEPKcS1_S1_iRK14TestTerminator
 2819      00000000 
 2820 0068 00000000 		.quad	_ZN10UtestShell16assertCstrNEqualEPKcS1_mS1_iRK14TestTerminator
 2820      00000000 
 2821 0070 00000000 		.quad	_ZN10UtestShell21assertCstrNoCaseEqualEPKcS1_S1_i
 2821      00000000 
 2822 0078 00000000 		.quad	_ZN10UtestShell18assertCstrContainsEPKcS1_S1_i
 2822      00000000 
 2823 0080 00000000 		.quad	_ZN10UtestShell24assertCstrNoCaseContainsEPKcS1_S1_i
 2823      00000000 
 2824 0088 00000000 		.quad	_ZN10UtestShell16assertLongsEqualEllPKciRK14TestTerminator
 2824      00000000 
 2825 0090 00000000 		.quad	_ZN10UtestShell24assertUnsignedLongsEqualEmmPKciRK14TestTerminator
 2825      00000000 
 2826 0098 00000000 		.quad	_ZN10UtestShell19assertPointersEqualEPKvS1_PKci
 2826      00000000 
 2827 00a0 00000000 		.quad	_ZN10UtestShell18assertDoublesEqualEdddPKciRK14TestTerminator
 2827      00000000 
 2828 00a8 00000000 		.quad	_ZN10UtestShell12assertEqualsEbPKcS1_S1_iRK14TestTerminator
 2828      00000000 
 2829 00b0 00000000 		.quad	_ZN10UtestShell17assertBinaryEqualEPKvS1_mPKciRK14TestTerminator
 2829      00000000 
 2830 00b8 00000000 		.quad	_ZN10UtestShell4failEPKcS1_iRK14TestTerminator
 2830      00000000 
 2831 00c0 00000000 		.quad	_ZN10UtestShell5printEPKcS1_i
 2831      00000000 
 2832 00c8 00000000 		.quad	_ZN10UtestShell5printERK12SimpleStringPKci
 2832      00000000 
 2833 00d0 00000000 		.quad	_ZNK10UtestShell22isRunInSeperateProcessEv
 2833      00000000 
 2834 00d8 00000000 		.quad	_ZN10UtestShell23setRunInSeperateProcessEv
 2834      00000000 
 2835 00e0 00000000 		.quad	_ZN88TEST_hsm_build_Should_InitializeInvalidHsmHandle_When_NoNumberOfStateListGiven_TestShel
 2835      00000000 
 2836 00e8 00000000 		.quad	_ZN10UtestShell11destroyTestEP5Utest
 2836      00000000 
 2837 00f0 00000000 		.quad	_ZN10UtestShell10runOneTestEP10TestPluginR10TestResult
 2837      00000000 
 2838 00f8 00000000 		.quad	_ZN10UtestShell26runOneTestInCurrentProcessEP10TestPluginR10TestResult
 2838      00000000 
 2839 0100 00000000 		.quad	_ZN10UtestShell8failWithERK11TestFailure
 2839      00000000 
GAS LISTING /tmp/ccj7sGND.s 			page 59


 2840 0108 00000000 		.quad	_ZN10UtestShell8failWithERK11TestFailureRK14TestTerminator
 2840      00000000 
 2841 0110 00000000 		.quad	_ZNK10UtestShell12getMacroNameEv
 2841      00000000 
 2842              		.section	.text._ZN88TEST_hsm_build_Should_InitializeInvalidHsmHandle_When_NoNumberOfStateListGiven
 2843              		.align 2
 2844              		.weak	_ZN88TEST_hsm_build_Should_InitializeInvalidHsmHandle_When_NoNumberOfStateListGiven_TestShel
 2846              	_ZN88TEST_hsm_build_Should_InitializeInvalidHsmHandle_When_NoNumberOfStateListGiven_TestShellD2Ev:
 2847              	.LFB778:
 2848              		.cfi_startproc
 2849 0000 55       		pushq	%rbp
 2850              		.cfi_def_cfa_offset 16
 2851              		.cfi_offset 6, -16
 2852 0001 4889E5   		movq	%rsp, %rbp
 2853              		.cfi_def_cfa_register 6
 2854 0004 4883EC10 		subq	$16, %rsp
 2855 0008 48897DF8 		movq	%rdi, -8(%rbp)
 2856 000c BA000000 		movl	$_ZTV88TEST_hsm_build_Should_InitializeInvalidHsmHandle_When_NoNumberOfStateListGiven_TestShe
 2856      00
 2857 0011 488B45F8 		movq	-8(%rbp), %rax
 2858 0015 488910   		movq	%rdx, (%rax)
 2859 0018 488B45F8 		movq	-8(%rbp), %rax
 2860 001c 4889C7   		movq	%rax, %rdi
 2861 001f E8000000 		call	_ZN10UtestShellD2Ev
 2861      00
 2862 0024 B8000000 		movl	$0, %eax
 2862      00
 2863 0029 85C0     		testl	%eax, %eax
 2864 002b 740C     		je	.L108
 2865 002d 488B45F8 		movq	-8(%rbp), %rax
 2866 0031 4889C7   		movq	%rax, %rdi
 2867 0034 E8000000 		call	_ZdlPv
 2867      00
 2868              	.L108:
 2869 0039 C9       		leave
 2870              		.cfi_def_cfa 7, 8
 2871 003a C3       		ret
 2872              		.cfi_endproc
 2873              	.LFE778:
 2875              		.weak	_ZN88TEST_hsm_build_Should_InitializeInvalidHsmHandle_When_NoNumberOfStateListGiven_TestShel
 2876              		.set	_ZN88TEST_hsm_build_Should_InitializeInvalidHsmHandle_When_NoNumberOfStateListGiven_TestShell
 2877              		.section	.text._ZN88TEST_hsm_build_Should_InitializeInvalidHsmHandle_When_NoNumberOfStateListGiven
 2878              		.align 2
 2879              		.weak	_ZN88TEST_hsm_build_Should_InitializeInvalidHsmHandle_When_NoNumberOfStateListGiven_TestShel
 2881              	_ZN88TEST_hsm_build_Should_InitializeInvalidHsmHandle_When_NoNumberOfStateListGiven_TestShellD0Ev:
 2882              	.LFB780:
 2883              		.cfi_startproc
 2884 0000 55       		pushq	%rbp
 2885              		.cfi_def_cfa_offset 16
 2886              		.cfi_offset 6, -16
 2887 0001 4889E5   		movq	%rsp, %rbp
 2888              		.cfi_def_cfa_register 6
 2889 0004 4883EC10 		subq	$16, %rsp
 2890 0008 48897DF8 		movq	%rdi, -8(%rbp)
 2891 000c 488B45F8 		movq	-8(%rbp), %rax
 2892 0010 4889C7   		movq	%rax, %rdi
 2893 0013 E8000000 		call	_ZN88TEST_hsm_build_Should_InitializeInvalidHsmHandle_When_NoNumberOfStateListGiven_TestShell
GAS LISTING /tmp/ccj7sGND.s 			page 60


 2893      00
 2894 0018 488B45F8 		movq	-8(%rbp), %rax
 2895 001c 4889C7   		movq	%rax, %rdi
 2896 001f E8000000 		call	_ZdlPv
 2896      00
 2897 0024 C9       		leave
 2898              		.cfi_def_cfa 7, 8
 2899 0025 C3       		ret
 2900              		.cfi_endproc
 2901              	.LFE780:
 2903              		.weak	_ZTV75TEST_hsm_build_Should_InitializeInvalidHsmHandle_When_NoStateListGiven_Test
 2904              		.section	.rodata._ZTV75TEST_hsm_build_Should_InitializeInvalidHsmHandle_When_NoStateListGiven_Test
 2905              		.align 8
 2908              	_ZTV75TEST_hsm_build_Should_InitializeInvalidHsmHandle_When_NoStateListGiven_Test:
 2909 0000 00000000 		.quad	0
 2909      00000000 
 2910 0008 00000000 		.quad	_ZTI75TEST_hsm_build_Should_InitializeInvalidHsmHandle_When_NoStateListGiven_Test
 2910      00000000 
 2911 0010 00000000 		.quad	_ZN75TEST_hsm_build_Should_InitializeInvalidHsmHandle_When_NoStateListGiven_TestD1Ev
 2911      00000000 
 2912 0018 00000000 		.quad	_ZN75TEST_hsm_build_Should_InitializeInvalidHsmHandle_When_NoStateListGiven_TestD0Ev
 2912      00000000 
 2913 0020 00000000 		.quad	_ZN5Utest3runEv
 2913      00000000 
 2914 0028 00000000 		.quad	_ZN33TEST_GROUP_CppUTestGrouphsm_build5setupEv
 2914      00000000 
 2915 0030 00000000 		.quad	_ZN33TEST_GROUP_CppUTestGrouphsm_build8teardownEv
 2915      00000000 
 2916 0038 00000000 		.quad	_ZN75TEST_hsm_build_Should_InitializeInvalidHsmHandle_When_NoStateListGiven_Test8testBodyEv
 2916      00000000 
 2917              		.section	.text._ZN75TEST_hsm_build_Should_InitializeInvalidHsmHandle_When_NoStateListGiven_TestD2E
 2918              		.align 2
 2919              		.weak	_ZN75TEST_hsm_build_Should_InitializeInvalidHsmHandle_When_NoStateListGiven_TestD2Ev
 2921              	_ZN75TEST_hsm_build_Should_InitializeInvalidHsmHandle_When_NoStateListGiven_TestD2Ev:
 2922              	.LFB782:
 2923              		.cfi_startproc
 2924 0000 55       		pushq	%rbp
 2925              		.cfi_def_cfa_offset 16
 2926              		.cfi_offset 6, -16
 2927 0001 4889E5   		movq	%rsp, %rbp
 2928              		.cfi_def_cfa_register 6
 2929 0004 4883EC10 		subq	$16, %rsp
 2930 0008 48897DF8 		movq	%rdi, -8(%rbp)
 2931 000c BA000000 		movl	$_ZTV75TEST_hsm_build_Should_InitializeInvalidHsmHandle_When_NoStateListGiven_Test+16, %edx
 2931      00
 2932 0011 488B45F8 		movq	-8(%rbp), %rax
 2933 0015 488910   		movq	%rdx, (%rax)
 2934 0018 488B45F8 		movq	-8(%rbp), %rax
 2935 001c 4889C7   		movq	%rax, %rdi
 2936 001f E8000000 		call	_ZN33TEST_GROUP_CppUTestGrouphsm_buildD2Ev
 2936      00
 2937 0024 B8000000 		movl	$0, %eax
 2937      00
 2938 0029 85C0     		testl	%eax, %eax
 2939 002b 740C     		je	.L111
 2940 002d 488B45F8 		movq	-8(%rbp), %rax
 2941 0031 4889C7   		movq	%rax, %rdi
GAS LISTING /tmp/ccj7sGND.s 			page 61


 2942 0034 E8000000 		call	_ZdlPv
 2942      00
 2943              	.L111:
 2944 0039 C9       		leave
 2945              		.cfi_def_cfa 7, 8
 2946 003a C3       		ret
 2947              		.cfi_endproc
 2948              	.LFE782:
 2950              		.weak	_ZN75TEST_hsm_build_Should_InitializeInvalidHsmHandle_When_NoStateListGiven_TestD1Ev
 2951              		.set	_ZN75TEST_hsm_build_Should_InitializeInvalidHsmHandle_When_NoStateListGiven_TestD1Ev,_ZN75TES
 2952              		.section	.text._ZN75TEST_hsm_build_Should_InitializeInvalidHsmHandle_When_NoStateListGiven_TestD0E
 2953              		.align 2
 2954              		.weak	_ZN75TEST_hsm_build_Should_InitializeInvalidHsmHandle_When_NoStateListGiven_TestD0Ev
 2956              	_ZN75TEST_hsm_build_Should_InitializeInvalidHsmHandle_When_NoStateListGiven_TestD0Ev:
 2957              	.LFB784:
 2958              		.cfi_startproc
 2959 0000 55       		pushq	%rbp
 2960              		.cfi_def_cfa_offset 16
 2961              		.cfi_offset 6, -16
 2962 0001 4889E5   		movq	%rsp, %rbp
 2963              		.cfi_def_cfa_register 6
 2964 0004 4883EC10 		subq	$16, %rsp
 2965 0008 48897DF8 		movq	%rdi, -8(%rbp)
 2966 000c 488B45F8 		movq	-8(%rbp), %rax
 2967 0010 4889C7   		movq	%rax, %rdi
 2968 0013 E8000000 		call	_ZN75TEST_hsm_build_Should_InitializeInvalidHsmHandle_When_NoStateListGiven_TestD1Ev
 2968      00
 2969 0018 488B45F8 		movq	-8(%rbp), %rax
 2970 001c 4889C7   		movq	%rax, %rdi
 2971 001f E8000000 		call	_ZdlPv
 2971      00
 2972 0024 C9       		leave
 2973              		.cfi_def_cfa 7, 8
 2974 0025 C3       		ret
 2975              		.cfi_endproc
 2976              	.LFE784:
 2978              		.weak	_ZTV80TEST_hsm_build_Should_InitializeInvalidHsmHandle_When_NoStateListGiven_TestShell
 2979              		.section	.rodata._ZTV80TEST_hsm_build_Should_InitializeInvalidHsmHandle_When_NoStateListGiven_Test
 2980              		.align 8
 2983              	_ZTV80TEST_hsm_build_Should_InitializeInvalidHsmHandle_When_NoStateListGiven_TestShell:
 2984 0000 00000000 		.quad	0
 2984      00000000 
 2985 0008 00000000 		.quad	_ZTI80TEST_hsm_build_Should_InitializeInvalidHsmHandle_When_NoStateListGiven_TestShell
 2985      00000000 
 2986 0010 00000000 		.quad	_ZN80TEST_hsm_build_Should_InitializeInvalidHsmHandle_When_NoStateListGiven_TestShellD1Ev
 2986      00000000 
 2987 0018 00000000 		.quad	_ZN80TEST_hsm_build_Should_InitializeInvalidHsmHandle_When_NoStateListGiven_TestShellD0Ev
 2987      00000000 
 2988 0020 00000000 		.quad	_ZN10UtestShell7addTestEPS_
 2988      00000000 
 2989 0028 00000000 		.quad	_ZNK10UtestShell7getNextEv
 2989      00000000 
 2990 0030 00000000 		.quad	_ZN10UtestShell10countTestsEv
 2990      00000000 
 2991 0038 00000000 		.quad	_ZNK10UtestShell16getFormattedNameEv
 2991      00000000 
 2992 0040 00000000 		.quad	_ZNK10UtestShell7willRunEv
GAS LISTING /tmp/ccj7sGND.s 			page 62


 2992      00000000 
 2993 0048 00000000 		.quad	_ZNK10UtestShell9hasFailedEv
 2993      00000000 
 2994 0050 00000000 		.quad	_ZN10UtestShell10assertTrueEbPKcS1_S1_iRK14TestTerminator
 2994      00000000 
 2995 0058 00000000 		.quad	_ZN10UtestShell14assertTrueTextEbPKcS1_S1_S1_iRK14TestTerminator
 2995      00000000 
 2996 0060 00000000 		.quad	_ZN10UtestShell15assertCstrEqualEPKcS1_S1_iRK14TestTerminator
 2996      00000000 
 2997 0068 00000000 		.quad	_ZN10UtestShell16assertCstrNEqualEPKcS1_mS1_iRK14TestTerminator
 2997      00000000 
 2998 0070 00000000 		.quad	_ZN10UtestShell21assertCstrNoCaseEqualEPKcS1_S1_i
 2998      00000000 
 2999 0078 00000000 		.quad	_ZN10UtestShell18assertCstrContainsEPKcS1_S1_i
 2999      00000000 
 3000 0080 00000000 		.quad	_ZN10UtestShell24assertCstrNoCaseContainsEPKcS1_S1_i
 3000      00000000 
 3001 0088 00000000 		.quad	_ZN10UtestShell16assertLongsEqualEllPKciRK14TestTerminator
 3001      00000000 
 3002 0090 00000000 		.quad	_ZN10UtestShell24assertUnsignedLongsEqualEmmPKciRK14TestTerminator
 3002      00000000 
 3003 0098 00000000 		.quad	_ZN10UtestShell19assertPointersEqualEPKvS1_PKci
 3003      00000000 
 3004 00a0 00000000 		.quad	_ZN10UtestShell18assertDoublesEqualEdddPKciRK14TestTerminator
 3004      00000000 
 3005 00a8 00000000 		.quad	_ZN10UtestShell12assertEqualsEbPKcS1_S1_iRK14TestTerminator
 3005      00000000 
 3006 00b0 00000000 		.quad	_ZN10UtestShell17assertBinaryEqualEPKvS1_mPKciRK14TestTerminator
 3006      00000000 
 3007 00b8 00000000 		.quad	_ZN10UtestShell4failEPKcS1_iRK14TestTerminator
 3007      00000000 
 3008 00c0 00000000 		.quad	_ZN10UtestShell5printEPKcS1_i
 3008      00000000 
 3009 00c8 00000000 		.quad	_ZN10UtestShell5printERK12SimpleStringPKci
 3009      00000000 
 3010 00d0 00000000 		.quad	_ZNK10UtestShell22isRunInSeperateProcessEv
 3010      00000000 
 3011 00d8 00000000 		.quad	_ZN10UtestShell23setRunInSeperateProcessEv
 3011      00000000 
 3012 00e0 00000000 		.quad	_ZN80TEST_hsm_build_Should_InitializeInvalidHsmHandle_When_NoStateListGiven_TestShell10creat
 3012      00000000 
 3013 00e8 00000000 		.quad	_ZN10UtestShell11destroyTestEP5Utest
 3013      00000000 
 3014 00f0 00000000 		.quad	_ZN10UtestShell10runOneTestEP10TestPluginR10TestResult
 3014      00000000 
 3015 00f8 00000000 		.quad	_ZN10UtestShell26runOneTestInCurrentProcessEP10TestPluginR10TestResult
 3015      00000000 
 3016 0100 00000000 		.quad	_ZN10UtestShell8failWithERK11TestFailure
 3016      00000000 
 3017 0108 00000000 		.quad	_ZN10UtestShell8failWithERK11TestFailureRK14TestTerminator
 3017      00000000 
 3018 0110 00000000 		.quad	_ZNK10UtestShell12getMacroNameEv
 3018      00000000 
 3019              		.section	.text._ZN80TEST_hsm_build_Should_InitializeInvalidHsmHandle_When_NoStateListGiven_TestShe
 3020              		.align 2
 3021              		.weak	_ZN80TEST_hsm_build_Should_InitializeInvalidHsmHandle_When_NoStateListGiven_TestShellD2Ev
 3023              	_ZN80TEST_hsm_build_Should_InitializeInvalidHsmHandle_When_NoStateListGiven_TestShellD2Ev:
GAS LISTING /tmp/ccj7sGND.s 			page 63


 3024              	.LFB786:
 3025              		.cfi_startproc
 3026 0000 55       		pushq	%rbp
 3027              		.cfi_def_cfa_offset 16
 3028              		.cfi_offset 6, -16
 3029 0001 4889E5   		movq	%rsp, %rbp
 3030              		.cfi_def_cfa_register 6
 3031 0004 4883EC10 		subq	$16, %rsp
 3032 0008 48897DF8 		movq	%rdi, -8(%rbp)
 3033 000c BA000000 		movl	$_ZTV80TEST_hsm_build_Should_InitializeInvalidHsmHandle_When_NoStateListGiven_TestShell+16, %
 3033      00
 3034 0011 488B45F8 		movq	-8(%rbp), %rax
 3035 0015 488910   		movq	%rdx, (%rax)
 3036 0018 488B45F8 		movq	-8(%rbp), %rax
 3037 001c 4889C7   		movq	%rax, %rdi
 3038 001f E8000000 		call	_ZN10UtestShellD2Ev
 3038      00
 3039 0024 B8000000 		movl	$0, %eax
 3039      00
 3040 0029 85C0     		testl	%eax, %eax
 3041 002b 740C     		je	.L114
 3042 002d 488B45F8 		movq	-8(%rbp), %rax
 3043 0031 4889C7   		movq	%rax, %rdi
 3044 0034 E8000000 		call	_ZdlPv
 3044      00
 3045              	.L114:
 3046 0039 C9       		leave
 3047              		.cfi_def_cfa 7, 8
 3048 003a C3       		ret
 3049              		.cfi_endproc
 3050              	.LFE786:
 3052              		.weak	_ZN80TEST_hsm_build_Should_InitializeInvalidHsmHandle_When_NoStateListGiven_TestShellD1Ev
 3053              		.set	_ZN80TEST_hsm_build_Should_InitializeInvalidHsmHandle_When_NoStateListGiven_TestShellD1Ev,_ZN
 3054              		.section	.text._ZN80TEST_hsm_build_Should_InitializeInvalidHsmHandle_When_NoStateListGiven_TestShe
 3055              		.align 2
 3056              		.weak	_ZN80TEST_hsm_build_Should_InitializeInvalidHsmHandle_When_NoStateListGiven_TestShellD0Ev
 3058              	_ZN80TEST_hsm_build_Should_InitializeInvalidHsmHandle_When_NoStateListGiven_TestShellD0Ev:
 3059              	.LFB788:
 3060              		.cfi_startproc
 3061 0000 55       		pushq	%rbp
 3062              		.cfi_def_cfa_offset 16
 3063              		.cfi_offset 6, -16
 3064 0001 4889E5   		movq	%rsp, %rbp
 3065              		.cfi_def_cfa_register 6
 3066 0004 4883EC10 		subq	$16, %rsp
 3067 0008 48897DF8 		movq	%rdi, -8(%rbp)
 3068 000c 488B45F8 		movq	-8(%rbp), %rax
 3069 0010 4889C7   		movq	%rax, %rdi
 3070 0013 E8000000 		call	_ZN80TEST_hsm_build_Should_InitializeInvalidHsmHandle_When_NoStateListGiven_TestShellD1Ev
 3070      00
 3071 0018 488B45F8 		movq	-8(%rbp), %rax
 3072 001c 4889C7   		movq	%rax, %rdi
 3073 001f E8000000 		call	_ZdlPv
 3073      00
 3074 0024 C9       		leave
 3075              		.cfi_def_cfa 7, 8
 3076 0025 C3       		ret
GAS LISTING /tmp/ccj7sGND.s 			page 64


 3077              		.cfi_endproc
 3078              	.LFE788:
 3080              		.weak	_ZTV80TEST_hsm_build_Should_InitializeInvalidHsmHandle_When_NullInitialStateGiven_Test
 3081              		.section	.rodata._ZTV80TEST_hsm_build_Should_InitializeInvalidHsmHandle_When_NullInitialStateGiven
 3082              		.align 8
 3085              	_ZTV80TEST_hsm_build_Should_InitializeInvalidHsmHandle_When_NullInitialStateGiven_Test:
 3086 0000 00000000 		.quad	0
 3086      00000000 
 3087 0008 00000000 		.quad	_ZTI80TEST_hsm_build_Should_InitializeInvalidHsmHandle_When_NullInitialStateGiven_Test
 3087      00000000 
 3088 0010 00000000 		.quad	_ZN80TEST_hsm_build_Should_InitializeInvalidHsmHandle_When_NullInitialStateGiven_TestD1Ev
 3088      00000000 
 3089 0018 00000000 		.quad	_ZN80TEST_hsm_build_Should_InitializeInvalidHsmHandle_When_NullInitialStateGiven_TestD0Ev
 3089      00000000 
 3090 0020 00000000 		.quad	_ZN5Utest3runEv
 3090      00000000 
 3091 0028 00000000 		.quad	_ZN33TEST_GROUP_CppUTestGrouphsm_build5setupEv
 3091      00000000 
 3092 0030 00000000 		.quad	_ZN33TEST_GROUP_CppUTestGrouphsm_build8teardownEv
 3092      00000000 
 3093 0038 00000000 		.quad	_ZN80TEST_hsm_build_Should_InitializeInvalidHsmHandle_When_NullInitialStateGiven_Test8testBo
 3093      00000000 
 3094              		.section	.text._ZN80TEST_hsm_build_Should_InitializeInvalidHsmHandle_When_NullInitialStateGiven_Te
 3095              		.align 2
 3096              		.weak	_ZN80TEST_hsm_build_Should_InitializeInvalidHsmHandle_When_NullInitialStateGiven_TestD2Ev
 3098              	_ZN80TEST_hsm_build_Should_InitializeInvalidHsmHandle_When_NullInitialStateGiven_TestD2Ev:
 3099              	.LFB790:
 3100              		.cfi_startproc
 3101 0000 55       		pushq	%rbp
 3102              		.cfi_def_cfa_offset 16
 3103              		.cfi_offset 6, -16
 3104 0001 4889E5   		movq	%rsp, %rbp
 3105              		.cfi_def_cfa_register 6
 3106 0004 4883EC10 		subq	$16, %rsp
 3107 0008 48897DF8 		movq	%rdi, -8(%rbp)
 3108 000c BA000000 		movl	$_ZTV80TEST_hsm_build_Should_InitializeInvalidHsmHandle_When_NullInitialStateGiven_Test+16, %
 3108      00
 3109 0011 488B45F8 		movq	-8(%rbp), %rax
 3110 0015 488910   		movq	%rdx, (%rax)
 3111 0018 488B45F8 		movq	-8(%rbp), %rax
 3112 001c 4889C7   		movq	%rax, %rdi
 3113 001f E8000000 		call	_ZN33TEST_GROUP_CppUTestGrouphsm_buildD2Ev
 3113      00
 3114 0024 B8000000 		movl	$0, %eax
 3114      00
 3115 0029 85C0     		testl	%eax, %eax
 3116 002b 740C     		je	.L117
 3117 002d 488B45F8 		movq	-8(%rbp), %rax
 3118 0031 4889C7   		movq	%rax, %rdi
 3119 0034 E8000000 		call	_ZdlPv
 3119      00
 3120              	.L117:
 3121 0039 C9       		leave
 3122              		.cfi_def_cfa 7, 8
 3123 003a C3       		ret
 3124              		.cfi_endproc
 3125              	.LFE790:
GAS LISTING /tmp/ccj7sGND.s 			page 65


 3127              		.weak	_ZN80TEST_hsm_build_Should_InitializeInvalidHsmHandle_When_NullInitialStateGiven_TestD1Ev
 3128              		.set	_ZN80TEST_hsm_build_Should_InitializeInvalidHsmHandle_When_NullInitialStateGiven_TestD1Ev,_ZN
 3129              		.section	.text._ZN80TEST_hsm_build_Should_InitializeInvalidHsmHandle_When_NullInitialStateGiven_Te
 3130              		.align 2
 3131              		.weak	_ZN80TEST_hsm_build_Should_InitializeInvalidHsmHandle_When_NullInitialStateGiven_TestD0Ev
 3133              	_ZN80TEST_hsm_build_Should_InitializeInvalidHsmHandle_When_NullInitialStateGiven_TestD0Ev:
 3134              	.LFB792:
 3135              		.cfi_startproc
 3136 0000 55       		pushq	%rbp
 3137              		.cfi_def_cfa_offset 16
 3138              		.cfi_offset 6, -16
 3139 0001 4889E5   		movq	%rsp, %rbp
 3140              		.cfi_def_cfa_register 6
 3141 0004 4883EC10 		subq	$16, %rsp
 3142 0008 48897DF8 		movq	%rdi, -8(%rbp)
 3143 000c 488B45F8 		movq	-8(%rbp), %rax
 3144 0010 4889C7   		movq	%rax, %rdi
 3145 0013 E8000000 		call	_ZN80TEST_hsm_build_Should_InitializeInvalidHsmHandle_When_NullInitialStateGiven_TestD1Ev
 3145      00
 3146 0018 488B45F8 		movq	-8(%rbp), %rax
 3147 001c 4889C7   		movq	%rax, %rdi
 3148 001f E8000000 		call	_ZdlPv
 3148      00
 3149 0024 C9       		leave
 3150              		.cfi_def_cfa 7, 8
 3151 0025 C3       		ret
 3152              		.cfi_endproc
 3153              	.LFE792:
 3155              		.weak	_ZTV85TEST_hsm_build_Should_InitializeInvalidHsmHandle_When_NullInitialStateGiven_TestShell
 3156              		.section	.rodata._ZTV85TEST_hsm_build_Should_InitializeInvalidHsmHandle_When_NullInitialStateGiven
 3157              		.align 8
 3160              	_ZTV85TEST_hsm_build_Should_InitializeInvalidHsmHandle_When_NullInitialStateGiven_TestShell:
 3161 0000 00000000 		.quad	0
 3161      00000000 
 3162 0008 00000000 		.quad	_ZTI85TEST_hsm_build_Should_InitializeInvalidHsmHandle_When_NullInitialStateGiven_TestShell
 3162      00000000 
 3163 0010 00000000 		.quad	_ZN85TEST_hsm_build_Should_InitializeInvalidHsmHandle_When_NullInitialStateGiven_TestShellD1
 3163      00000000 
 3164 0018 00000000 		.quad	_ZN85TEST_hsm_build_Should_InitializeInvalidHsmHandle_When_NullInitialStateGiven_TestShellD0
 3164      00000000 
 3165 0020 00000000 		.quad	_ZN10UtestShell7addTestEPS_
 3165      00000000 
 3166 0028 00000000 		.quad	_ZNK10UtestShell7getNextEv
 3166      00000000 
 3167 0030 00000000 		.quad	_ZN10UtestShell10countTestsEv
 3167      00000000 
 3168 0038 00000000 		.quad	_ZNK10UtestShell16getFormattedNameEv
 3168      00000000 
 3169 0040 00000000 		.quad	_ZNK10UtestShell7willRunEv
 3169      00000000 
 3170 0048 00000000 		.quad	_ZNK10UtestShell9hasFailedEv
 3170      00000000 
 3171 0050 00000000 		.quad	_ZN10UtestShell10assertTrueEbPKcS1_S1_iRK14TestTerminator
 3171      00000000 
 3172 0058 00000000 		.quad	_ZN10UtestShell14assertTrueTextEbPKcS1_S1_S1_iRK14TestTerminator
 3172      00000000 
 3173 0060 00000000 		.quad	_ZN10UtestShell15assertCstrEqualEPKcS1_S1_iRK14TestTerminator
GAS LISTING /tmp/ccj7sGND.s 			page 66


 3173      00000000 
 3174 0068 00000000 		.quad	_ZN10UtestShell16assertCstrNEqualEPKcS1_mS1_iRK14TestTerminator
 3174      00000000 
 3175 0070 00000000 		.quad	_ZN10UtestShell21assertCstrNoCaseEqualEPKcS1_S1_i
 3175      00000000 
 3176 0078 00000000 		.quad	_ZN10UtestShell18assertCstrContainsEPKcS1_S1_i
 3176      00000000 
 3177 0080 00000000 		.quad	_ZN10UtestShell24assertCstrNoCaseContainsEPKcS1_S1_i
 3177      00000000 
 3178 0088 00000000 		.quad	_ZN10UtestShell16assertLongsEqualEllPKciRK14TestTerminator
 3178      00000000 
 3179 0090 00000000 		.quad	_ZN10UtestShell24assertUnsignedLongsEqualEmmPKciRK14TestTerminator
 3179      00000000 
 3180 0098 00000000 		.quad	_ZN10UtestShell19assertPointersEqualEPKvS1_PKci
 3180      00000000 
 3181 00a0 00000000 		.quad	_ZN10UtestShell18assertDoublesEqualEdddPKciRK14TestTerminator
 3181      00000000 
 3182 00a8 00000000 		.quad	_ZN10UtestShell12assertEqualsEbPKcS1_S1_iRK14TestTerminator
 3182      00000000 
 3183 00b0 00000000 		.quad	_ZN10UtestShell17assertBinaryEqualEPKvS1_mPKciRK14TestTerminator
 3183      00000000 
 3184 00b8 00000000 		.quad	_ZN10UtestShell4failEPKcS1_iRK14TestTerminator
 3184      00000000 
 3185 00c0 00000000 		.quad	_ZN10UtestShell5printEPKcS1_i
 3185      00000000 
 3186 00c8 00000000 		.quad	_ZN10UtestShell5printERK12SimpleStringPKci
 3186      00000000 
 3187 00d0 00000000 		.quad	_ZNK10UtestShell22isRunInSeperateProcessEv
 3187      00000000 
 3188 00d8 00000000 		.quad	_ZN10UtestShell23setRunInSeperateProcessEv
 3188      00000000 
 3189 00e0 00000000 		.quad	_ZN85TEST_hsm_build_Should_InitializeInvalidHsmHandle_When_NullInitialStateGiven_TestShell10
 3189      00000000 
 3190 00e8 00000000 		.quad	_ZN10UtestShell11destroyTestEP5Utest
 3190      00000000 
 3191 00f0 00000000 		.quad	_ZN10UtestShell10runOneTestEP10TestPluginR10TestResult
 3191      00000000 
 3192 00f8 00000000 		.quad	_ZN10UtestShell26runOneTestInCurrentProcessEP10TestPluginR10TestResult
 3192      00000000 
 3193 0100 00000000 		.quad	_ZN10UtestShell8failWithERK11TestFailure
 3193      00000000 
 3194 0108 00000000 		.quad	_ZN10UtestShell8failWithERK11TestFailureRK14TestTerminator
 3194      00000000 
 3195 0110 00000000 		.quad	_ZNK10UtestShell12getMacroNameEv
 3195      00000000 
 3196              		.section	.text._ZN85TEST_hsm_build_Should_InitializeInvalidHsmHandle_When_NullInitialStateGiven_Te
 3197              		.align 2
 3198              		.weak	_ZN85TEST_hsm_build_Should_InitializeInvalidHsmHandle_When_NullInitialStateGiven_TestShellD2
 3200              	_ZN85TEST_hsm_build_Should_InitializeInvalidHsmHandle_When_NullInitialStateGiven_TestShellD2Ev:
 3201              	.LFB794:
 3202              		.cfi_startproc
 3203 0000 55       		pushq	%rbp
 3204              		.cfi_def_cfa_offset 16
 3205              		.cfi_offset 6, -16
 3206 0001 4889E5   		movq	%rsp, %rbp
 3207              		.cfi_def_cfa_register 6
 3208 0004 4883EC10 		subq	$16, %rsp
GAS LISTING /tmp/ccj7sGND.s 			page 67


 3209 0008 48897DF8 		movq	%rdi, -8(%rbp)
 3210 000c BA000000 		movl	$_ZTV85TEST_hsm_build_Should_InitializeInvalidHsmHandle_When_NullInitialStateGiven_TestShell+
 3210      00
 3211 0011 488B45F8 		movq	-8(%rbp), %rax
 3212 0015 488910   		movq	%rdx, (%rax)
 3213 0018 488B45F8 		movq	-8(%rbp), %rax
 3214 001c 4889C7   		movq	%rax, %rdi
 3215 001f E8000000 		call	_ZN10UtestShellD2Ev
 3215      00
 3216 0024 B8000000 		movl	$0, %eax
 3216      00
 3217 0029 85C0     		testl	%eax, %eax
 3218 002b 740C     		je	.L120
 3219 002d 488B45F8 		movq	-8(%rbp), %rax
 3220 0031 4889C7   		movq	%rax, %rdi
 3221 0034 E8000000 		call	_ZdlPv
 3221      00
 3222              	.L120:
 3223 0039 C9       		leave
 3224              		.cfi_def_cfa 7, 8
 3225 003a C3       		ret
 3226              		.cfi_endproc
 3227              	.LFE794:
 3229              		.weak	_ZN85TEST_hsm_build_Should_InitializeInvalidHsmHandle_When_NullInitialStateGiven_TestShellD1
 3230              		.set	_ZN85TEST_hsm_build_Should_InitializeInvalidHsmHandle_When_NullInitialStateGiven_TestShellD1E
 3231              		.section	.text._ZN85TEST_hsm_build_Should_InitializeInvalidHsmHandle_When_NullInitialStateGiven_Te
 3232              		.align 2
 3233              		.weak	_ZN85TEST_hsm_build_Should_InitializeInvalidHsmHandle_When_NullInitialStateGiven_TestShellD0
 3235              	_ZN85TEST_hsm_build_Should_InitializeInvalidHsmHandle_When_NullInitialStateGiven_TestShellD0Ev:
 3236              	.LFB796:
 3237              		.cfi_startproc
 3238 0000 55       		pushq	%rbp
 3239              		.cfi_def_cfa_offset 16
 3240              		.cfi_offset 6, -16
 3241 0001 4889E5   		movq	%rsp, %rbp
 3242              		.cfi_def_cfa_register 6
 3243 0004 4883EC10 		subq	$16, %rsp
 3244 0008 48897DF8 		movq	%rdi, -8(%rbp)
 3245 000c 488B45F8 		movq	-8(%rbp), %rax
 3246 0010 4889C7   		movq	%rax, %rdi
 3247 0013 E8000000 		call	_ZN85TEST_hsm_build_Should_InitializeInvalidHsmHandle_When_NullInitialStateGiven_TestShellD1E
 3247      00
 3248 0018 488B45F8 		movq	-8(%rbp), %rax
 3249 001c 4889C7   		movq	%rax, %rdi
 3250 001f E8000000 		call	_ZdlPv
 3250      00
 3251 0024 C9       		leave
 3252              		.cfi_def_cfa 7, 8
 3253 0025 C3       		ret
 3254              		.cfi_endproc
 3255              	.LFE796:
 3257              		.weak	_ZTV74TEST_hsm_build_Should_InitializeInvalidHsmHandle_When_NoTopStateGiven_Test
 3258              		.section	.rodata._ZTV74TEST_hsm_build_Should_InitializeInvalidHsmHandle_When_NoTopStateGiven_Test,
 3259              		.align 8
 3262              	_ZTV74TEST_hsm_build_Should_InitializeInvalidHsmHandle_When_NoTopStateGiven_Test:
 3263 0000 00000000 		.quad	0
 3263      00000000 
GAS LISTING /tmp/ccj7sGND.s 			page 68


 3264 0008 00000000 		.quad	_ZTI74TEST_hsm_build_Should_InitializeInvalidHsmHandle_When_NoTopStateGiven_Test
 3264      00000000 
 3265 0010 00000000 		.quad	_ZN74TEST_hsm_build_Should_InitializeInvalidHsmHandle_When_NoTopStateGiven_TestD1Ev
 3265      00000000 
 3266 0018 00000000 		.quad	_ZN74TEST_hsm_build_Should_InitializeInvalidHsmHandle_When_NoTopStateGiven_TestD0Ev
 3266      00000000 
 3267 0020 00000000 		.quad	_ZN5Utest3runEv
 3267      00000000 
 3268 0028 00000000 		.quad	_ZN33TEST_GROUP_CppUTestGrouphsm_build5setupEv
 3268      00000000 
 3269 0030 00000000 		.quad	_ZN33TEST_GROUP_CppUTestGrouphsm_build8teardownEv
 3269      00000000 
 3270 0038 00000000 		.quad	_ZN74TEST_hsm_build_Should_InitializeInvalidHsmHandle_When_NoTopStateGiven_Test8testBodyEv
 3270      00000000 
 3271              		.section	.text._ZN74TEST_hsm_build_Should_InitializeInvalidHsmHandle_When_NoTopStateGiven_TestD2Ev
 3272              		.align 2
 3273              		.weak	_ZN74TEST_hsm_build_Should_InitializeInvalidHsmHandle_When_NoTopStateGiven_TestD2Ev
 3275              	_ZN74TEST_hsm_build_Should_InitializeInvalidHsmHandle_When_NoTopStateGiven_TestD2Ev:
 3276              	.LFB798:
 3277              		.cfi_startproc
 3278 0000 55       		pushq	%rbp
 3279              		.cfi_def_cfa_offset 16
 3280              		.cfi_offset 6, -16
 3281 0001 4889E5   		movq	%rsp, %rbp
 3282              		.cfi_def_cfa_register 6
 3283 0004 4883EC10 		subq	$16, %rsp
 3284 0008 48897DF8 		movq	%rdi, -8(%rbp)
 3285 000c BA000000 		movl	$_ZTV74TEST_hsm_build_Should_InitializeInvalidHsmHandle_When_NoTopStateGiven_Test+16, %edx
 3285      00
 3286 0011 488B45F8 		movq	-8(%rbp), %rax
 3287 0015 488910   		movq	%rdx, (%rax)
 3288 0018 488B45F8 		movq	-8(%rbp), %rax
 3289 001c 4889C7   		movq	%rax, %rdi
 3290 001f E8000000 		call	_ZN33TEST_GROUP_CppUTestGrouphsm_buildD2Ev
 3290      00
 3291 0024 B8000000 		movl	$0, %eax
 3291      00
 3292 0029 85C0     		testl	%eax, %eax
 3293 002b 740C     		je	.L123
 3294 002d 488B45F8 		movq	-8(%rbp), %rax
 3295 0031 4889C7   		movq	%rax, %rdi
 3296 0034 E8000000 		call	_ZdlPv
 3296      00
 3297              	.L123:
 3298 0039 C9       		leave
 3299              		.cfi_def_cfa 7, 8
 3300 003a C3       		ret
 3301              		.cfi_endproc
 3302              	.LFE798:
 3304              		.weak	_ZN74TEST_hsm_build_Should_InitializeInvalidHsmHandle_When_NoTopStateGiven_TestD1Ev
 3305              		.set	_ZN74TEST_hsm_build_Should_InitializeInvalidHsmHandle_When_NoTopStateGiven_TestD1Ev,_ZN74TEST
 3306              		.section	.text._ZN74TEST_hsm_build_Should_InitializeInvalidHsmHandle_When_NoTopStateGiven_TestD0Ev
 3307              		.align 2
 3308              		.weak	_ZN74TEST_hsm_build_Should_InitializeInvalidHsmHandle_When_NoTopStateGiven_TestD0Ev
 3310              	_ZN74TEST_hsm_build_Should_InitializeInvalidHsmHandle_When_NoTopStateGiven_TestD0Ev:
 3311              	.LFB800:
 3312              		.cfi_startproc
GAS LISTING /tmp/ccj7sGND.s 			page 69


 3313 0000 55       		pushq	%rbp
 3314              		.cfi_def_cfa_offset 16
 3315              		.cfi_offset 6, -16
 3316 0001 4889E5   		movq	%rsp, %rbp
 3317              		.cfi_def_cfa_register 6
 3318 0004 4883EC10 		subq	$16, %rsp
 3319 0008 48897DF8 		movq	%rdi, -8(%rbp)
 3320 000c 488B45F8 		movq	-8(%rbp), %rax
 3321 0010 4889C7   		movq	%rax, %rdi
 3322 0013 E8000000 		call	_ZN74TEST_hsm_build_Should_InitializeInvalidHsmHandle_When_NoTopStateGiven_TestD1Ev
 3322      00
 3323 0018 488B45F8 		movq	-8(%rbp), %rax
 3324 001c 4889C7   		movq	%rax, %rdi
 3325 001f E8000000 		call	_ZdlPv
 3325      00
 3326 0024 C9       		leave
 3327              		.cfi_def_cfa 7, 8
 3328 0025 C3       		ret
 3329              		.cfi_endproc
 3330              	.LFE800:
 3332              		.weak	_ZTV79TEST_hsm_build_Should_InitializeInvalidHsmHandle_When_NoTopStateGiven_TestShell
 3333              		.section	.rodata._ZTV79TEST_hsm_build_Should_InitializeInvalidHsmHandle_When_NoTopStateGiven_TestS
 3334              		.align 8
 3337              	_ZTV79TEST_hsm_build_Should_InitializeInvalidHsmHandle_When_NoTopStateGiven_TestShell:
 3338 0000 00000000 		.quad	0
 3338      00000000 
 3339 0008 00000000 		.quad	_ZTI79TEST_hsm_build_Should_InitializeInvalidHsmHandle_When_NoTopStateGiven_TestShell
 3339      00000000 
 3340 0010 00000000 		.quad	_ZN79TEST_hsm_build_Should_InitializeInvalidHsmHandle_When_NoTopStateGiven_TestShellD1Ev
 3340      00000000 
 3341 0018 00000000 		.quad	_ZN79TEST_hsm_build_Should_InitializeInvalidHsmHandle_When_NoTopStateGiven_TestShellD0Ev
 3341      00000000 
 3342 0020 00000000 		.quad	_ZN10UtestShell7addTestEPS_
 3342      00000000 
 3343 0028 00000000 		.quad	_ZNK10UtestShell7getNextEv
 3343      00000000 
 3344 0030 00000000 		.quad	_ZN10UtestShell10countTestsEv
 3344      00000000 
 3345 0038 00000000 		.quad	_ZNK10UtestShell16getFormattedNameEv
 3345      00000000 
 3346 0040 00000000 		.quad	_ZNK10UtestShell7willRunEv
 3346      00000000 
 3347 0048 00000000 		.quad	_ZNK10UtestShell9hasFailedEv
 3347      00000000 
 3348 0050 00000000 		.quad	_ZN10UtestShell10assertTrueEbPKcS1_S1_iRK14TestTerminator
 3348      00000000 
 3349 0058 00000000 		.quad	_ZN10UtestShell14assertTrueTextEbPKcS1_S1_S1_iRK14TestTerminator
 3349      00000000 
 3350 0060 00000000 		.quad	_ZN10UtestShell15assertCstrEqualEPKcS1_S1_iRK14TestTerminator
 3350      00000000 
 3351 0068 00000000 		.quad	_ZN10UtestShell16assertCstrNEqualEPKcS1_mS1_iRK14TestTerminator
 3351      00000000 
 3352 0070 00000000 		.quad	_ZN10UtestShell21assertCstrNoCaseEqualEPKcS1_S1_i
 3352      00000000 
 3353 0078 00000000 		.quad	_ZN10UtestShell18assertCstrContainsEPKcS1_S1_i
 3353      00000000 
 3354 0080 00000000 		.quad	_ZN10UtestShell24assertCstrNoCaseContainsEPKcS1_S1_i
GAS LISTING /tmp/ccj7sGND.s 			page 70


 3354      00000000 
 3355 0088 00000000 		.quad	_ZN10UtestShell16assertLongsEqualEllPKciRK14TestTerminator
 3355      00000000 
 3356 0090 00000000 		.quad	_ZN10UtestShell24assertUnsignedLongsEqualEmmPKciRK14TestTerminator
 3356      00000000 
 3357 0098 00000000 		.quad	_ZN10UtestShell19assertPointersEqualEPKvS1_PKci
 3357      00000000 
 3358 00a0 00000000 		.quad	_ZN10UtestShell18assertDoublesEqualEdddPKciRK14TestTerminator
 3358      00000000 
 3359 00a8 00000000 		.quad	_ZN10UtestShell12assertEqualsEbPKcS1_S1_iRK14TestTerminator
 3359      00000000 
 3360 00b0 00000000 		.quad	_ZN10UtestShell17assertBinaryEqualEPKvS1_mPKciRK14TestTerminator
 3360      00000000 
 3361 00b8 00000000 		.quad	_ZN10UtestShell4failEPKcS1_iRK14TestTerminator
 3361      00000000 
 3362 00c0 00000000 		.quad	_ZN10UtestShell5printEPKcS1_i
 3362      00000000 
 3363 00c8 00000000 		.quad	_ZN10UtestShell5printERK12SimpleStringPKci
 3363      00000000 
 3364 00d0 00000000 		.quad	_ZNK10UtestShell22isRunInSeperateProcessEv
 3364      00000000 
 3365 00d8 00000000 		.quad	_ZN10UtestShell23setRunInSeperateProcessEv
 3365      00000000 
 3366 00e0 00000000 		.quad	_ZN79TEST_hsm_build_Should_InitializeInvalidHsmHandle_When_NoTopStateGiven_TestShell10create
 3366      00000000 
 3367 00e8 00000000 		.quad	_ZN10UtestShell11destroyTestEP5Utest
 3367      00000000 
 3368 00f0 00000000 		.quad	_ZN10UtestShell10runOneTestEP10TestPluginR10TestResult
 3368      00000000 
 3369 00f8 00000000 		.quad	_ZN10UtestShell26runOneTestInCurrentProcessEP10TestPluginR10TestResult
 3369      00000000 
 3370 0100 00000000 		.quad	_ZN10UtestShell8failWithERK11TestFailure
 3370      00000000 
 3371 0108 00000000 		.quad	_ZN10UtestShell8failWithERK11TestFailureRK14TestTerminator
 3371      00000000 
 3372 0110 00000000 		.quad	_ZNK10UtestShell12getMacroNameEv
 3372      00000000 
 3373              		.section	.text._ZN79TEST_hsm_build_Should_InitializeInvalidHsmHandle_When_NoTopStateGiven_TestShel
 3374              		.align 2
 3375              		.weak	_ZN79TEST_hsm_build_Should_InitializeInvalidHsmHandle_When_NoTopStateGiven_TestShellD2Ev
 3377              	_ZN79TEST_hsm_build_Should_InitializeInvalidHsmHandle_When_NoTopStateGiven_TestShellD2Ev:
 3378              	.LFB802:
 3379              		.cfi_startproc
 3380 0000 55       		pushq	%rbp
 3381              		.cfi_def_cfa_offset 16
 3382              		.cfi_offset 6, -16
 3383 0001 4889E5   		movq	%rsp, %rbp
 3384              		.cfi_def_cfa_register 6
 3385 0004 4883EC10 		subq	$16, %rsp
 3386 0008 48897DF8 		movq	%rdi, -8(%rbp)
 3387 000c BA000000 		movl	$_ZTV79TEST_hsm_build_Should_InitializeInvalidHsmHandle_When_NoTopStateGiven_TestShell+16, %e
 3387      00
 3388 0011 488B45F8 		movq	-8(%rbp), %rax
 3389 0015 488910   		movq	%rdx, (%rax)
 3390 0018 488B45F8 		movq	-8(%rbp), %rax
 3391 001c 4889C7   		movq	%rax, %rdi
 3392 001f E8000000 		call	_ZN10UtestShellD2Ev
GAS LISTING /tmp/ccj7sGND.s 			page 71


 3392      00
 3393 0024 B8000000 		movl	$0, %eax
 3393      00
 3394 0029 85C0     		testl	%eax, %eax
 3395 002b 740C     		je	.L126
 3396 002d 488B45F8 		movq	-8(%rbp), %rax
 3397 0031 4889C7   		movq	%rax, %rdi
 3398 0034 E8000000 		call	_ZdlPv
 3398      00
 3399              	.L126:
 3400 0039 C9       		leave
 3401              		.cfi_def_cfa 7, 8
 3402 003a C3       		ret
 3403              		.cfi_endproc
 3404              	.LFE802:
 3406              		.weak	_ZN79TEST_hsm_build_Should_InitializeInvalidHsmHandle_When_NoTopStateGiven_TestShellD1Ev
 3407              		.set	_ZN79TEST_hsm_build_Should_InitializeInvalidHsmHandle_When_NoTopStateGiven_TestShellD1Ev,_ZN7
 3408              		.section	.text._ZN79TEST_hsm_build_Should_InitializeInvalidHsmHandle_When_NoTopStateGiven_TestShel
 3409              		.align 2
 3410              		.weak	_ZN79TEST_hsm_build_Should_InitializeInvalidHsmHandle_When_NoTopStateGiven_TestShellD0Ev
 3412              	_ZN79TEST_hsm_build_Should_InitializeInvalidHsmHandle_When_NoTopStateGiven_TestShellD0Ev:
 3413              	.LFB804:
 3414              		.cfi_startproc
 3415 0000 55       		pushq	%rbp
 3416              		.cfi_def_cfa_offset 16
 3417              		.cfi_offset 6, -16
 3418 0001 4889E5   		movq	%rsp, %rbp
 3419              		.cfi_def_cfa_register 6
 3420 0004 4883EC10 		subq	$16, %rsp
 3421 0008 48897DF8 		movq	%rdi, -8(%rbp)
 3422 000c 488B45F8 		movq	-8(%rbp), %rax
 3423 0010 4889C7   		movq	%rax, %rdi
 3424 0013 E8000000 		call	_ZN79TEST_hsm_build_Should_InitializeInvalidHsmHandle_When_NoTopStateGiven_TestShellD1Ev
 3424      00
 3425 0018 488B45F8 		movq	-8(%rbp), %rax
 3426 001c 4889C7   		movq	%rax, %rdi
 3427 001f E8000000 		call	_ZdlPv
 3427      00
 3428 0024 C9       		leave
 3429              		.cfi_def_cfa 7, 8
 3430 0025 C3       		ret
 3431              		.cfi_endproc
 3432              	.LFE804:
 3434              		.weak	_ZTV79TEST_hsm_build_Should_InitializeValidHsmHandle_When_ValidInitialStateGiven_Test
 3435              		.section	.rodata._ZTV79TEST_hsm_build_Should_InitializeValidHsmHandle_When_ValidInitialStateGiven_
 3436              		.align 8
 3439              	_ZTV79TEST_hsm_build_Should_InitializeValidHsmHandle_When_ValidInitialStateGiven_Test:
 3440 0000 00000000 		.quad	0
 3440      00000000 
 3441 0008 00000000 		.quad	_ZTI79TEST_hsm_build_Should_InitializeValidHsmHandle_When_ValidInitialStateGiven_Test
 3441      00000000 
 3442 0010 00000000 		.quad	_ZN79TEST_hsm_build_Should_InitializeValidHsmHandle_When_ValidInitialStateGiven_TestD1Ev
 3442      00000000 
 3443 0018 00000000 		.quad	_ZN79TEST_hsm_build_Should_InitializeValidHsmHandle_When_ValidInitialStateGiven_TestD0Ev
 3443      00000000 
 3444 0020 00000000 		.quad	_ZN5Utest3runEv
 3444      00000000 
GAS LISTING /tmp/ccj7sGND.s 			page 72


 3445 0028 00000000 		.quad	_ZN33TEST_GROUP_CppUTestGrouphsm_build5setupEv
 3445      00000000 
 3446 0030 00000000 		.quad	_ZN33TEST_GROUP_CppUTestGrouphsm_build8teardownEv
 3446      00000000 
 3447 0038 00000000 		.quad	_ZN79TEST_hsm_build_Should_InitializeValidHsmHandle_When_ValidInitialStateGiven_Test8testBod
 3447      00000000 
 3448              		.section	.text._ZN79TEST_hsm_build_Should_InitializeValidHsmHandle_When_ValidInitialStateGiven_Tes
 3449              		.align 2
 3450              		.weak	_ZN79TEST_hsm_build_Should_InitializeValidHsmHandle_When_ValidInitialStateGiven_TestD2Ev
 3452              	_ZN79TEST_hsm_build_Should_InitializeValidHsmHandle_When_ValidInitialStateGiven_TestD2Ev:
 3453              	.LFB806:
 3454              		.cfi_startproc
 3455 0000 55       		pushq	%rbp
 3456              		.cfi_def_cfa_offset 16
 3457              		.cfi_offset 6, -16
 3458 0001 4889E5   		movq	%rsp, %rbp
 3459              		.cfi_def_cfa_register 6
 3460 0004 4883EC10 		subq	$16, %rsp
 3461 0008 48897DF8 		movq	%rdi, -8(%rbp)
 3462 000c BA000000 		movl	$_ZTV79TEST_hsm_build_Should_InitializeValidHsmHandle_When_ValidInitialStateGiven_Test+16, %e
 3462      00
 3463 0011 488B45F8 		movq	-8(%rbp), %rax
 3464 0015 488910   		movq	%rdx, (%rax)
 3465 0018 488B45F8 		movq	-8(%rbp), %rax
 3466 001c 4889C7   		movq	%rax, %rdi
 3467 001f E8000000 		call	_ZN33TEST_GROUP_CppUTestGrouphsm_buildD2Ev
 3467      00
 3468 0024 B8000000 		movl	$0, %eax
 3468      00
 3469 0029 85C0     		testl	%eax, %eax
 3470 002b 740C     		je	.L129
 3471 002d 488B45F8 		movq	-8(%rbp), %rax
 3472 0031 4889C7   		movq	%rax, %rdi
 3473 0034 E8000000 		call	_ZdlPv
 3473      00
 3474              	.L129:
 3475 0039 C9       		leave
 3476              		.cfi_def_cfa 7, 8
 3477 003a C3       		ret
 3478              		.cfi_endproc
 3479              	.LFE806:
 3481              		.weak	_ZN79TEST_hsm_build_Should_InitializeValidHsmHandle_When_ValidInitialStateGiven_TestD1Ev
 3482              		.set	_ZN79TEST_hsm_build_Should_InitializeValidHsmHandle_When_ValidInitialStateGiven_TestD1Ev,_ZN7
 3483              		.section	.text._ZN79TEST_hsm_build_Should_InitializeValidHsmHandle_When_ValidInitialStateGiven_Tes
 3484              		.align 2
 3485              		.weak	_ZN79TEST_hsm_build_Should_InitializeValidHsmHandle_When_ValidInitialStateGiven_TestD0Ev
 3487              	_ZN79TEST_hsm_build_Should_InitializeValidHsmHandle_When_ValidInitialStateGiven_TestD0Ev:
 3488              	.LFB808:
 3489              		.cfi_startproc
 3490 0000 55       		pushq	%rbp
 3491              		.cfi_def_cfa_offset 16
 3492              		.cfi_offset 6, -16
 3493 0001 4889E5   		movq	%rsp, %rbp
 3494              		.cfi_def_cfa_register 6
 3495 0004 4883EC10 		subq	$16, %rsp
 3496 0008 48897DF8 		movq	%rdi, -8(%rbp)
 3497 000c 488B45F8 		movq	-8(%rbp), %rax
GAS LISTING /tmp/ccj7sGND.s 			page 73


 3498 0010 4889C7   		movq	%rax, %rdi
 3499 0013 E8000000 		call	_ZN79TEST_hsm_build_Should_InitializeValidHsmHandle_When_ValidInitialStateGiven_TestD1Ev
 3499      00
 3500 0018 488B45F8 		movq	-8(%rbp), %rax
 3501 001c 4889C7   		movq	%rax, %rdi
 3502 001f E8000000 		call	_ZdlPv
 3502      00
 3503 0024 C9       		leave
 3504              		.cfi_def_cfa 7, 8
 3505 0025 C3       		ret
 3506              		.cfi_endproc
 3507              	.LFE808:
 3509              		.weak	_ZTV84TEST_hsm_build_Should_InitializeValidHsmHandle_When_ValidInitialStateGiven_TestShell
 3510              		.section	.rodata._ZTV84TEST_hsm_build_Should_InitializeValidHsmHandle_When_ValidInitialStateGiven_
 3511              		.align 8
 3514              	_ZTV84TEST_hsm_build_Should_InitializeValidHsmHandle_When_ValidInitialStateGiven_TestShell:
 3515 0000 00000000 		.quad	0
 3515      00000000 
 3516 0008 00000000 		.quad	_ZTI84TEST_hsm_build_Should_InitializeValidHsmHandle_When_ValidInitialStateGiven_TestShell
 3516      00000000 
 3517 0010 00000000 		.quad	_ZN84TEST_hsm_build_Should_InitializeValidHsmHandle_When_ValidInitialStateGiven_TestShellD1E
 3517      00000000 
 3518 0018 00000000 		.quad	_ZN84TEST_hsm_build_Should_InitializeValidHsmHandle_When_ValidInitialStateGiven_TestShellD0E
 3518      00000000 
 3519 0020 00000000 		.quad	_ZN10UtestShell7addTestEPS_
 3519      00000000 
 3520 0028 00000000 		.quad	_ZNK10UtestShell7getNextEv
 3520      00000000 
 3521 0030 00000000 		.quad	_ZN10UtestShell10countTestsEv
 3521      00000000 
 3522 0038 00000000 		.quad	_ZNK10UtestShell16getFormattedNameEv
 3522      00000000 
 3523 0040 00000000 		.quad	_ZNK10UtestShell7willRunEv
 3523      00000000 
 3524 0048 00000000 		.quad	_ZNK10UtestShell9hasFailedEv
 3524      00000000 
 3525 0050 00000000 		.quad	_ZN10UtestShell10assertTrueEbPKcS1_S1_iRK14TestTerminator
 3525      00000000 
 3526 0058 00000000 		.quad	_ZN10UtestShell14assertTrueTextEbPKcS1_S1_S1_iRK14TestTerminator
 3526      00000000 
 3527 0060 00000000 		.quad	_ZN10UtestShell15assertCstrEqualEPKcS1_S1_iRK14TestTerminator
 3527      00000000 
 3528 0068 00000000 		.quad	_ZN10UtestShell16assertCstrNEqualEPKcS1_mS1_iRK14TestTerminator
 3528      00000000 
 3529 0070 00000000 		.quad	_ZN10UtestShell21assertCstrNoCaseEqualEPKcS1_S1_i
 3529      00000000 
 3530 0078 00000000 		.quad	_ZN10UtestShell18assertCstrContainsEPKcS1_S1_i
 3530      00000000 
 3531 0080 00000000 		.quad	_ZN10UtestShell24assertCstrNoCaseContainsEPKcS1_S1_i
 3531      00000000 
 3532 0088 00000000 		.quad	_ZN10UtestShell16assertLongsEqualEllPKciRK14TestTerminator
 3532      00000000 
 3533 0090 00000000 		.quad	_ZN10UtestShell24assertUnsignedLongsEqualEmmPKciRK14TestTerminator
 3533      00000000 
 3534 0098 00000000 		.quad	_ZN10UtestShell19assertPointersEqualEPKvS1_PKci
 3534      00000000 
 3535 00a0 00000000 		.quad	_ZN10UtestShell18assertDoublesEqualEdddPKciRK14TestTerminator
GAS LISTING /tmp/ccj7sGND.s 			page 74


 3535      00000000 
 3536 00a8 00000000 		.quad	_ZN10UtestShell12assertEqualsEbPKcS1_S1_iRK14TestTerminator
 3536      00000000 
 3537 00b0 00000000 		.quad	_ZN10UtestShell17assertBinaryEqualEPKvS1_mPKciRK14TestTerminator
 3537      00000000 
 3538 00b8 00000000 		.quad	_ZN10UtestShell4failEPKcS1_iRK14TestTerminator
 3538      00000000 
 3539 00c0 00000000 		.quad	_ZN10UtestShell5printEPKcS1_i
 3539      00000000 
 3540 00c8 00000000 		.quad	_ZN10UtestShell5printERK12SimpleStringPKci
 3540      00000000 
 3541 00d0 00000000 		.quad	_ZNK10UtestShell22isRunInSeperateProcessEv
 3541      00000000 
 3542 00d8 00000000 		.quad	_ZN10UtestShell23setRunInSeperateProcessEv
 3542      00000000 
 3543 00e0 00000000 		.quad	_ZN84TEST_hsm_build_Should_InitializeValidHsmHandle_When_ValidInitialStateGiven_TestShell10c
 3543      00000000 
 3544 00e8 00000000 		.quad	_ZN10UtestShell11destroyTestEP5Utest
 3544      00000000 
 3545 00f0 00000000 		.quad	_ZN10UtestShell10runOneTestEP10TestPluginR10TestResult
 3545      00000000 
 3546 00f8 00000000 		.quad	_ZN10UtestShell26runOneTestInCurrentProcessEP10TestPluginR10TestResult
 3546      00000000 
 3547 0100 00000000 		.quad	_ZN10UtestShell8failWithERK11TestFailure
 3547      00000000 
 3548 0108 00000000 		.quad	_ZN10UtestShell8failWithERK11TestFailureRK14TestTerminator
 3548      00000000 
 3549 0110 00000000 		.quad	_ZNK10UtestShell12getMacroNameEv
 3549      00000000 
 3550              		.section	.text._ZN84TEST_hsm_build_Should_InitializeValidHsmHandle_When_ValidInitialStateGiven_Tes
 3551              		.align 2
 3552              		.weak	_ZN84TEST_hsm_build_Should_InitializeValidHsmHandle_When_ValidInitialStateGiven_TestShellD2E
 3554              	_ZN84TEST_hsm_build_Should_InitializeValidHsmHandle_When_ValidInitialStateGiven_TestShellD2Ev:
 3555              	.LFB810:
 3556              		.cfi_startproc
 3557 0000 55       		pushq	%rbp
 3558              		.cfi_def_cfa_offset 16
 3559              		.cfi_offset 6, -16
 3560 0001 4889E5   		movq	%rsp, %rbp
 3561              		.cfi_def_cfa_register 6
 3562 0004 4883EC10 		subq	$16, %rsp
 3563 0008 48897DF8 		movq	%rdi, -8(%rbp)
 3564 000c BA000000 		movl	$_ZTV84TEST_hsm_build_Should_InitializeValidHsmHandle_When_ValidInitialStateGiven_TestShell+1
 3564      00
 3565 0011 488B45F8 		movq	-8(%rbp), %rax
 3566 0015 488910   		movq	%rdx, (%rax)
 3567 0018 488B45F8 		movq	-8(%rbp), %rax
 3568 001c 4889C7   		movq	%rax, %rdi
 3569 001f E8000000 		call	_ZN10UtestShellD2Ev
 3569      00
 3570 0024 B8000000 		movl	$0, %eax
 3570      00
 3571 0029 85C0     		testl	%eax, %eax
 3572 002b 740C     		je	.L132
 3573 002d 488B45F8 		movq	-8(%rbp), %rax
 3574 0031 4889C7   		movq	%rax, %rdi
 3575 0034 E8000000 		call	_ZdlPv
GAS LISTING /tmp/ccj7sGND.s 			page 75


 3575      00
 3576              	.L132:
 3577 0039 C9       		leave
 3578              		.cfi_def_cfa 7, 8
 3579 003a C3       		ret
 3580              		.cfi_endproc
 3581              	.LFE810:
 3583              		.weak	_ZN84TEST_hsm_build_Should_InitializeValidHsmHandle_When_ValidInitialStateGiven_TestShellD1E
 3584              		.set	_ZN84TEST_hsm_build_Should_InitializeValidHsmHandle_When_ValidInitialStateGiven_TestShellD1Ev
 3585              		.section	.text._ZN84TEST_hsm_build_Should_InitializeValidHsmHandle_When_ValidInitialStateGiven_Tes
 3586              		.align 2
 3587              		.weak	_ZN84TEST_hsm_build_Should_InitializeValidHsmHandle_When_ValidInitialStateGiven_TestShellD0E
 3589              	_ZN84TEST_hsm_build_Should_InitializeValidHsmHandle_When_ValidInitialStateGiven_TestShellD0Ev:
 3590              	.LFB812:
 3591              		.cfi_startproc
 3592 0000 55       		pushq	%rbp
 3593              		.cfi_def_cfa_offset 16
 3594              		.cfi_offset 6, -16
 3595 0001 4889E5   		movq	%rsp, %rbp
 3596              		.cfi_def_cfa_register 6
 3597 0004 4883EC10 		subq	$16, %rsp
 3598 0008 48897DF8 		movq	%rdi, -8(%rbp)
 3599 000c 488B45F8 		movq	-8(%rbp), %rax
 3600 0010 4889C7   		movq	%rax, %rdi
 3601 0013 E8000000 		call	_ZN84TEST_hsm_build_Should_InitializeValidHsmHandle_When_ValidInitialStateGiven_TestShellD1Ev
 3601      00
 3602 0018 488B45F8 		movq	-8(%rbp), %rax
 3603 001c 4889C7   		movq	%rax, %rdi
 3604 001f E8000000 		call	_ZdlPv
 3604      00
 3605 0024 C9       		leave
 3606              		.cfi_def_cfa 7, 8
 3607 0025 C3       		ret
 3608              		.cfi_endproc
 3609              	.LFE812:
 3611              		.weak	_ZTV33TEST_GROUP_CppUTestGrouphsm_build
 3612              		.section	.rodata._ZTV33TEST_GROUP_CppUTestGrouphsm_build,"aG",@progbits,_ZTV33TEST_GROUP_CppUTestG
 3613              		.align 8
 3616              	_ZTV33TEST_GROUP_CppUTestGrouphsm_build:
 3617 0000 00000000 		.quad	0
 3617      00000000 
 3618 0008 00000000 		.quad	_ZTI33TEST_GROUP_CppUTestGrouphsm_build
 3618      00000000 
 3619 0010 00000000 		.quad	_ZN33TEST_GROUP_CppUTestGrouphsm_buildD1Ev
 3619      00000000 
 3620 0018 00000000 		.quad	_ZN33TEST_GROUP_CppUTestGrouphsm_buildD0Ev
 3620      00000000 
 3621 0020 00000000 		.quad	_ZN5Utest3runEv
 3621      00000000 
 3622 0028 00000000 		.quad	_ZN33TEST_GROUP_CppUTestGrouphsm_build5setupEv
 3622      00000000 
 3623 0030 00000000 		.quad	_ZN33TEST_GROUP_CppUTestGrouphsm_build8teardownEv
 3623      00000000 
 3624 0038 00000000 		.quad	_ZN5Utest8testBodyEv
 3624      00000000 
 3625              		.weak	_ZTI81TEST_hsm_build_Should_InitializeInvalidHsmHandle_When_NothingGivenGiven_TestShell
 3626              		.section	.rodata._ZTI81TEST_hsm_build_Should_InitializeInvalidHsmHandle_When_NothingGivenGiven_Tes
GAS LISTING /tmp/ccj7sGND.s 			page 76


 3627              		.align 8
 3630              	_ZTI81TEST_hsm_build_Should_InitializeInvalidHsmHandle_When_NothingGivenGiven_TestShell:
 3631 0000 00000000 		.quad	_ZTVN10__cxxabiv120__si_class_type_infoE+16
 3631      00000000 
 3632 0008 00000000 		.quad	_ZTS81TEST_hsm_build_Should_InitializeInvalidHsmHandle_When_NothingGivenGiven_TestShell
 3632      00000000 
 3633 0010 00000000 		.quad	_ZTI10UtestShell
 3633      00000000 
 3634              		.weak	_ZTS81TEST_hsm_build_Should_InitializeInvalidHsmHandle_When_NothingGivenGiven_TestShell
 3635              		.section	.rodata._ZTS81TEST_hsm_build_Should_InitializeInvalidHsmHandle_When_NothingGivenGiven_Tes
 3636              		.align 32
 3639              	_ZTS81TEST_hsm_build_Should_InitializeInvalidHsmHandle_When_NothingGivenGiven_TestShell:
 3640 0000 38315445 		.string	"81TEST_hsm_build_Should_InitializeInvalidHsmHandle_When_NothingGivenGiven_TestShell"
 3640      53545F68 
 3640      736D5F62 
 3640      75696C64 
 3640      5F53686F 
 3641              		.weak	_ZTI76TEST_hsm_build_Should_InitializeInvalidHsmHandle_When_NothingGivenGiven_Test
 3642              		.section	.rodata._ZTI76TEST_hsm_build_Should_InitializeInvalidHsmHandle_When_NothingGivenGiven_Tes
 3643              		.align 8
 3646              	_ZTI76TEST_hsm_build_Should_InitializeInvalidHsmHandle_When_NothingGivenGiven_Test:
 3647 0000 00000000 		.quad	_ZTVN10__cxxabiv120__si_class_type_infoE+16
 3647      00000000 
 3648 0008 00000000 		.quad	_ZTS76TEST_hsm_build_Should_InitializeInvalidHsmHandle_When_NothingGivenGiven_Test
 3648      00000000 
 3649 0010 00000000 		.quad	_ZTI33TEST_GROUP_CppUTestGrouphsm_build
 3649      00000000 
 3650              		.weak	_ZTS76TEST_hsm_build_Should_InitializeInvalidHsmHandle_When_NothingGivenGiven_Test
 3651              		.section	.rodata._ZTS76TEST_hsm_build_Should_InitializeInvalidHsmHandle_When_NothingGivenGiven_Tes
 3652              		.align 32
 3655              	_ZTS76TEST_hsm_build_Should_InitializeInvalidHsmHandle_When_NothingGivenGiven_Test:
 3656 0000 37365445 		.string	"76TEST_hsm_build_Should_InitializeInvalidHsmHandle_When_NothingGivenGiven_Test"
 3656      53545F68 
 3656      736D5F62 
 3656      75696C64 
 3656      5F53686F 
 3657              		.weak	_ZTI102TEST_hsm_build_Should_InitializeInvalidHsmHandle_When_NoStateListAndNoNumberOfStateLi
 3658              		.section	.rodata._ZTI102TEST_hsm_build_Should_InitializeInvalidHsmHandle_When_NoStateListAndNoNumb
 3659              		.align 8
 3662              	_ZTI102TEST_hsm_build_Should_InitializeInvalidHsmHandle_When_NoStateListAndNoNumberOfStateListGiven
 3663 0000 00000000 		.quad	_ZTVN10__cxxabiv120__si_class_type_infoE+16
 3663      00000000 
 3664 0008 00000000 		.quad	_ZTS102TEST_hsm_build_Should_InitializeInvalidHsmHandle_When_NoStateListAndNoNumberOfStateLi
 3664      00000000 
 3665 0010 00000000 		.quad	_ZTI10UtestShell
 3665      00000000 
 3666              		.weak	_ZTS102TEST_hsm_build_Should_InitializeInvalidHsmHandle_When_NoStateListAndNoNumberOfStateLi
 3667              		.section	.rodata._ZTS102TEST_hsm_build_Should_InitializeInvalidHsmHandle_When_NoStateListAndNoNumb
 3668              		.align 32
 3671              	_ZTS102TEST_hsm_build_Should_InitializeInvalidHsmHandle_When_NoStateListAndNoNumberOfStateListGiven
 3672 0000 31303254 		.string	"102TEST_hsm_build_Should_InitializeInvalidHsmHandle_When_NoStateListAndNoNumberOfStateLis
 3672      4553545F 
 3672      68736D5F 
 3672      6275696C 
 3672      645F5368 
 3673              		.weak	_ZTI97TEST_hsm_build_Should_InitializeInvalidHsmHandle_When_NoStateListAndNoNumberOfStateLis
 3674              		.section	.rodata._ZTI97TEST_hsm_build_Should_InitializeInvalidHsmHandle_When_NoStateListAndNoNumbe
GAS LISTING /tmp/ccj7sGND.s 			page 77


 3675              		.align 8
 3678              	_ZTI97TEST_hsm_build_Should_InitializeInvalidHsmHandle_When_NoStateListAndNoNumberOfStateListGiven_
 3679 0000 00000000 		.quad	_ZTVN10__cxxabiv120__si_class_type_infoE+16
 3679      00000000 
 3680 0008 00000000 		.quad	_ZTS97TEST_hsm_build_Should_InitializeInvalidHsmHandle_When_NoStateListAndNoNumberOfStateLis
 3680      00000000 
 3681 0010 00000000 		.quad	_ZTI33TEST_GROUP_CppUTestGrouphsm_build
 3681      00000000 
 3682              		.weak	_ZTS97TEST_hsm_build_Should_InitializeInvalidHsmHandle_When_NoStateListAndNoNumberOfStateLis
 3683              		.section	.rodata._ZTS97TEST_hsm_build_Should_InitializeInvalidHsmHandle_When_NoStateListAndNoNumbe
 3684              		.align 32
 3687              	_ZTS97TEST_hsm_build_Should_InitializeInvalidHsmHandle_When_NoStateListAndNoNumberOfStateListGiven_
 3688 0000 39375445 		.string	"97TEST_hsm_build_Should_InitializeInvalidHsmHandle_When_NoStateListAndNoNumberOfStateList
 3688      53545F68 
 3688      736D5F62 
 3688      75696C64 
 3688      5F53686F 
 3689              		.weak	_ZTI88TEST_hsm_build_Should_InitializeInvalidHsmHandle_When_NoNumberOfStateListGiven_TestShe
 3690              		.section	.rodata._ZTI88TEST_hsm_build_Should_InitializeInvalidHsmHandle_When_NoNumberOfStateListGi
 3691              		.align 8
 3694              	_ZTI88TEST_hsm_build_Should_InitializeInvalidHsmHandle_When_NoNumberOfStateListGiven_TestShell:
 3695 0000 00000000 		.quad	_ZTVN10__cxxabiv120__si_class_type_infoE+16
 3695      00000000 
 3696 0008 00000000 		.quad	_ZTS88TEST_hsm_build_Should_InitializeInvalidHsmHandle_When_NoNumberOfStateListGiven_TestShe
 3696      00000000 
 3697 0010 00000000 		.quad	_ZTI10UtestShell
 3697      00000000 
 3698              		.weak	_ZTS88TEST_hsm_build_Should_InitializeInvalidHsmHandle_When_NoNumberOfStateListGiven_TestShe
 3699              		.section	.rodata._ZTS88TEST_hsm_build_Should_InitializeInvalidHsmHandle_When_NoNumberOfStateListGi
 3700              		.align 32
 3703              	_ZTS88TEST_hsm_build_Should_InitializeInvalidHsmHandle_When_NoNumberOfStateListGiven_TestShell:
 3704 0000 38385445 		.string	"88TEST_hsm_build_Should_InitializeInvalidHsmHandle_When_NoNumberOfStateListGiven_TestShel
 3704      53545F68 
 3704      736D5F62 
 3704      75696C64 
 3704      5F53686F 
 3705              		.weak	_ZTI83TEST_hsm_build_Should_InitializeInvalidHsmHandle_When_NoNumberOfStateListGiven_Test
 3706              		.section	.rodata._ZTI83TEST_hsm_build_Should_InitializeInvalidHsmHandle_When_NoNumberOfStateListGi
 3707              		.align 8
 3710              	_ZTI83TEST_hsm_build_Should_InitializeInvalidHsmHandle_When_NoNumberOfStateListGiven_Test:
 3711 0000 00000000 		.quad	_ZTVN10__cxxabiv120__si_class_type_infoE+16
 3711      00000000 
 3712 0008 00000000 		.quad	_ZTS83TEST_hsm_build_Should_InitializeInvalidHsmHandle_When_NoNumberOfStateListGiven_Test
 3712      00000000 
 3713 0010 00000000 		.quad	_ZTI33TEST_GROUP_CppUTestGrouphsm_build
 3713      00000000 
 3714              		.weak	_ZTS83TEST_hsm_build_Should_InitializeInvalidHsmHandle_When_NoNumberOfStateListGiven_Test
 3715              		.section	.rodata._ZTS83TEST_hsm_build_Should_InitializeInvalidHsmHandle_When_NoNumberOfStateListGi
 3716              		.align 32
 3719              	_ZTS83TEST_hsm_build_Should_InitializeInvalidHsmHandle_When_NoNumberOfStateListGiven_Test:
 3720 0000 38335445 		.string	"83TEST_hsm_build_Should_InitializeInvalidHsmHandle_When_NoNumberOfStateListGiven_Test"
 3720      53545F68 
 3720      736D5F62 
 3720      75696C64 
 3720      5F53686F 
 3721              		.weak	_ZTI80TEST_hsm_build_Should_InitializeInvalidHsmHandle_When_NoStateListGiven_TestShell
 3722              		.section	.rodata._ZTI80TEST_hsm_build_Should_InitializeInvalidHsmHandle_When_NoStateListGiven_Test
GAS LISTING /tmp/ccj7sGND.s 			page 78


 3723              		.align 8
 3726              	_ZTI80TEST_hsm_build_Should_InitializeInvalidHsmHandle_When_NoStateListGiven_TestShell:
 3727 0000 00000000 		.quad	_ZTVN10__cxxabiv120__si_class_type_infoE+16
 3727      00000000 
 3728 0008 00000000 		.quad	_ZTS80TEST_hsm_build_Should_InitializeInvalidHsmHandle_When_NoStateListGiven_TestShell
 3728      00000000 
 3729 0010 00000000 		.quad	_ZTI10UtestShell
 3729      00000000 
 3730              		.weak	_ZTS80TEST_hsm_build_Should_InitializeInvalidHsmHandle_When_NoStateListGiven_TestShell
 3731              		.section	.rodata._ZTS80TEST_hsm_build_Should_InitializeInvalidHsmHandle_When_NoStateListGiven_Test
 3732              		.align 32
 3735              	_ZTS80TEST_hsm_build_Should_InitializeInvalidHsmHandle_When_NoStateListGiven_TestShell:
 3736 0000 38305445 		.string	"80TEST_hsm_build_Should_InitializeInvalidHsmHandle_When_NoStateListGiven_TestShell"
 3736      53545F68 
 3736      736D5F62 
 3736      75696C64 
 3736      5F53686F 
 3737              		.weak	_ZTI75TEST_hsm_build_Should_InitializeInvalidHsmHandle_When_NoStateListGiven_Test
 3738              		.section	.rodata._ZTI75TEST_hsm_build_Should_InitializeInvalidHsmHandle_When_NoStateListGiven_Test
 3739              		.align 8
 3742              	_ZTI75TEST_hsm_build_Should_InitializeInvalidHsmHandle_When_NoStateListGiven_Test:
 3743 0000 00000000 		.quad	_ZTVN10__cxxabiv120__si_class_type_infoE+16
 3743      00000000 
 3744 0008 00000000 		.quad	_ZTS75TEST_hsm_build_Should_InitializeInvalidHsmHandle_When_NoStateListGiven_Test
 3744      00000000 
 3745 0010 00000000 		.quad	_ZTI33TEST_GROUP_CppUTestGrouphsm_build
 3745      00000000 
 3746              		.weak	_ZTS75TEST_hsm_build_Should_InitializeInvalidHsmHandle_When_NoStateListGiven_Test
 3747              		.section	.rodata._ZTS75TEST_hsm_build_Should_InitializeInvalidHsmHandle_When_NoStateListGiven_Test
 3748              		.align 32
 3751              	_ZTS75TEST_hsm_build_Should_InitializeInvalidHsmHandle_When_NoStateListGiven_Test:
 3752 0000 37355445 		.string	"75TEST_hsm_build_Should_InitializeInvalidHsmHandle_When_NoStateListGiven_Test"
 3752      53545F68 
 3752      736D5F62 
 3752      75696C64 
 3752      5F53686F 
 3753              		.weak	_ZTI85TEST_hsm_build_Should_InitializeInvalidHsmHandle_When_NullInitialStateGiven_TestShell
 3754              		.section	.rodata._ZTI85TEST_hsm_build_Should_InitializeInvalidHsmHandle_When_NullInitialStateGiven
 3755              		.align 8
 3758              	_ZTI85TEST_hsm_build_Should_InitializeInvalidHsmHandle_When_NullInitialStateGiven_TestShell:
 3759 0000 00000000 		.quad	_ZTVN10__cxxabiv120__si_class_type_infoE+16
 3759      00000000 
 3760 0008 00000000 		.quad	_ZTS85TEST_hsm_build_Should_InitializeInvalidHsmHandle_When_NullInitialStateGiven_TestShell
 3760      00000000 
 3761 0010 00000000 		.quad	_ZTI10UtestShell
 3761      00000000 
 3762              		.weak	_ZTS85TEST_hsm_build_Should_InitializeInvalidHsmHandle_When_NullInitialStateGiven_TestShell
 3763              		.section	.rodata._ZTS85TEST_hsm_build_Should_InitializeInvalidHsmHandle_When_NullInitialStateGiven
 3764              		.align 32
 3767              	_ZTS85TEST_hsm_build_Should_InitializeInvalidHsmHandle_When_NullInitialStateGiven_TestShell:
 3768 0000 38355445 		.string	"85TEST_hsm_build_Should_InitializeInvalidHsmHandle_When_NullInitialStateGiven_TestShell"
 3768      53545F68 
 3768      736D5F62 
 3768      75696C64 
 3768      5F53686F 
 3769              		.weak	_ZTI80TEST_hsm_build_Should_InitializeInvalidHsmHandle_When_NullInitialStateGiven_Test
 3770              		.section	.rodata._ZTI80TEST_hsm_build_Should_InitializeInvalidHsmHandle_When_NullInitialStateGiven
GAS LISTING /tmp/ccj7sGND.s 			page 79


 3771              		.align 8
 3774              	_ZTI80TEST_hsm_build_Should_InitializeInvalidHsmHandle_When_NullInitialStateGiven_Test:
 3775 0000 00000000 		.quad	_ZTVN10__cxxabiv120__si_class_type_infoE+16
 3775      00000000 
 3776 0008 00000000 		.quad	_ZTS80TEST_hsm_build_Should_InitializeInvalidHsmHandle_When_NullInitialStateGiven_Test
 3776      00000000 
 3777 0010 00000000 		.quad	_ZTI33TEST_GROUP_CppUTestGrouphsm_build
 3777      00000000 
 3778              		.weak	_ZTS80TEST_hsm_build_Should_InitializeInvalidHsmHandle_When_NullInitialStateGiven_Test
 3779              		.section	.rodata._ZTS80TEST_hsm_build_Should_InitializeInvalidHsmHandle_When_NullInitialStateGiven
 3780              		.align 32
 3783              	_ZTS80TEST_hsm_build_Should_InitializeInvalidHsmHandle_When_NullInitialStateGiven_Test:
 3784 0000 38305445 		.string	"80TEST_hsm_build_Should_InitializeInvalidHsmHandle_When_NullInitialStateGiven_Test"
 3784      53545F68 
 3784      736D5F62 
 3784      75696C64 
 3784      5F53686F 
 3785              		.weak	_ZTI79TEST_hsm_build_Should_InitializeInvalidHsmHandle_When_NoTopStateGiven_TestShell
 3786              		.section	.rodata._ZTI79TEST_hsm_build_Should_InitializeInvalidHsmHandle_When_NoTopStateGiven_TestS
 3787              		.align 8
 3790              	_ZTI79TEST_hsm_build_Should_InitializeInvalidHsmHandle_When_NoTopStateGiven_TestShell:
 3791 0000 00000000 		.quad	_ZTVN10__cxxabiv120__si_class_type_infoE+16
 3791      00000000 
 3792 0008 00000000 		.quad	_ZTS79TEST_hsm_build_Should_InitializeInvalidHsmHandle_When_NoTopStateGiven_TestShell
 3792      00000000 
 3793 0010 00000000 		.quad	_ZTI10UtestShell
 3793      00000000 
 3794              		.weak	_ZTS79TEST_hsm_build_Should_InitializeInvalidHsmHandle_When_NoTopStateGiven_TestShell
 3795              		.section	.rodata._ZTS79TEST_hsm_build_Should_InitializeInvalidHsmHandle_When_NoTopStateGiven_TestS
 3796              		.align 32
 3799              	_ZTS79TEST_hsm_build_Should_InitializeInvalidHsmHandle_When_NoTopStateGiven_TestShell:
 3800 0000 37395445 		.string	"79TEST_hsm_build_Should_InitializeInvalidHsmHandle_When_NoTopStateGiven_TestShell"
 3800      53545F68 
 3800      736D5F62 
 3800      75696C64 
 3800      5F53686F 
 3801              		.weak	_ZTI74TEST_hsm_build_Should_InitializeInvalidHsmHandle_When_NoTopStateGiven_Test
 3802              		.section	.rodata._ZTI74TEST_hsm_build_Should_InitializeInvalidHsmHandle_When_NoTopStateGiven_Test,
 3803              		.align 8
 3806              	_ZTI74TEST_hsm_build_Should_InitializeInvalidHsmHandle_When_NoTopStateGiven_Test:
 3807 0000 00000000 		.quad	_ZTVN10__cxxabiv120__si_class_type_infoE+16
 3807      00000000 
 3808 0008 00000000 		.quad	_ZTS74TEST_hsm_build_Should_InitializeInvalidHsmHandle_When_NoTopStateGiven_Test
 3808      00000000 
 3809 0010 00000000 		.quad	_ZTI33TEST_GROUP_CppUTestGrouphsm_build
 3809      00000000 
 3810              		.weak	_ZTS74TEST_hsm_build_Should_InitializeInvalidHsmHandle_When_NoTopStateGiven_Test
 3811              		.section	.rodata._ZTS74TEST_hsm_build_Should_InitializeInvalidHsmHandle_When_NoTopStateGiven_Test,
 3812              		.align 32
 3815              	_ZTS74TEST_hsm_build_Should_InitializeInvalidHsmHandle_When_NoTopStateGiven_Test:
 3816 0000 37345445 		.string	"74TEST_hsm_build_Should_InitializeInvalidHsmHandle_When_NoTopStateGiven_Test"
 3816      53545F68 
 3816      736D5F62 
 3816      75696C64 
 3816      5F53686F 
 3817              		.weak	_ZTI84TEST_hsm_build_Should_InitializeValidHsmHandle_When_ValidInitialStateGiven_TestShell
 3818              		.section	.rodata._ZTI84TEST_hsm_build_Should_InitializeValidHsmHandle_When_ValidInitialStateGiven_
GAS LISTING /tmp/ccj7sGND.s 			page 80


 3819              		.align 8
 3822              	_ZTI84TEST_hsm_build_Should_InitializeValidHsmHandle_When_ValidInitialStateGiven_TestShell:
 3823 0000 00000000 		.quad	_ZTVN10__cxxabiv120__si_class_type_infoE+16
 3823      00000000 
 3824 0008 00000000 		.quad	_ZTS84TEST_hsm_build_Should_InitializeValidHsmHandle_When_ValidInitialStateGiven_TestShell
 3824      00000000 
 3825 0010 00000000 		.quad	_ZTI10UtestShell
 3825      00000000 
 3826              		.weak	_ZTS84TEST_hsm_build_Should_InitializeValidHsmHandle_When_ValidInitialStateGiven_TestShell
 3827              		.section	.rodata._ZTS84TEST_hsm_build_Should_InitializeValidHsmHandle_When_ValidInitialStateGiven_
 3828              		.align 32
 3831              	_ZTS84TEST_hsm_build_Should_InitializeValidHsmHandle_When_ValidInitialStateGiven_TestShell:
 3832 0000 38345445 		.string	"84TEST_hsm_build_Should_InitializeValidHsmHandle_When_ValidInitialStateGiven_TestShell"
 3832      53545F68 
 3832      736D5F62 
 3832      75696C64 
 3832      5F53686F 
 3833              		.weak	_ZTI79TEST_hsm_build_Should_InitializeValidHsmHandle_When_ValidInitialStateGiven_Test
 3834              		.section	.rodata._ZTI79TEST_hsm_build_Should_InitializeValidHsmHandle_When_ValidInitialStateGiven_
 3835              		.align 8
 3838              	_ZTI79TEST_hsm_build_Should_InitializeValidHsmHandle_When_ValidInitialStateGiven_Test:
 3839 0000 00000000 		.quad	_ZTVN10__cxxabiv120__si_class_type_infoE+16
 3839      00000000 
 3840 0008 00000000 		.quad	_ZTS79TEST_hsm_build_Should_InitializeValidHsmHandle_When_ValidInitialStateGiven_Test
 3840      00000000 
 3841 0010 00000000 		.quad	_ZTI33TEST_GROUP_CppUTestGrouphsm_build
 3841      00000000 
 3842              		.weak	_ZTS79TEST_hsm_build_Should_InitializeValidHsmHandle_When_ValidInitialStateGiven_Test
 3843              		.section	.rodata._ZTS79TEST_hsm_build_Should_InitializeValidHsmHandle_When_ValidInitialStateGiven_
 3844              		.align 32
 3847              	_ZTS79TEST_hsm_build_Should_InitializeValidHsmHandle_When_ValidInitialStateGiven_Test:
 3848 0000 37395445 		.string	"79TEST_hsm_build_Should_InitializeValidHsmHandle_When_ValidInitialStateGiven_Test"
 3848      53545F68 
 3848      736D5F62 
 3848      75696C64 
 3848      5F53686F 
 3849              		.weak	_ZTI33TEST_GROUP_CppUTestGrouphsm_build
 3850              		.section	.rodata._ZTI33TEST_GROUP_CppUTestGrouphsm_build,"aG",@progbits,_ZTI33TEST_GROUP_CppUTestG
 3851              		.align 8
 3854              	_ZTI33TEST_GROUP_CppUTestGrouphsm_build:
 3855 0000 00000000 		.quad	_ZTVN10__cxxabiv120__si_class_type_infoE+16
 3855      00000000 
 3856 0008 00000000 		.quad	_ZTS33TEST_GROUP_CppUTestGrouphsm_build
 3856      00000000 
 3857 0010 00000000 		.quad	_ZTI5Utest
 3857      00000000 
 3858              		.weak	_ZTS33TEST_GROUP_CppUTestGrouphsm_build
 3859              		.section	.rodata._ZTS33TEST_GROUP_CppUTestGrouphsm_build,"aG",@progbits,_ZTS33TEST_GROUP_CppUTestG
 3860              		.align 32
 3863              	_ZTS33TEST_GROUP_CppUTestGrouphsm_build:
 3864 0000 33335445 		.string	"33TEST_GROUP_CppUTestGrouphsm_build"
 3864      53545F47 
 3864      524F5550 
 3864      5F437070 
 3864      55546573 
 3865              		.section	.rodata
 3866 0025 000000   		.align 8
GAS LISTING /tmp/ccj7sGND.s 			page 81


 3867              	.LC1:
 3868 0028 53686F75 		.string	"Should_InitializeValidHsmHandle_When_ValidInitialStateGiven"
 3868      6C645F49 
 3868      6E697469 
 3868      616C697A 
 3868      6556616C 
 3869              	.LC2:
 3870 0064 68736D5F 		.string	"hsm_build"
 3870      6275696C 
 3870      6400
 3871 006e 0000     		.align 8
 3872              	.LC3:
 3873 0070 53686F75 		.string	"Should_InitializeInvalidHsmHandle_When_NoTopStateGiven"
 3873      6C645F49 
 3873      6E697469 
 3873      616C697A 
 3873      65496E76 
 3874 00a7 00       		.align 8
 3875              	.LC4:
 3876 00a8 53686F75 		.string	"Should_InitializeInvalidHsmHandle_When_NullInitialStateGiven"
 3876      6C645F49 
 3876      6E697469 
 3876      616C697A 
 3876      65496E76 
 3877 00e5 000000   		.align 8
 3878              	.LC5:
 3879 00e8 53686F75 		.string	"Should_InitializeInvalidHsmHandle_When_NoStateListGiven"
 3879      6C645F49 
 3879      6E697469 
 3879      616C697A 
 3879      65496E76 
 3880              		.align 8
 3881              	.LC6:
 3882 0120 53686F75 		.string	"Should_InitializeInvalidHsmHandle_When_NoNumberOfStateListGiven"
 3882      6C645F49 
 3882      6E697469 
 3882      616C697A 
 3882      65496E76 
 3883              		.align 8
 3884              	.LC7:
 3885 0160 53686F75 		.string	"Should_InitializeInvalidHsmHandle_When_NoStateListAndNoNumberOfStateListGiven"
 3885      6C645F49 
 3885      6E697469 
 3885      616C697A 
 3885      65496E76 
 3886 01ae 0000     		.align 8
 3887              	.LC8:
 3888 01b0 53686F75 		.string	"Should_InitializeInvalidHsmHandle_When_NothingGivenGiven"
 3888      6C645F49 
 3888      6E697469 
 3888      616C697A 
 3888      65496E76 
 3889              		.text
 3891              	_Z41__static_initialization_and_destruction_0ii:
 3892              	.LFB813:
 3893              		.cfi_startproc
 3894 0a8f 55       		pushq	%rbp
GAS LISTING /tmp/ccj7sGND.s 			page 82


 3895              		.cfi_def_cfa_offset 16
 3896              		.cfi_offset 6, -16
 3897 0a90 4889E5   		movq	%rsp, %rbp
 3898              		.cfi_def_cfa_register 6
 3899 0a93 4883EC10 		subq	$16, %rsp
 3900 0a97 897DFC   		movl	%edi, -4(%rbp)
 3901 0a9a 8975F8   		movl	%esi, -8(%rbp)
 3902 0a9d 837DFC01 		cmpl	$1, -4(%rbp)
 3903 0aa1 0F856E02 		jne	.L137
 3903      0000
 3904 0aa7 817DF8FF 		cmpl	$65535, -8(%rbp)
 3904      FF0000
 3905 0aae 0F856102 		jne	.L137
 3905      0000
 3906 0ab4 BF000000 		movl	$TEST_hsm_build_Should_InitializeValidHsmHandle_When_ValidInitialStateGiven_TestShell_instanc
 3906      00
 3907 0ab9 E8000000 		call	_ZN84TEST_hsm_build_Should_InitializeValidHsmHandle_When_ValidInitialStateGiven_TestShellC1Ev
 3907      00
 3908 0abe BA000000 		movl	$__dso_handle, %edx
 3908      00
 3909 0ac3 BE000000 		movl	$TEST_hsm_build_Should_InitializeValidHsmHandle_When_ValidInitialStateGiven_TestShell_instanc
 3909      00
 3910 0ac8 BF000000 		movl	$_ZN84TEST_hsm_build_Should_InitializeValidHsmHandle_When_ValidInitialStateGiven_TestShellD1E
 3910      00
 3911 0acd E8000000 		call	__cxa_atexit
 3911      00
 3912 0ad2 41B93800 		movl	$56, %r9d
 3912      0000
 3913 0ad8 41B80000 		movl	$.LC0, %r8d
 3913      0000
 3914 0ade B9000000 		movl	$.LC1, %ecx
 3914      00
 3915 0ae3 BA000000 		movl	$.LC2, %edx
 3915      00
 3916 0ae8 BE000000 		movl	$TEST_hsm_build_Should_InitializeValidHsmHandle_When_ValidInitialStateGiven_TestShell_instanc
 3916      00
 3917 0aed BF000000 		movl	$_ZL84TEST_hsm_build_Should_InitializeValidHsmHandle_When_ValidInitialStateGiven_Installer, %
 3917      00
 3918 0af2 E8000000 		call	_ZN13TestInstallerC1ER10UtestShellPKcS3_S3_i
 3918      00
 3919 0af7 BA000000 		movl	$__dso_handle, %edx
 3919      00
 3920 0afc BE000000 		movl	$_ZL84TEST_hsm_build_Should_InitializeValidHsmHandle_When_ValidInitialStateGiven_Installer, %
 3920      00
 3921 0b01 BF000000 		movl	$_ZN13TestInstallerD1Ev, %edi
 3921      00
 3922 0b06 E8000000 		call	__cxa_atexit
 3922      00
 3923 0b0b BF000000 		movl	$TEST_hsm_build_Should_InitializeInvalidHsmHandle_When_NoTopStateGiven_TestShell_instance, %e
 3923      00
 3924 0b10 E8000000 		call	_ZN79TEST_hsm_build_Should_InitializeInvalidHsmHandle_When_NoTopStateGiven_TestShellC1Ev
 3924      00
 3925 0b15 BA000000 		movl	$__dso_handle, %edx
 3925      00
 3926 0b1a BE000000 		movl	$TEST_hsm_build_Should_InitializeInvalidHsmHandle_When_NoTopStateGiven_TestShell_instance, %e
 3926      00
 3927 0b1f BF000000 		movl	$_ZN79TEST_hsm_build_Should_InitializeInvalidHsmHandle_When_NoTopStateGiven_TestShellD1Ev, %e
GAS LISTING /tmp/ccj7sGND.s 			page 83


 3927      00
 3928 0b24 E8000000 		call	__cxa_atexit
 3928      00
 3929 0b29 41B94400 		movl	$68, %r9d
 3929      0000
 3930 0b2f 41B80000 		movl	$.LC0, %r8d
 3930      0000
 3931 0b35 B9000000 		movl	$.LC3, %ecx
 3931      00
 3932 0b3a BA000000 		movl	$.LC2, %edx
 3932      00
 3933 0b3f BE000000 		movl	$TEST_hsm_build_Should_InitializeInvalidHsmHandle_When_NoTopStateGiven_TestShell_instance, %e
 3933      00
 3934 0b44 BF000000 		movl	$_ZL79TEST_hsm_build_Should_InitializeInvalidHsmHandle_When_NoTopStateGiven_Installer, %edi
 3934      00
 3935 0b49 E8000000 		call	_ZN13TestInstallerC1ER10UtestShellPKcS3_S3_i
 3935      00
 3936 0b4e BA000000 		movl	$__dso_handle, %edx
 3936      00
 3937 0b53 BE000000 		movl	$_ZL79TEST_hsm_build_Should_InitializeInvalidHsmHandle_When_NoTopStateGiven_Installer, %esi
 3937      00
 3938 0b58 BF000000 		movl	$_ZN13TestInstallerD1Ev, %edi
 3938      00
 3939 0b5d E8000000 		call	__cxa_atexit
 3939      00
 3940 0b62 BF000000 		movl	$TEST_hsm_build_Should_InitializeInvalidHsmHandle_When_NullInitialStateGiven_TestShell_instan
 3940      00
 3941 0b67 E8000000 		call	_ZN85TEST_hsm_build_Should_InitializeInvalidHsmHandle_When_NullInitialStateGiven_TestShellC1E
 3941      00
 3942 0b6c BA000000 		movl	$__dso_handle, %edx
 3942      00
 3943 0b71 BE000000 		movl	$TEST_hsm_build_Should_InitializeInvalidHsmHandle_When_NullInitialStateGiven_TestShell_instan
 3943      00
 3944 0b76 BF000000 		movl	$_ZN85TEST_hsm_build_Should_InitializeInvalidHsmHandle_When_NullInitialStateGiven_TestShellD1
 3944      00
 3945 0b7b E8000000 		call	__cxa_atexit
 3945      00
 3946 0b80 41B95000 		movl	$80, %r9d
 3946      0000
 3947 0b86 41B80000 		movl	$.LC0, %r8d
 3947      0000
 3948 0b8c B9000000 		movl	$.LC4, %ecx
 3948      00
 3949 0b91 BA000000 		movl	$.LC2, %edx
 3949      00
 3950 0b96 BE000000 		movl	$TEST_hsm_build_Should_InitializeInvalidHsmHandle_When_NullInitialStateGiven_TestShell_instan
 3950      00
 3951 0b9b BF000000 		movl	$_ZL85TEST_hsm_build_Should_InitializeInvalidHsmHandle_When_NullInitialStateGiven_Installer, 
 3951      00
 3952 0ba0 E8000000 		call	_ZN13TestInstallerC1ER10UtestShellPKcS3_S3_i
 3952      00
 3953 0ba5 BA000000 		movl	$__dso_handle, %edx
 3953      00
 3954 0baa BE000000 		movl	$_ZL85TEST_hsm_build_Should_InitializeInvalidHsmHandle_When_NullInitialStateGiven_Installer, 
 3954      00
 3955 0baf BF000000 		movl	$_ZN13TestInstallerD1Ev, %edi
 3955      00
GAS LISTING /tmp/ccj7sGND.s 			page 84


 3956 0bb4 E8000000 		call	__cxa_atexit
 3956      00
 3957 0bb9 BF000000 		movl	$TEST_hsm_build_Should_InitializeInvalidHsmHandle_When_NoStateListGiven_TestShell_instance, %
 3957      00
 3958 0bbe E8000000 		call	_ZN80TEST_hsm_build_Should_InitializeInvalidHsmHandle_When_NoStateListGiven_TestShellC1Ev
 3958      00
 3959 0bc3 BA000000 		movl	$__dso_handle, %edx
 3959      00
 3960 0bc8 BE000000 		movl	$TEST_hsm_build_Should_InitializeInvalidHsmHandle_When_NoStateListGiven_TestShell_instance, %
 3960      00
 3961 0bcd BF000000 		movl	$_ZN80TEST_hsm_build_Should_InitializeInvalidHsmHandle_When_NoStateListGiven_TestShellD1Ev, %
 3961      00
 3962 0bd2 E8000000 		call	__cxa_atexit
 3962      00
 3963 0bd7 41B95C00 		movl	$92, %r9d
 3963      0000
 3964 0bdd 41B80000 		movl	$.LC0, %r8d
 3964      0000
 3965 0be3 B9000000 		movl	$.LC5, %ecx
 3965      00
 3966 0be8 BA000000 		movl	$.LC2, %edx
 3966      00
 3967 0bed BE000000 		movl	$TEST_hsm_build_Should_InitializeInvalidHsmHandle_When_NoStateListGiven_TestShell_instance, %
 3967      00
 3968 0bf2 BF000000 		movl	$_ZL80TEST_hsm_build_Should_InitializeInvalidHsmHandle_When_NoStateListGiven_Installer, %edi
 3968      00
 3969 0bf7 E8000000 		call	_ZN13TestInstallerC1ER10UtestShellPKcS3_S3_i
 3969      00
 3970 0bfc BA000000 		movl	$__dso_handle, %edx
 3970      00
 3971 0c01 BE000000 		movl	$_ZL80TEST_hsm_build_Should_InitializeInvalidHsmHandle_When_NoStateListGiven_Installer, %esi
 3971      00
 3972 0c06 BF000000 		movl	$_ZN13TestInstallerD1Ev, %edi
 3972      00
 3973 0c0b E8000000 		call	__cxa_atexit
 3973      00
 3974 0c10 BF000000 		movl	$TEST_hsm_build_Should_InitializeInvalidHsmHandle_When_NoNumberOfStateListGiven_TestShell_ins
 3974      00
 3975 0c15 E8000000 		call	_ZN88TEST_hsm_build_Should_InitializeInvalidHsmHandle_When_NoNumberOfStateListGiven_TestShell
 3975      00
 3976 0c1a BA000000 		movl	$__dso_handle, %edx
 3976      00
 3977 0c1f BE000000 		movl	$TEST_hsm_build_Should_InitializeInvalidHsmHandle_When_NoNumberOfStateListGiven_TestShell_ins
 3977      00
 3978 0c24 BF000000 		movl	$_ZN88TEST_hsm_build_Should_InitializeInvalidHsmHandle_When_NoNumberOfStateListGiven_TestShel
 3978      00
 3979 0c29 E8000000 		call	__cxa_atexit
 3979      00
 3980 0c2e 41B96800 		movl	$104, %r9d
 3980      0000
 3981 0c34 41B80000 		movl	$.LC0, %r8d
 3981      0000
 3982 0c3a B9000000 		movl	$.LC6, %ecx
 3982      00
 3983 0c3f BA000000 		movl	$.LC2, %edx
 3983      00
 3984 0c44 BE000000 		movl	$TEST_hsm_build_Should_InitializeInvalidHsmHandle_When_NoNumberOfStateListGiven_TestShell_ins
GAS LISTING /tmp/ccj7sGND.s 			page 85


 3984      00
 3985 0c49 BF000000 		movl	$_ZL88TEST_hsm_build_Should_InitializeInvalidHsmHandle_When_NoNumberOfStateListGiven_Installe
 3985      00
 3986 0c4e E8000000 		call	_ZN13TestInstallerC1ER10UtestShellPKcS3_S3_i
 3986      00
 3987 0c53 BA000000 		movl	$__dso_handle, %edx
 3987      00
 3988 0c58 BE000000 		movl	$_ZL88TEST_hsm_build_Should_InitializeInvalidHsmHandle_When_NoNumberOfStateListGiven_Installe
 3988      00
 3989 0c5d BF000000 		movl	$_ZN13TestInstallerD1Ev, %edi
 3989      00
 3990 0c62 E8000000 		call	__cxa_atexit
 3990      00
 3991 0c67 BF000000 		movl	$TEST_hsm_build_Should_InitializeInvalidHsmHandle_When_NoStateListAndNoNumberOfStateListGiven
 3991      00
 3992 0c6c E8000000 		call	_ZN102TEST_hsm_build_Should_InitializeInvalidHsmHandle_When_NoStateListAndNoNumberOfStateList
 3992      00
 3993 0c71 BA000000 		movl	$__dso_handle, %edx
 3993      00
 3994 0c76 BE000000 		movl	$TEST_hsm_build_Should_InitializeInvalidHsmHandle_When_NoStateListAndNoNumberOfStateListGiven
 3994      00
 3995 0c7b BF000000 		movl	$_ZN102TEST_hsm_build_Should_InitializeInvalidHsmHandle_When_NoStateListAndNoNumberOfStateLis
 3995      00
 3996 0c80 E8000000 		call	__cxa_atexit
 3996      00
 3997 0c85 41B97400 		movl	$116, %r9d
 3997      0000
 3998 0c8b 41B80000 		movl	$.LC0, %r8d
 3998      0000
 3999 0c91 B9000000 		movl	$.LC7, %ecx
 3999      00
 4000 0c96 BA000000 		movl	$.LC2, %edx
 4000      00
 4001 0c9b BE000000 		movl	$TEST_hsm_build_Should_InitializeInvalidHsmHandle_When_NoStateListAndNoNumberOfStateListGiven
 4001      00
 4002 0ca0 BF000000 		movl	$_ZL102TEST_hsm_build_Should_InitializeInvalidHsmHandle_When_NoStateListAndNoNumberOfStateLis
 4002      00
 4003 0ca5 E8000000 		call	_ZN13TestInstallerC1ER10UtestShellPKcS3_S3_i
 4003      00
 4004 0caa BA000000 		movl	$__dso_handle, %edx
 4004      00
 4005 0caf BE000000 		movl	$_ZL102TEST_hsm_build_Should_InitializeInvalidHsmHandle_When_NoStateListAndNoNumberOfStateLis
 4005      00
 4006 0cb4 BF000000 		movl	$_ZN13TestInstallerD1Ev, %edi
 4006      00
 4007 0cb9 E8000000 		call	__cxa_atexit
 4007      00
 4008 0cbe BF000000 		movl	$TEST_hsm_build_Should_InitializeInvalidHsmHandle_When_NothingGivenGiven_TestShell_instance, 
 4008      00
 4009 0cc3 E8000000 		call	_ZN81TEST_hsm_build_Should_InitializeInvalidHsmHandle_When_NothingGivenGiven_TestShellC1Ev
 4009      00
 4010 0cc8 BA000000 		movl	$__dso_handle, %edx
 4010      00
 4011 0ccd BE000000 		movl	$TEST_hsm_build_Should_InitializeInvalidHsmHandle_When_NothingGivenGiven_TestShell_instance, 
 4011      00
 4012 0cd2 BF000000 		movl	$_ZN81TEST_hsm_build_Should_InitializeInvalidHsmHandle_When_NothingGivenGiven_TestShellD1Ev, 
 4012      00
GAS LISTING /tmp/ccj7sGND.s 			page 86


 4013 0cd7 E8000000 		call	__cxa_atexit
 4013      00
 4014 0cdc 41B98000 		movl	$128, %r9d
 4014      0000
 4015 0ce2 41B80000 		movl	$.LC0, %r8d
 4015      0000
 4016 0ce8 B9000000 		movl	$.LC8, %ecx
 4016      00
 4017 0ced BA000000 		movl	$.LC2, %edx
 4017      00
 4018 0cf2 BE000000 		movl	$TEST_hsm_build_Should_InitializeInvalidHsmHandle_When_NothingGivenGiven_TestShell_instance, 
 4018      00
 4019 0cf7 BF000000 		movl	$_ZL81TEST_hsm_build_Should_InitializeInvalidHsmHandle_When_NothingGivenGiven_Installer, %edi
 4019      00
 4020 0cfc E8000000 		call	_ZN13TestInstallerC1ER10UtestShellPKcS3_S3_i
 4020      00
 4021 0d01 BA000000 		movl	$__dso_handle, %edx
 4021      00
 4022 0d06 BE000000 		movl	$_ZL81TEST_hsm_build_Should_InitializeInvalidHsmHandle_When_NothingGivenGiven_Installer, %esi
 4022      00
 4023 0d0b BF000000 		movl	$_ZN13TestInstallerD1Ev, %edi
 4023      00
 4024 0d10 E8000000 		call	__cxa_atexit
 4024      00
 4025              	.L137:
 4026 0d15 90       		nop
 4027 0d16 C9       		leave
 4028              		.cfi_def_cfa 7, 8
 4029 0d17 C3       		ret
 4030              		.cfi_endproc
 4031              	.LFE813:
 4034              	_GLOBAL__sub_I_parentState:
 4035              	.LFB814:
 4036              		.cfi_startproc
 4037 0d18 55       		pushq	%rbp
 4038              		.cfi_def_cfa_offset 16
 4039              		.cfi_offset 6, -16
 4040 0d19 4889E5   		movq	%rsp, %rbp
 4041              		.cfi_def_cfa_register 6
 4042 0d1c BEFFFF00 		movl	$65535, %esi
 4042      00
 4043 0d21 BF010000 		movl	$1, %edi
 4043      00
 4044 0d26 E864FDFF 		call	_Z41__static_initialization_and_destruction_0ii
 4044      FF
 4045 0d2b 5D       		popq	%rbp
 4046              		.cfi_def_cfa 7, 8
 4047 0d2c C3       		ret
 4048              		.cfi_endproc
 4049              	.LFE814:
 4051              		.section	.init_array,"aw"
 4052              		.align 8
 4053 0000 00000000 		.quad	_GLOBAL__sub_I_parentState
 4053      00000000 
 4054              		.hidden	__dso_handle
 4055              		.ident	"GCC: (Ubuntu 5.4.0-6ubuntu1~16.04.5) 5.4.0 20160609"
 4056              		.section	.note.GNU-stack,"",@progbits
GAS LISTING /tmp/ccj7sGND.s 			page 87


GAS LISTING /tmp/ccj7sGND.s 			page 88

