GAS LISTING /tmp/ccxHiSG0.s 			page 1


   1              		.file	"hsm_reset_test.cpp"
   2              		.section	.text._ZN14TestTerminatorC2Ev,"axG",@progbits,_ZN14TestTerminatorC5Ev,comdat
   3              		.align 2
   4              		.weak	_ZN14TestTerminatorC2Ev
   6              	_ZN14TestTerminatorC2Ev:
   7              	.LFB611:
   8              		.cfi_startproc
   9 0000 55       		pushq	%rbp
  10              		.cfi_def_cfa_offset 16
  11              		.cfi_offset 6, -16
  12 0001 4889E5   		movq	%rsp, %rbp
  13              		.cfi_def_cfa_register 6
  14 0004 48897DF8 		movq	%rdi, -8(%rbp)
  15 0008 BA000000 		movl	$_ZTV14TestTerminator+16, %edx
  15      00
  16 000d 488B45F8 		movq	-8(%rbp), %rax
  17 0011 488910   		movq	%rdx, (%rax)
  18 0014 90       		nop
  19 0015 5D       		popq	%rbp
  20              		.cfi_def_cfa 7, 8
  21 0016 C3       		ret
  22              		.cfi_endproc
  23              	.LFE611:
  25              		.weak	_ZN14TestTerminatorC1Ev
  26              		.set	_ZN14TestTerminatorC1Ev,_ZN14TestTerminatorC2Ev
  27              		.section	.text._ZN20NormalTestTerminatorC2Ev,"axG",@progbits,_ZN20NormalTestTerminatorC5Ev,comdat
  28              		.align 2
  29              		.weak	_ZN20NormalTestTerminatorC2Ev
  31              	_ZN20NormalTestTerminatorC2Ev:
  32              	.LFB613:
  33              		.cfi_startproc
  34 0000 55       		pushq	%rbp
  35              		.cfi_def_cfa_offset 16
  36              		.cfi_offset 6, -16
  37 0001 4889E5   		movq	%rsp, %rbp
  38              		.cfi_def_cfa_register 6
  39 0004 4883EC10 		subq	$16, %rsp
  40 0008 48897DF8 		movq	%rdi, -8(%rbp)
  41 000c 488B45F8 		movq	-8(%rbp), %rax
  42 0010 4889C7   		movq	%rax, %rdi
  43 0013 E8000000 		call	_ZN14TestTerminatorC2Ev
  43      00
  44 0018 BA000000 		movl	$_ZTV20NormalTestTerminator+16, %edx
  44      00
  45 001d 488B45F8 		movq	-8(%rbp), %rax
  46 0021 488910   		movq	%rdx, (%rax)
  47 0024 90       		nop
  48 0025 C9       		leave
  49              		.cfi_def_cfa 7, 8
  50 0026 C3       		ret
  51              		.cfi_endproc
  52              	.LFE613:
  54              		.weak	_ZN20NormalTestTerminatorC1Ev
  55              		.set	_ZN20NormalTestTerminatorC1Ev,_ZN20NormalTestTerminatorC2Ev
  56              		.local	_ZL12initialState
  57              		.comm	_ZL12initialState,72,32
  58              		.local	_ZL9nextState
GAS LISTING /tmp/ccxHiSG0.s 			page 2


  59              		.comm	_ZL9nextState,72,32
  60              		.data
  61              		.align 16
  64              	_ZL9stateList:
  65 0000 00000000 		.quad	_ZL12initialState
  65      00000000 
  66 0008 00000000 		.quad	_ZL9nextState
  66      00000000 
  67              		.globl	externTestGrouphsm_reset
  68              		.bss
  69              		.align 4
  72              	externTestGrouphsm_reset:
  73 0000 00000000 		.zero	4
  74              		.section	.text._ZN33TEST_GROUP_CppUTestGrouphsm_reset5setupEv,"axG",@progbits,_ZN33TEST_GROUP_CppU
  75              		.align 2
  76              		.weak	_ZN33TEST_GROUP_CppUTestGrouphsm_reset5setupEv
  78              	_ZN33TEST_GROUP_CppUTestGrouphsm_reset5setupEv:
  79              	.LFB692:
  80              		.cfi_startproc
  81 0000 55       		pushq	%rbp
  82              		.cfi_def_cfa_offset 16
  83              		.cfi_offset 6, -16
  84 0001 4889E5   		movq	%rsp, %rbp
  85              		.cfi_def_cfa_register 6
  86 0004 53       		pushq	%rbx
  87 0005 4883EC48 		subq	$72, %rsp
  88              		.cfi_offset 3, -24
  89 0009 48897DD8 		movq	%rdi, -40(%rbp)
  90 000d 64488B04 		movq	%fs:40, %rax
  90      25280000 
  90      00
  91 0016 488945E8 		movq	%rax, -24(%rbp)
  92 001a 31C0     		xorl	%eax, %eax
  93 001c B8020000 		movl	$2, %eax
  93      00
  94 0021 89C2     		movl	%eax, %edx
  95 0023 488B5DD8 		movq	-40(%rbp), %rbx
  96 0027 488D45B0 		leaq	-80(%rbp), %rax
  97 002b 89D1     		movl	%edx, %ecx
  98 002d BA000000 		movl	$_ZL9stateList, %edx
  98      00
  99 0032 BE000000 		movl	$_ZL12initialState, %esi
  99      00
 100 0037 4889C7   		movq	%rax, %rdi
 101 003a E8000000 		call	_Z10_hsm_buildPK5statePPS_j
 101      00
 102 003f 488B45B0 		movq	-80(%rbp), %rax
 103 0043 48894308 		movq	%rax, 8(%rbx)
 104 0047 488B45B8 		movq	-72(%rbp), %rax
 105 004b 48894310 		movq	%rax, 16(%rbx)
 106 004f 488B45C0 		movq	-64(%rbp), %rax
 107 0053 48894318 		movq	%rax, 24(%rbx)
 108 0057 488B45C8 		movq	-56(%rbp), %rax
 109 005b 48894320 		movq	%rax, 32(%rbx)
 110 005f B8020000 		movl	$2, %eax
 110      00
 111 0064 89C2     		movl	%eax, %edx
GAS LISTING /tmp/ccxHiSG0.s 			page 3


 112 0066 488B45D8 		movq	-40(%rbp), %rax
 113 006a 895028   		movl	%edx, 40(%rax)
 114 006d 90       		nop
 115 006e 488B45E8 		movq	-24(%rbp), %rax
 116 0072 64483304 		xorq	%fs:40, %rax
 116      25280000 
 116      00
 117 007b 7405     		je	.L4
 118 007d E8000000 		call	__stack_chk_fail
 118      00
 119              	.L4:
 120 0082 4883C448 		addq	$72, %rsp
 121 0086 5B       		popq	%rbx
 122 0087 5D       		popq	%rbp
 123              		.cfi_def_cfa 7, 8
 124 0088 C3       		ret
 125              		.cfi_endproc
 126              	.LFE692:
 128              		.section	.text._ZN33TEST_GROUP_CppUTestGrouphsm_reset8teardownEv,"axG",@progbits,_ZN33TEST_GROUP_C
 129              		.align 2
 130              		.weak	_ZN33TEST_GROUP_CppUTestGrouphsm_reset8teardownEv
 132              	_ZN33TEST_GROUP_CppUTestGrouphsm_reset8teardownEv:
 133              	.LFB693:
 134              		.cfi_startproc
 135 0000 55       		pushq	%rbp
 136              		.cfi_def_cfa_offset 16
 137              		.cfi_offset 6, -16
 138 0001 4889E5   		movq	%rsp, %rbp
 139              		.cfi_def_cfa_register 6
 140 0004 48897DF8 		movq	%rdi, -8(%rbp)
 141 0008 90       		nop
 142 0009 5D       		popq	%rbp
 143              		.cfi_def_cfa 7, 8
 144 000a C3       		ret
 145              		.cfi_endproc
 146              	.LFE693:
 148              		.section	.text._ZN33TEST_GROUP_CppUTestGrouphsm_resetC2Ev,"axG",@progbits,_ZN33TEST_GROUP_CppUTest
 149              		.align 2
 150              		.weak	_ZN33TEST_GROUP_CppUTestGrouphsm_resetC2Ev
 152              	_ZN33TEST_GROUP_CppUTestGrouphsm_resetC2Ev:
 153              	.LFB696:
 154              		.cfi_startproc
 155 0000 55       		pushq	%rbp
 156              		.cfi_def_cfa_offset 16
 157              		.cfi_offset 6, -16
 158 0001 4889E5   		movq	%rsp, %rbp
 159              		.cfi_def_cfa_register 6
 160 0004 4883EC10 		subq	$16, %rsp
 161 0008 48897DF8 		movq	%rdi, -8(%rbp)
 162 000c 488B45F8 		movq	-8(%rbp), %rax
 163 0010 4889C7   		movq	%rax, %rdi
 164 0013 E8000000 		call	_ZN5UtestC2Ev
 164      00
 165 0018 BA000000 		movl	$_ZTV33TEST_GROUP_CppUTestGrouphsm_reset+16, %edx
 165      00
 166 001d 488B45F8 		movq	-8(%rbp), %rax
 167 0021 488910   		movq	%rdx, (%rax)
GAS LISTING /tmp/ccxHiSG0.s 			page 4


 168 0024 90       		nop
 169 0025 C9       		leave
 170              		.cfi_def_cfa 7, 8
 171 0026 C3       		ret
 172              		.cfi_endproc
 173              	.LFE696:
 175              		.weak	_ZN33TEST_GROUP_CppUTestGrouphsm_resetC1Ev
 176              		.set	_ZN33TEST_GROUP_CppUTestGrouphsm_resetC1Ev,_ZN33TEST_GROUP_CppUTestGrouphsm_resetC2Ev
 177              		.section	.text._ZN33TEST_GROUP_CppUTestGrouphsm_resetD2Ev,"axG",@progbits,_ZN33TEST_GROUP_CppUTest
 178              		.align 2
 179              		.weak	_ZN33TEST_GROUP_CppUTestGrouphsm_resetD2Ev
 181              	_ZN33TEST_GROUP_CppUTestGrouphsm_resetD2Ev:
 182              	.LFB699:
 183              		.cfi_startproc
 184 0000 55       		pushq	%rbp
 185              		.cfi_def_cfa_offset 16
 186              		.cfi_offset 6, -16
 187 0001 4889E5   		movq	%rsp, %rbp
 188              		.cfi_def_cfa_register 6
 189 0004 4883EC10 		subq	$16, %rsp
 190 0008 48897DF8 		movq	%rdi, -8(%rbp)
 191 000c BA000000 		movl	$_ZTV33TEST_GROUP_CppUTestGrouphsm_reset+16, %edx
 191      00
 192 0011 488B45F8 		movq	-8(%rbp), %rax
 193 0015 488910   		movq	%rdx, (%rax)
 194 0018 488B45F8 		movq	-8(%rbp), %rax
 195 001c 4889C7   		movq	%rax, %rdi
 196 001f E8000000 		call	_ZN5UtestD2Ev
 196      00
 197 0024 B8000000 		movl	$0, %eax
 197      00
 198 0029 85C0     		testl	%eax, %eax
 199 002b 740C     		je	.L7
 200 002d 488B45F8 		movq	-8(%rbp), %rax
 201 0031 4889C7   		movq	%rax, %rdi
 202 0034 E8000000 		call	_ZdlPv
 202      00
 203              	.L7:
 204 0039 C9       		leave
 205              		.cfi_def_cfa 7, 8
 206 003a C3       		ret
 207              		.cfi_endproc
 208              	.LFE699:
 210              		.weak	_ZN33TEST_GROUP_CppUTestGrouphsm_resetD1Ev
 211              		.set	_ZN33TEST_GROUP_CppUTestGrouphsm_resetD1Ev,_ZN33TEST_GROUP_CppUTestGrouphsm_resetD2Ev
 212              		.section	.text._ZN33TEST_GROUP_CppUTestGrouphsm_resetD0Ev,"axG",@progbits,_ZN33TEST_GROUP_CppUTest
 213              		.align 2
 214              		.weak	_ZN33TEST_GROUP_CppUTestGrouphsm_resetD0Ev
 216              	_ZN33TEST_GROUP_CppUTestGrouphsm_resetD0Ev:
 217              	.LFB701:
 218              		.cfi_startproc
 219 0000 55       		pushq	%rbp
 220              		.cfi_def_cfa_offset 16
 221              		.cfi_offset 6, -16
 222 0001 4889E5   		movq	%rsp, %rbp
 223              		.cfi_def_cfa_register 6
 224 0004 4883EC10 		subq	$16, %rsp
GAS LISTING /tmp/ccxHiSG0.s 			page 5


 225 0008 48897DF8 		movq	%rdi, -8(%rbp)
 226 000c 488B45F8 		movq	-8(%rbp), %rax
 227 0010 4889C7   		movq	%rax, %rdi
 228 0013 E8000000 		call	_ZN33TEST_GROUP_CppUTestGrouphsm_resetD1Ev
 228      00
 229 0018 488B45F8 		movq	-8(%rbp), %rax
 230 001c 4889C7   		movq	%rax, %rdi
 231 001f E8000000 		call	_ZdlPv
 231      00
 232 0024 C9       		leave
 233              		.cfi_def_cfa 7, 8
 234 0025 C3       		ret
 235              		.cfi_endproc
 236              	.LFE701:
 238              		.section	.text._ZN70TEST_hsm_reset_Should_ReturnToInitialState_When_NotInInitialState_TestC2Ev,"ax
 239              		.align 2
 240              		.weak	_ZN70TEST_hsm_reset_Should_ReturnToInitialState_When_NotInInitialState_TestC2Ev
 242              	_ZN70TEST_hsm_reset_Should_ReturnToInitialState_When_NotInInitialState_TestC2Ev:
 243              	.LFB702:
 244              		.cfi_startproc
 245 0000 55       		pushq	%rbp
 246              		.cfi_def_cfa_offset 16
 247              		.cfi_offset 6, -16
 248 0001 4889E5   		movq	%rsp, %rbp
 249              		.cfi_def_cfa_register 6
 250 0004 4883EC10 		subq	$16, %rsp
 251 0008 48897DF8 		movq	%rdi, -8(%rbp)
 252 000c 488B45F8 		movq	-8(%rbp), %rax
 253 0010 48C70000 		movq	$0, (%rax)
 253      000000
 254 0017 488B45F8 		movq	-8(%rbp), %rax
 255 001b 48C74008 		movq	$0, 8(%rax)
 255      00000000 
 256 0023 488B45F8 		movq	-8(%rbp), %rax
 257 0027 48C74010 		movq	$0, 16(%rax)
 257      00000000 
 258 002f 488B45F8 		movq	-8(%rbp), %rax
 259 0033 48C74018 		movq	$0, 24(%rax)
 259      00000000 
 260 003b 488B45F8 		movq	-8(%rbp), %rax
 261 003f C7402000 		movl	$0, 32(%rax)
 261      000000
 262 0046 488B45F8 		movq	-8(%rbp), %rax
 263 004a C7402800 		movl	$0, 40(%rax)
 263      000000
 264 0051 488B45F8 		movq	-8(%rbp), %rax
 265 0055 4889C7   		movq	%rax, %rdi
 266 0058 E8000000 		call	_ZN33TEST_GROUP_CppUTestGrouphsm_resetC2Ev
 266      00
 267 005d BA000000 		movl	$_ZTV70TEST_hsm_reset_Should_ReturnToInitialState_When_NotInInitialState_Test+16, %edx
 267      00
 268 0062 488B45F8 		movq	-8(%rbp), %rax
 269 0066 488910   		movq	%rdx, (%rax)
 270 0069 90       		nop
 271 006a C9       		leave
 272              		.cfi_def_cfa 7, 8
 273 006b C3       		ret
GAS LISTING /tmp/ccxHiSG0.s 			page 6


 274              		.cfi_endproc
 275              	.LFE702:
 277              		.weak	_ZN70TEST_hsm_reset_Should_ReturnToInitialState_When_NotInInitialState_TestC1Ev
 278              		.set	_ZN70TEST_hsm_reset_Should_ReturnToInitialState_When_NotInInitialState_TestC1Ev,_ZN70TEST_hsm
 279              		.section	.rodata
 280              		.align 8
 281              	.LC0:
 282 0000 74657374 		.string	"tests/fsm/methods/hsm_reset_test.cpp"
 282      732F6673 
 282      6D2F6D65 
 282      74686F64 
 282      732F6873 
 283              		.section	.text._ZN75TEST_hsm_reset_Should_ReturnToInitialState_When_NotInInitialState_TestShell10c
 284              		.align 2
 285              		.weak	_ZN75TEST_hsm_reset_Should_ReturnToInitialState_When_NotInInitialState_TestShell10createTest
 287              	_ZN75TEST_hsm_reset_Should_ReturnToInitialState_When_NotInInitialState_TestShell10createTestEv:
 288              	.LFB704:
 289              		.cfi_startproc
 290              		.cfi_personality 0x3,__gxx_personality_v0
 291              		.cfi_lsda 0x3,.LLSDA704
 292 0000 55       		pushq	%rbp
 293              		.cfi_def_cfa_offset 16
 294              		.cfi_offset 6, -16
 295 0001 4889E5   		movq	%rsp, %rbp
 296              		.cfi_def_cfa_register 6
 297 0004 4154     		pushq	%r12
 298 0006 53       		pushq	%rbx
 299 0007 4883EC10 		subq	$16, %rsp
 300              		.cfi_offset 12, -24
 301              		.cfi_offset 3, -32
 302 000b 48897DE8 		movq	%rdi, -24(%rbp)
 303 000f BA380000 		movl	$56, %edx
 303      00
 304 0014 BE000000 		movl	$.LC0, %esi
 304      00
 305 0019 BF300000 		movl	$48, %edi
 305      00
 306              	.LEHB0:
 307 001e E8000000 		call	_ZnwmPKci
 307      00
 308              	.LEHE0:
 309 0023 4889C3   		movq	%rax, %rbx
 310 0026 4889DF   		movq	%rbx, %rdi
 311              	.LEHB1:
 312 0029 E8000000 		call	_ZN70TEST_hsm_reset_Should_ReturnToInitialState_When_NotInInitialState_TestC1Ev
 312      00
 313              	.LEHE1:
 314 002e 4889D8   		movq	%rbx, %rax
 315 0031 EB20     		jmp	.L15
 316              	.L14:
 317 0033 4989C4   		movq	%rax, %r12
 318 0036 BA380000 		movl	$56, %edx
 318      00
 319 003b BE000000 		movl	$.LC0, %esi
 319      00
 320 0040 4889DF   		movq	%rbx, %rdi
 321 0043 E8000000 		call	_ZdlPvPKci
GAS LISTING /tmp/ccxHiSG0.s 			page 7


 321      00
 322 0048 4C89E0   		movq	%r12, %rax
 323 004b 4889C7   		movq	%rax, %rdi
 324              	.LEHB2:
 325 004e E8000000 		call	_Unwind_Resume
 325      00
 326              	.LEHE2:
 327              	.L15:
 328 0053 4883C410 		addq	$16, %rsp
 329 0057 5B       		popq	%rbx
 330 0058 415C     		popq	%r12
 331 005a 5D       		popq	%rbp
 332              		.cfi_def_cfa 7, 8
 333 005b C3       		ret
 334              		.cfi_endproc
 335              	.LFE704:
 336              		.globl	__gxx_personality_v0
 337              		.section	.gcc_except_table._ZN75TEST_hsm_reset_Should_ReturnToInitialState_When_NotInInitialState_
 338              	.LLSDA704:
 339 0000 FF       		.byte	0xff
 340 0001 FF       		.byte	0xff
 341 0002 01       		.byte	0x1
 342 0003 0C       		.uleb128 .LLSDACSE704-.LLSDACSB704
 343              	.LLSDACSB704:
 344 0004 1E       		.uleb128 .LEHB0-.LFB704
 345 0005 05       		.uleb128 .LEHE0-.LEHB0
 346 0006 00       		.uleb128 0
 347 0007 00       		.uleb128 0
 348 0008 29       		.uleb128 .LEHB1-.LFB704
 349 0009 05       		.uleb128 .LEHE1-.LEHB1
 350 000a 33       		.uleb128 .L14-.LFB704
 351 000b 00       		.uleb128 0
 352 000c 4E       		.uleb128 .LEHB2-.LFB704
 353 000d 05       		.uleb128 .LEHE2-.LEHB2
 354 000e 00       		.uleb128 0
 355 000f 00       		.uleb128 0
 356              	.LLSDACSE704:
 357              		.section	.text._ZN75TEST_hsm_reset_Should_ReturnToInitialState_When_NotInInitialState_TestShell10c
 359              		.section	.text._ZN75TEST_hsm_reset_Should_ReturnToInitialState_When_NotInInitialState_TestShellC2E
 360              		.align 2
 361              		.weak	_ZN75TEST_hsm_reset_Should_ReturnToInitialState_When_NotInInitialState_TestShellC2Ev
 363              	_ZN75TEST_hsm_reset_Should_ReturnToInitialState_When_NotInInitialState_TestShellC2Ev:
 364              	.LFB706:
 365              		.cfi_startproc
 366 0000 55       		pushq	%rbp
 367              		.cfi_def_cfa_offset 16
 368              		.cfi_offset 6, -16
 369 0001 4889E5   		movq	%rsp, %rbp
 370              		.cfi_def_cfa_register 6
 371 0004 4883EC10 		subq	$16, %rsp
 372 0008 48897DF8 		movq	%rdi, -8(%rbp)
 373 000c 488B45F8 		movq	-8(%rbp), %rax
 374 0010 4889C7   		movq	%rax, %rdi
 375 0013 E8000000 		call	_ZN10UtestShellC2Ev
 375      00
 376 0018 BA000000 		movl	$_ZTV75TEST_hsm_reset_Should_ReturnToInitialState_When_NotInInitialState_TestShell+16, %edx
 376      00
GAS LISTING /tmp/ccxHiSG0.s 			page 8


 377 001d 488B45F8 		movq	-8(%rbp), %rax
 378 0021 488910   		movq	%rdx, (%rax)
 379 0024 90       		nop
 380 0025 C9       		leave
 381              		.cfi_def_cfa 7, 8
 382 0026 C3       		ret
 383              		.cfi_endproc
 384              	.LFE706:
 386              		.weak	_ZN75TEST_hsm_reset_Should_ReturnToInitialState_When_NotInInitialState_TestShellC1Ev
 387              		.set	_ZN75TEST_hsm_reset_Should_ReturnToInitialState_When_NotInInitialState_TestShellC1Ev,_ZN75TES
 388              		.globl	TEST_hsm_reset_Should_ReturnToInitialState_When_NotInInitialState_TestShell_instance
 389              		.bss
 390 0004 00000000 		.align 32
 390      00000000 
 390      00000000 
 390      00000000 
 390      00000000 
 393              	TEST_hsm_reset_Should_ReturnToInitialState_When_NotInInitialState_TestShell_instance:
 394 0020 00000000 		.zero	56
 394      00000000 
 394      00000000 
 394      00000000 
 394      00000000 
 395              		.local	_ZL75TEST_hsm_reset_Should_ReturnToInitialState_When_NotInInitialState_Installer
 396              		.comm	_ZL75TEST_hsm_reset_Should_ReturnToInitialState_When_NotInInitialState_Installer,8,8
 397              		.text
 398              		.align 2
 399              		.globl	_ZN70TEST_hsm_reset_Should_ReturnToInitialState_When_NotInInitialState_Test8testBodyEv
 401              	_ZN70TEST_hsm_reset_Should_ReturnToInitialState_When_NotInInitialState_Test8testBodyEv:
 402              	.LFB708:
 403              		.cfi_startproc
 404              		.cfi_personality 0x3,__gxx_personality_v0
 405              		.cfi_lsda 0x3,.LLSDA708
 406 0000 55       		pushq	%rbp
 407              		.cfi_def_cfa_offset 16
 408              		.cfi_offset 6, -16
 409 0001 4889E5   		movq	%rsp, %rbp
 410              		.cfi_def_cfa_register 6
 411 0004 4155     		pushq	%r13
 412 0006 4154     		pushq	%r12
 413 0008 53       		pushq	%rbx
 414 0009 4883EC58 		subq	$88, %rsp
 415              		.cfi_offset 13, -24
 416              		.cfi_offset 12, -32
 417              		.cfi_offset 3, -40
 418 000d 48897D98 		movq	%rdi, -104(%rbp)
 419 0011 64488B04 		movq	%fs:40, %rax
 419      25280000 
 419      00
 420 001a 488945D8 		movq	%rax, -40(%rbp)
 421 001e 31C0     		xorl	%eax, %eax
 422 0020 488B4598 		movq	-104(%rbp), %rax
 423 0024 48C74010 		movq	$_ZL9nextState, 16(%rax)
 423      00000000 
 424 002c 488B4598 		movq	-104(%rbp), %rax
 425 0030 4883C008 		addq	$8, %rax
 426 0034 4889C7   		movq	%rax, %rdi
GAS LISTING /tmp/ccxHiSG0.s 			page 9


 427              	.LEHB3:
 428 0037 E8000000 		call	_Z9hsm_resetP5hsm_t
 428      00
 429 003c 8945AC   		movl	%eax, -84(%rbp)
 430 003f E8000000 		call	_ZN10UtestShell10getCurrentEv
 430      00
 431 0044 488B10   		movq	(%rax), %rdx
 432 0047 4881C288 		addq	$136, %rdx
 432      000000
 433 004e 4C8B0A   		movq	(%rdx), %r9
 434 0051 488B5598 		movq	-104(%rbp), %rdx
 435 0055 488B5208 		movq	8(%rdx), %rdx
 436 0059 41B84100 		movl	$65, %r8d
 436      0000
 437 005f B9000000 		movl	$.LC0, %ecx
 437      00
 438 0064 BE000000 		movl	$_ZL12initialState, %esi
 438      00
 439 0069 4889C7   		movq	%rax, %rdi
 440 006c 41FFD1   		call	*%r9
 441 006f E8000000 		call	_ZN10UtestShell10getCurrentEv
 441      00
 442 0074 488B10   		movq	(%rax), %rdx
 443 0077 4881C288 		addq	$136, %rdx
 443      000000
 444 007e 4C8B0A   		movq	(%rdx), %r9
 445 0081 488B5598 		movq	-104(%rbp), %rdx
 446 0085 488B5210 		movq	16(%rdx), %rdx
 447 0089 41B84200 		movl	$66, %r8d
 447      0000
 448 008f B9000000 		movl	$.LC0, %ecx
 448      00
 449 0094 BE000000 		movl	$_ZL12initialState, %esi
 449      00
 450 0099 4889C7   		movq	%rax, %rdi
 451 009c 41FFD1   		call	*%r9
 452 009f E8000000 		call	_ZN10UtestShell10getCurrentEv
 452      00
 453 00a4 488B10   		movq	(%rax), %rdx
 454 00a7 4881C288 		addq	$136, %rdx
 454      000000
 455 00ae 4C8B0A   		movq	(%rdx), %r9
 456 00b1 488B5598 		movq	-104(%rbp), %rdx
 457 00b5 488B5218 		movq	24(%rdx), %rdx
 458 00b9 41B84300 		movl	$67, %r8d
 458      0000
 459 00bf B9000000 		movl	$.LC0, %ecx
 459      00
 460 00c4 BE000000 		movl	$_ZL9stateList, %esi
 460      00
 461 00c9 4889C7   		movq	%rax, %rdi
 462 00cc 41FFD1   		call	*%r9
 463 00cf E8000000 		call	_ZN10UtestShell10getCurrentEv
 463      00
 464              	.LEHE3:
 465 00d4 4889C3   		movq	%rax, %rbx
 466 00d7 488B03   		movq	(%rbx), %rax
GAS LISTING /tmp/ccxHiSG0.s 			page 10


 467 00da 4883C078 		addq	$120, %rax
 468 00de 4C8B20   		movq	(%rax), %r12
 469 00e1 48C745D0 		movq	$0, -48(%rbp)
 469      00000000 
 470 00e9 488D45D0 		leaq	-48(%rbp), %rax
 471 00ed 4889C7   		movq	%rax, %rdi
 472 00f0 E8000000 		call	_ZN20NormalTestTerminatorC1Ev
 472      00
 473 00f5 488B4598 		movq	-104(%rbp), %rax
 474 00f9 8B4020   		movl	32(%rax), %eax
 475 00fc 89C2     		movl	%eax, %edx
 476 00fe 488B4598 		movq	-104(%rbp), %rax
 477 0102 8B4028   		movl	40(%rax), %eax
 478 0105 89C6     		movl	%eax, %esi
 479 0107 488D45D0 		leaq	-48(%rbp), %rax
 480 010b 4989C1   		movq	%rax, %r9
 481 010e 41B84400 		movl	$68, %r8d
 481      0000
 482 0114 B9000000 		movl	$.LC0, %ecx
 482      00
 483 0119 4889DF   		movq	%rbx, %rdi
 484              	.LEHB4:
 485 011c 41FFD4   		call	*%r12
 486              	.LEHE4:
 487 011f 488D45D0 		leaq	-48(%rbp), %rax
 488 0123 4889C7   		movq	%rax, %rdi
 489              	.LEHB5:
 490 0126 E8000000 		call	_ZN20NormalTestTerminatorD1Ev
 490      00
 491 012b 837DAC00 		cmpl	$0, -84(%rbp)
 492 012f 0F84B800 		je	.L18
 492      0000
 493 0135 E8000000 		call	_ZN10UtestShell10getCurrentEv
 493      00
 494              	.LEHE5:
 495 013a 4889C3   		movq	%rax, %rbx
 496 013d 488B03   		movq	(%rbx), %rax
 497 0140 48059800 		addq	$152, %rax
 497      0000
 498 0146 4C8B20   		movq	(%rax), %r12
 499 0149 48C745D0 		movq	$0, -48(%rbp)
 499      00000000 
 500 0151 488D45D0 		leaq	-48(%rbp), %rax
 501 0155 4889C7   		movq	%rax, %rdi
 502 0158 E8000000 		call	_ZN20NormalTestTerminatorC1Ev
 502      00
 503 015d 488D45C0 		leaq	-64(%rbp), %rax
 504 0161 8B55AC   		movl	-84(%rbp), %edx
 505 0164 89D6     		movl	%edx, %esi
 506 0166 4889C7   		movq	%rax, %rdi
 507              	.LEHB6:
 508 0169 E8000000 		call	_Z10StringFromi
 508      00
 509              	.LEHE6:
 510 016e 488D45C0 		leaq	-64(%rbp), %rax
 511 0172 4889C7   		movq	%rax, %rdi
 512              	.LEHB7:
GAS LISTING /tmp/ccxHiSG0.s 			page 11


 513 0175 E8000000 		call	_ZNK12SimpleString12asCharStringEv
 513      00
 514 017a 4989C5   		movq	%rax, %r13
 515 017d 488D45B0 		leaq	-80(%rbp), %rax
 516 0181 BE000000 		movl	$0, %esi
 516      00
 517 0186 4889C7   		movq	%rax, %rdi
 518 0189 E8000000 		call	_Z10StringFromi
 518      00
 519              	.LEHE7:
 520 018e 488D45B0 		leaq	-80(%rbp), %rax
 521 0192 4889C7   		movq	%rax, %rdi
 522              	.LEHB8:
 523 0195 E8000000 		call	_ZNK12SimpleString12asCharStringEv
 523      00
 524 019a 4889C2   		movq	%rax, %rdx
 525 019d 4883EC08 		subq	$8, %rsp
 526 01a1 488D45D0 		leaq	-48(%rbp), %rax
 527 01a5 50       		pushq	%rax
 528 01a6 41B94500 		movl	$69, %r9d
 528      0000
 529 01ac 41B80000 		movl	$.LC0, %r8d
 529      0000
 530 01b2 4C89E9   		movq	%r13, %rcx
 531 01b5 BE010000 		movl	$1, %esi
 531      00
 532 01ba 4889DF   		movq	%rbx, %rdi
 533              		.cfi_escape 0x2e,0x10
 534 01bd 41FFD4   		call	*%r12
 535              	.LEHE8:
 536 01c0 4883C410 		addq	$16, %rsp
 537 01c4 488D45B0 		leaq	-80(%rbp), %rax
 538 01c8 4889C7   		movq	%rax, %rdi
 539              	.LEHB9:
 540              		.cfi_escape 0x2e,0
 541 01cb E8000000 		call	_ZN12SimpleStringD1Ev
 541      00
 542              	.LEHE9:
 543 01d0 488D45C0 		leaq	-64(%rbp), %rax
 544 01d4 4889C7   		movq	%rax, %rdi
 545              	.LEHB10:
 546 01d7 E8000000 		call	_ZN12SimpleStringD1Ev
 546      00
 547              	.LEHE10:
 548 01dc 488D45D0 		leaq	-48(%rbp), %rax
 549 01e0 4889C7   		movq	%rax, %rdi
 550              	.LEHB11:
 551 01e3 E8000000 		call	_ZN20NormalTestTerminatorD1Ev
 551      00
 552 01e8 E9C60000 		jmp	.L17
 552      00
 553              	.L18:
 554 01ed E8000000 		call	_ZN10UtestShell10getCurrentEv
 554      00
 555              	.LEHE11:
 556 01f2 4889C3   		movq	%rax, %rbx
 557 01f5 488B03   		movq	(%rbx), %rax
GAS LISTING /tmp/ccxHiSG0.s 			page 12


 558 01f8 4883C078 		addq	$120, %rax
 559 01fc 4C8B20   		movq	(%rax), %r12
 560 01ff 48C745D0 		movq	$0, -48(%rbp)
 560      00000000 
 561 0207 488D45D0 		leaq	-48(%rbp), %rax
 562 020b 4889C7   		movq	%rax, %rdi
 563 020e E8000000 		call	_ZN20NormalTestTerminatorC1Ev
 563      00
 564 0213 488D45D0 		leaq	-48(%rbp), %rax
 565 0217 4989C1   		movq	%rax, %r9
 566 021a 41B84500 		movl	$69, %r8d
 566      0000
 567 0220 B9000000 		movl	$.LC0, %ecx
 567      00
 568 0225 BA000000 		movl	$0, %edx
 568      00
 569 022a BE000000 		movl	$0, %esi
 569      00
 570 022f 4889DF   		movq	%rbx, %rdi
 571              	.LEHB12:
 572 0232 41FFD4   		call	*%r12
 573              	.LEHE12:
 574 0235 488D45D0 		leaq	-48(%rbp), %rax
 575 0239 4889C7   		movq	%rax, %rdi
 576              	.LEHB13:
 577 023c E8000000 		call	_ZN20NormalTestTerminatorD1Ev
 577      00
 578              	.LEHE13:
 579 0241 EB70     		jmp	.L17
 580              	.L26:
 581 0243 4889C3   		movq	%rax, %rbx
 582 0246 488D45D0 		leaq	-48(%rbp), %rax
 583 024a 4889C7   		movq	%rax, %rdi
 584 024d E8000000 		call	_ZN20NormalTestTerminatorD1Ev
 584      00
 585 0252 4889D8   		movq	%rbx, %rax
 586 0255 4889C7   		movq	%rax, %rdi
 587              	.LEHB14:
 588 0258 E8000000 		call	_Unwind_Resume
 588      00
 589              	.LEHE14:
 590              	.L29:
 591 025d 4889C3   		movq	%rax, %rbx
 592 0260 488D45B0 		leaq	-80(%rbp), %rax
 593 0264 4889C7   		movq	%rax, %rdi
 594 0267 E8000000 		call	_ZN12SimpleStringD1Ev
 594      00
 595 026c EB03     		jmp	.L22
 596              	.L28:
 597 026e 4889C3   		movq	%rax, %rbx
 598              	.L22:
 599 0271 488D45C0 		leaq	-64(%rbp), %rax
 600 0275 4889C7   		movq	%rax, %rdi
 601 0278 E8000000 		call	_ZN12SimpleStringD1Ev
 601      00
 602 027d EB03     		jmp	.L23
 603              	.L27:
GAS LISTING /tmp/ccxHiSG0.s 			page 13


 604 027f 4889C3   		movq	%rax, %rbx
 605              	.L23:
 606 0282 488D45D0 		leaq	-48(%rbp), %rax
 607 0286 4889C7   		movq	%rax, %rdi
 608 0289 E8000000 		call	_ZN20NormalTestTerminatorD1Ev
 608      00
 609 028e 4889D8   		movq	%rbx, %rax
 610 0291 4889C7   		movq	%rax, %rdi
 611              	.LEHB15:
 612 0294 E8000000 		call	_Unwind_Resume
 612      00
 613              	.LEHE15:
 614              	.L30:
 615 0299 4889C3   		movq	%rax, %rbx
 616 029c 488D45D0 		leaq	-48(%rbp), %rax
 617 02a0 4889C7   		movq	%rax, %rdi
 618 02a3 E8000000 		call	_ZN20NormalTestTerminatorD1Ev
 618      00
 619 02a8 4889D8   		movq	%rbx, %rax
 620 02ab 4889C7   		movq	%rax, %rdi
 621              	.LEHB16:
 622 02ae E8000000 		call	_Unwind_Resume
 622      00
 623              	.LEHE16:
 624              	.L17:
 625 02b3 488B45D8 		movq	-40(%rbp), %rax
 626 02b7 64483304 		xorq	%fs:40, %rax
 626      25280000 
 626      00
 627 02c0 7405     		je	.L25
 628 02c2 E8000000 		call	__stack_chk_fail
 628      00
 629              	.L25:
 630 02c7 488D65E8 		leaq	-24(%rbp), %rsp
 631 02cb 5B       		popq	%rbx
 632 02cc 415C     		popq	%r12
 633 02ce 415D     		popq	%r13
 634 02d0 5D       		popq	%rbp
 635              		.cfi_def_cfa 7, 8
 636 02d1 C3       		ret
 637              		.cfi_endproc
 638              	.LFE708:
 639              		.section	.gcc_except_table,"a",@progbits
 640              	.LLSDA708:
 641 0000 FF       		.byte	0xff
 642 0001 FF       		.byte	0xff
 643 0002 01       		.byte	0x1
 644 0003 4D       		.uleb128 .LLSDACSE708-.LLSDACSB708
 645              	.LLSDACSB708:
 646 0004 37       		.uleb128 .LEHB3-.LFB708
 647 0005 9D01     		.uleb128 .LEHE3-.LEHB3
 648 0007 00       		.uleb128 0
 649 0008 00       		.uleb128 0
 650 0009 9C02     		.uleb128 .LEHB4-.LFB708
 651 000b 03       		.uleb128 .LEHE4-.LEHB4
 652 000c C304     		.uleb128 .L26-.LFB708
 653 000e 00       		.uleb128 0
GAS LISTING /tmp/ccxHiSG0.s 			page 14


 654 000f A602     		.uleb128 .LEHB5-.LFB708
 655 0011 14       		.uleb128 .LEHE5-.LEHB5
 656 0012 00       		.uleb128 0
 657 0013 00       		.uleb128 0
 658 0014 E902     		.uleb128 .LEHB6-.LFB708
 659 0016 05       		.uleb128 .LEHE6-.LEHB6
 660 0017 FF04     		.uleb128 .L27-.LFB708
 661 0019 00       		.uleb128 0
 662 001a F502     		.uleb128 .LEHB7-.LFB708
 663 001c 19       		.uleb128 .LEHE7-.LEHB7
 664 001d EE04     		.uleb128 .L28-.LFB708
 665 001f 00       		.uleb128 0
 666 0020 9503     		.uleb128 .LEHB8-.LFB708
 667 0022 2B       		.uleb128 .LEHE8-.LEHB8
 668 0023 DD04     		.uleb128 .L29-.LFB708
 669 0025 00       		.uleb128 0
 670 0026 CB03     		.uleb128 .LEHB9-.LFB708
 671 0028 05       		.uleb128 .LEHE9-.LEHB9
 672 0029 EE04     		.uleb128 .L28-.LFB708
 673 002b 00       		.uleb128 0
 674 002c D703     		.uleb128 .LEHB10-.LFB708
 675 002e 05       		.uleb128 .LEHE10-.LEHB10
 676 002f FF04     		.uleb128 .L27-.LFB708
 677 0031 00       		.uleb128 0
 678 0032 E303     		.uleb128 .LEHB11-.LFB708
 679 0034 0F       		.uleb128 .LEHE11-.LEHB11
 680 0035 00       		.uleb128 0
 681 0036 00       		.uleb128 0
 682 0037 B204     		.uleb128 .LEHB12-.LFB708
 683 0039 03       		.uleb128 .LEHE12-.LEHB12
 684 003a 9905     		.uleb128 .L30-.LFB708
 685 003c 00       		.uleb128 0
 686 003d BC04     		.uleb128 .LEHB13-.LFB708
 687 003f 05       		.uleb128 .LEHE13-.LEHB13
 688 0040 00       		.uleb128 0
 689 0041 00       		.uleb128 0
 690 0042 D804     		.uleb128 .LEHB14-.LFB708
 691 0044 05       		.uleb128 .LEHE14-.LEHB14
 692 0045 00       		.uleb128 0
 693 0046 00       		.uleb128 0
 694 0047 9405     		.uleb128 .LEHB15-.LFB708
 695 0049 05       		.uleb128 .LEHE15-.LEHB15
 696 004a 00       		.uleb128 0
 697 004b 00       		.uleb128 0
 698 004c AE05     		.uleb128 .LEHB16-.LFB708
 699 004e 05       		.uleb128 .LEHE16-.LEHB16
 700 004f 00       		.uleb128 0
 701 0050 00       		.uleb128 0
 702              	.LLSDACSE708:
 703              		.text
 705              		.section	.text._ZN51TEST_hsm_reset_Should_GiveError_When_NULLGiven_TestC2Ev,"axG",@progbits,_ZN51T
 706              		.align 2
 707              		.weak	_ZN51TEST_hsm_reset_Should_GiveError_When_NULLGiven_TestC2Ev
 709              	_ZN51TEST_hsm_reset_Should_GiveError_When_NULLGiven_TestC2Ev:
 710              	.LFB710:
 711              		.cfi_startproc
 712 0000 55       		pushq	%rbp
GAS LISTING /tmp/ccxHiSG0.s 			page 15


 713              		.cfi_def_cfa_offset 16
 714              		.cfi_offset 6, -16
 715 0001 4889E5   		movq	%rsp, %rbp
 716              		.cfi_def_cfa_register 6
 717 0004 4883EC10 		subq	$16, %rsp
 718 0008 48897DF8 		movq	%rdi, -8(%rbp)
 719 000c 488B45F8 		movq	-8(%rbp), %rax
 720 0010 48C70000 		movq	$0, (%rax)
 720      000000
 721 0017 488B45F8 		movq	-8(%rbp), %rax
 722 001b 48C74008 		movq	$0, 8(%rax)
 722      00000000 
 723 0023 488B45F8 		movq	-8(%rbp), %rax
 724 0027 48C74010 		movq	$0, 16(%rax)
 724      00000000 
 725 002f 488B45F8 		movq	-8(%rbp), %rax
 726 0033 48C74018 		movq	$0, 24(%rax)
 726      00000000 
 727 003b 488B45F8 		movq	-8(%rbp), %rax
 728 003f C7402000 		movl	$0, 32(%rax)
 728      000000
 729 0046 488B45F8 		movq	-8(%rbp), %rax
 730 004a C7402800 		movl	$0, 40(%rax)
 730      000000
 731 0051 488B45F8 		movq	-8(%rbp), %rax
 732 0055 4889C7   		movq	%rax, %rdi
 733 0058 E8000000 		call	_ZN33TEST_GROUP_CppUTestGrouphsm_resetC2Ev
 733      00
 734 005d BA000000 		movl	$_ZTV51TEST_hsm_reset_Should_GiveError_When_NULLGiven_Test+16, %edx
 734      00
 735 0062 488B45F8 		movq	-8(%rbp), %rax
 736 0066 488910   		movq	%rdx, (%rax)
 737 0069 90       		nop
 738 006a C9       		leave
 739              		.cfi_def_cfa 7, 8
 740 006b C3       		ret
 741              		.cfi_endproc
 742              	.LFE710:
 744              		.weak	_ZN51TEST_hsm_reset_Should_GiveError_When_NULLGiven_TestC1Ev
 745              		.set	_ZN51TEST_hsm_reset_Should_GiveError_When_NULLGiven_TestC1Ev,_ZN51TEST_hsm_reset_Should_GiveE
 746              		.section	.text._ZN56TEST_hsm_reset_Should_GiveError_When_NULLGiven_TestShell10createTestEv,"axG",@
 747              		.align 2
 748              		.weak	_ZN56TEST_hsm_reset_Should_GiveError_When_NULLGiven_TestShell10createTestEv
 750              	_ZN56TEST_hsm_reset_Should_GiveError_When_NULLGiven_TestShell10createTestEv:
 751              	.LFB712:
 752              		.cfi_startproc
 753              		.cfi_personality 0x3,__gxx_personality_v0
 754              		.cfi_lsda 0x3,.LLSDA712
 755 0000 55       		pushq	%rbp
 756              		.cfi_def_cfa_offset 16
 757              		.cfi_offset 6, -16
 758 0001 4889E5   		movq	%rsp, %rbp
 759              		.cfi_def_cfa_register 6
 760 0004 4154     		pushq	%r12
 761 0006 53       		pushq	%rbx
 762 0007 4883EC10 		subq	$16, %rsp
 763              		.cfi_offset 12, -24
GAS LISTING /tmp/ccxHiSG0.s 			page 16


 764              		.cfi_offset 3, -32
 765 000b 48897DE8 		movq	%rdi, -24(%rbp)
 766 000f BA480000 		movl	$72, %edx
 766      00
 767 0014 BE000000 		movl	$.LC0, %esi
 767      00
 768 0019 BF300000 		movl	$48, %edi
 768      00
 769              	.LEHB17:
 770 001e E8000000 		call	_ZnwmPKci
 770      00
 771              	.LEHE17:
 772 0023 4889C3   		movq	%rax, %rbx
 773 0026 4889DF   		movq	%rbx, %rdi
 774              	.LEHB18:
 775 0029 E8000000 		call	_ZN51TEST_hsm_reset_Should_GiveError_When_NULLGiven_TestC1Ev
 775      00
 776              	.LEHE18:
 777 002e 4889D8   		movq	%rbx, %rax
 778 0031 EB20     		jmp	.L36
 779              	.L35:
 780 0033 4989C4   		movq	%rax, %r12
 781 0036 BA480000 		movl	$72, %edx
 781      00
 782 003b BE000000 		movl	$.LC0, %esi
 782      00
 783 0040 4889DF   		movq	%rbx, %rdi
 784 0043 E8000000 		call	_ZdlPvPKci
 784      00
 785 0048 4C89E0   		movq	%r12, %rax
 786 004b 4889C7   		movq	%rax, %rdi
 787              	.LEHB19:
 788 004e E8000000 		call	_Unwind_Resume
 788      00
 789              	.LEHE19:
 790              	.L36:
 791 0053 4883C410 		addq	$16, %rsp
 792 0057 5B       		popq	%rbx
 793 0058 415C     		popq	%r12
 794 005a 5D       		popq	%rbp
 795              		.cfi_def_cfa 7, 8
 796 005b C3       		ret
 797              		.cfi_endproc
 798              	.LFE712:
 799              		.section	.gcc_except_table
 800              	.LLSDA712:
 801 0051 FF       		.byte	0xff
 802 0052 FF       		.byte	0xff
 803 0053 01       		.byte	0x1
 804 0054 0C       		.uleb128 .LLSDACSE712-.LLSDACSB712
 805              	.LLSDACSB712:
 806 0055 1E       		.uleb128 .LEHB17-.LFB712
 807 0056 05       		.uleb128 .LEHE17-.LEHB17
 808 0057 00       		.uleb128 0
 809 0058 00       		.uleb128 0
 810 0059 29       		.uleb128 .LEHB18-.LFB712
 811 005a 05       		.uleb128 .LEHE18-.LEHB18
GAS LISTING /tmp/ccxHiSG0.s 			page 17


 812 005b 33       		.uleb128 .L35-.LFB712
 813 005c 00       		.uleb128 0
 814 005d 4E       		.uleb128 .LEHB19-.LFB712
 815 005e 05       		.uleb128 .LEHE19-.LEHB19
 816 005f 00       		.uleb128 0
 817 0060 00       		.uleb128 0
 818              	.LLSDACSE712:
 819              		.section	.text._ZN56TEST_hsm_reset_Should_GiveError_When_NULLGiven_TestShell10createTestEv,"axG",@
 821              		.section	.text._ZN56TEST_hsm_reset_Should_GiveError_When_NULLGiven_TestShellC2Ev,"axG",@progbits,_
 822              		.align 2
 823              		.weak	_ZN56TEST_hsm_reset_Should_GiveError_When_NULLGiven_TestShellC2Ev
 825              	_ZN56TEST_hsm_reset_Should_GiveError_When_NULLGiven_TestShellC2Ev:
 826              	.LFB714:
 827              		.cfi_startproc
 828 0000 55       		pushq	%rbp
 829              		.cfi_def_cfa_offset 16
 830              		.cfi_offset 6, -16
 831 0001 4889E5   		movq	%rsp, %rbp
 832              		.cfi_def_cfa_register 6
 833 0004 4883EC10 		subq	$16, %rsp
 834 0008 48897DF8 		movq	%rdi, -8(%rbp)
 835 000c 488B45F8 		movq	-8(%rbp), %rax
 836 0010 4889C7   		movq	%rax, %rdi
 837 0013 E8000000 		call	_ZN10UtestShellC2Ev
 837      00
 838 0018 BA000000 		movl	$_ZTV56TEST_hsm_reset_Should_GiveError_When_NULLGiven_TestShell+16, %edx
 838      00
 839 001d 488B45F8 		movq	-8(%rbp), %rax
 840 0021 488910   		movq	%rdx, (%rax)
 841 0024 90       		nop
 842 0025 C9       		leave
 843              		.cfi_def_cfa 7, 8
 844 0026 C3       		ret
 845              		.cfi_endproc
 846              	.LFE714:
 848              		.weak	_ZN56TEST_hsm_reset_Should_GiveError_When_NULLGiven_TestShellC1Ev
 849              		.set	_ZN56TEST_hsm_reset_Should_GiveError_When_NULLGiven_TestShellC1Ev,_ZN56TEST_hsm_reset_Should_
 850              		.globl	TEST_hsm_reset_Should_GiveError_When_NULLGiven_TestShell_instance
 851              		.bss
 852 0058 00000000 		.align 32
 852      00000000 
 855              	TEST_hsm_reset_Should_GiveError_When_NULLGiven_TestShell_instance:
 856 0060 00000000 		.zero	56
 856      00000000 
 856      00000000 
 856      00000000 
 856      00000000 
 857              		.local	_ZL56TEST_hsm_reset_Should_GiveError_When_NULLGiven_Installer
 858              		.comm	_ZL56TEST_hsm_reset_Should_GiveError_When_NULLGiven_Installer,8,8
 859              		.text
 860              		.align 2
 861              		.globl	_ZN51TEST_hsm_reset_Should_GiveError_When_NULLGiven_Test8testBodyEv
 863              	_ZN51TEST_hsm_reset_Should_GiveError_When_NULLGiven_Test8testBodyEv:
 864              	.LFB716:
 865              		.cfi_startproc
 866              		.cfi_personality 0x3,__gxx_personality_v0
 867              		.cfi_lsda 0x3,.LLSDA716
GAS LISTING /tmp/ccxHiSG0.s 			page 18


 868 02d2 55       		pushq	%rbp
 869              		.cfi_def_cfa_offset 16
 870              		.cfi_offset 6, -16
 871 02d3 4889E5   		movq	%rsp, %rbp
 872              		.cfi_def_cfa_register 6
 873 02d6 4155     		pushq	%r13
 874 02d8 4154     		pushq	%r12
 875 02da 53       		pushq	%rbx
 876 02db 4883EC58 		subq	$88, %rsp
 877              		.cfi_offset 13, -24
 878              		.cfi_offset 12, -32
 879              		.cfi_offset 3, -40
 880 02df 48897D98 		movq	%rdi, -104(%rbp)
 881 02e3 64488B04 		movq	%fs:40, %rax
 881      25280000 
 881      00
 882 02ec 488945D8 		movq	%rax, -40(%rbp)
 883 02f0 31C0     		xorl	%eax, %eax
 884 02f2 BF000000 		movl	$0, %edi
 884      00
 885              	.LEHB20:
 886 02f7 E8000000 		call	_Z9hsm_resetP5hsm_t
 886      00
 887 02fc 8945AC   		movl	%eax, -84(%rbp)
 888 02ff 837DACFF 		cmpl	$-1, -84(%rbp)
 889 0303 0F84B800 		je	.L39
 889      0000
 890 0309 E8000000 		call	_ZN10UtestShell10getCurrentEv
 890      00
 891              	.LEHE20:
 892 030e 4889C3   		movq	%rax, %rbx
 893 0311 488B03   		movq	(%rbx), %rax
 894 0314 48059800 		addq	$152, %rax
 894      0000
 895 031a 4C8B20   		movq	(%rax), %r12
 896 031d 48C745D0 		movq	$0, -48(%rbp)
 896      00000000 
 897 0325 488D45D0 		leaq	-48(%rbp), %rax
 898 0329 4889C7   		movq	%rax, %rdi
 899 032c E8000000 		call	_ZN20NormalTestTerminatorC1Ev
 899      00
 900 0331 488D45C0 		leaq	-64(%rbp), %rax
 901 0335 8B55AC   		movl	-84(%rbp), %edx
 902 0338 89D6     		movl	%edx, %esi
 903 033a 4889C7   		movq	%rax, %rdi
 904              	.LEHB21:
 905 033d E8000000 		call	_Z10StringFromi
 905      00
 906              	.LEHE21:
 907 0342 488D45C0 		leaq	-64(%rbp), %rax
 908 0346 4889C7   		movq	%rax, %rdi
 909              	.LEHB22:
 910 0349 E8000000 		call	_ZNK12SimpleString12asCharStringEv
 910      00
 911 034e 4989C5   		movq	%rax, %r13
 912 0351 488D45B0 		leaq	-80(%rbp), %rax
 913 0355 BEFFFFFF 		movl	$-1, %esi
GAS LISTING /tmp/ccxHiSG0.s 			page 19


 913      FF
 914 035a 4889C7   		movq	%rax, %rdi
 915 035d E8000000 		call	_Z10StringFromi
 915      00
 916              	.LEHE22:
 917 0362 488D45B0 		leaq	-80(%rbp), %rax
 918 0366 4889C7   		movq	%rax, %rdi
 919              	.LEHB23:
 920 0369 E8000000 		call	_ZNK12SimpleString12asCharStringEv
 920      00
 921 036e 4889C2   		movq	%rax, %rdx
 922 0371 4883EC08 		subq	$8, %rsp
 923 0375 488D45D0 		leaq	-48(%rbp), %rax
 924 0379 50       		pushq	%rax
 925 037a 41B94E00 		movl	$78, %r9d
 925      0000
 926 0380 41B80000 		movl	$.LC0, %r8d
 926      0000
 927 0386 4C89E9   		movq	%r13, %rcx
 928 0389 BE010000 		movl	$1, %esi
 928      00
 929 038e 4889DF   		movq	%rbx, %rdi
 930              		.cfi_escape 0x2e,0x10
 931 0391 41FFD4   		call	*%r12
 932              	.LEHE23:
 933 0394 4883C410 		addq	$16, %rsp
 934 0398 488D45B0 		leaq	-80(%rbp), %rax
 935 039c 4889C7   		movq	%rax, %rdi
 936              	.LEHB24:
 937              		.cfi_escape 0x2e,0
 938 039f E8000000 		call	_ZN12SimpleStringD1Ev
 938      00
 939              	.LEHE24:
 940 03a4 488D45C0 		leaq	-64(%rbp), %rax
 941 03a8 4889C7   		movq	%rax, %rdi
 942              	.LEHB25:
 943 03ab E8000000 		call	_ZN12SimpleStringD1Ev
 943      00
 944              	.LEHE25:
 945 03b0 488D45D0 		leaq	-48(%rbp), %rax
 946 03b4 4889C7   		movq	%rax, %rdi
 947              	.LEHB26:
 948 03b7 E8000000 		call	_ZN20NormalTestTerminatorD1Ev
 948      00
 949 03bc E9AC0000 		jmp	.L38
 949      00
 950              	.L39:
 951 03c1 E8000000 		call	_ZN10UtestShell10getCurrentEv
 951      00
 952              	.LEHE26:
 953 03c6 4889C3   		movq	%rax, %rbx
 954 03c9 488B03   		movq	(%rbx), %rax
 955 03cc 4883C078 		addq	$120, %rax
 956 03d0 4C8B20   		movq	(%rax), %r12
 957 03d3 48C745D0 		movq	$0, -48(%rbp)
 957      00000000 
 958 03db 488D45D0 		leaq	-48(%rbp), %rax
GAS LISTING /tmp/ccxHiSG0.s 			page 20


 959 03df 4889C7   		movq	%rax, %rdi
 960 03e2 E8000000 		call	_ZN20NormalTestTerminatorC1Ev
 960      00
 961 03e7 488D45D0 		leaq	-48(%rbp), %rax
 962 03eb 4989C1   		movq	%rax, %r9
 963 03ee 41B84E00 		movl	$78, %r8d
 963      0000
 964 03f4 B9000000 		movl	$.LC0, %ecx
 964      00
 965 03f9 BA000000 		movl	$0, %edx
 965      00
 966 03fe BE000000 		movl	$0, %esi
 966      00
 967 0403 4889DF   		movq	%rbx, %rdi
 968              	.LEHB27:
 969 0406 41FFD4   		call	*%r12
 970              	.LEHE27:
 971 0409 488D45D0 		leaq	-48(%rbp), %rax
 972 040d 4889C7   		movq	%rax, %rdi
 973              	.LEHB28:
 974 0410 E8000000 		call	_ZN20NormalTestTerminatorD1Ev
 974      00
 975              	.LEHE28:
 976 0415 EB56     		jmp	.L38
 977              	.L48:
 978 0417 4889C3   		movq	%rax, %rbx
 979 041a 488D45B0 		leaq	-80(%rbp), %rax
 980 041e 4889C7   		movq	%rax, %rdi
 981 0421 E8000000 		call	_ZN12SimpleStringD1Ev
 981      00
 982 0426 EB03     		jmp	.L42
 983              	.L47:
 984 0428 4889C3   		movq	%rax, %rbx
 985              	.L42:
 986 042b 488D45C0 		leaq	-64(%rbp), %rax
 987 042f 4889C7   		movq	%rax, %rdi
 988 0432 E8000000 		call	_ZN12SimpleStringD1Ev
 988      00
 989 0437 EB03     		jmp	.L43
 990              	.L46:
 991 0439 4889C3   		movq	%rax, %rbx
 992              	.L43:
 993 043c 488D45D0 		leaq	-48(%rbp), %rax
 994 0440 4889C7   		movq	%rax, %rdi
 995 0443 E8000000 		call	_ZN20NormalTestTerminatorD1Ev
 995      00
 996 0448 4889D8   		movq	%rbx, %rax
 997 044b 4889C7   		movq	%rax, %rdi
 998              	.LEHB29:
 999 044e E8000000 		call	_Unwind_Resume
 999      00
 1000              	.LEHE29:
 1001              	.L49:
 1002 0453 4889C3   		movq	%rax, %rbx
 1003 0456 488D45D0 		leaq	-48(%rbp), %rax
 1004 045a 4889C7   		movq	%rax, %rdi
 1005 045d E8000000 		call	_ZN20NormalTestTerminatorD1Ev
GAS LISTING /tmp/ccxHiSG0.s 			page 21


 1005      00
 1006 0462 4889D8   		movq	%rbx, %rax
 1007 0465 4889C7   		movq	%rax, %rdi
 1008              	.LEHB30:
 1009 0468 E8000000 		call	_Unwind_Resume
 1009      00
 1010              	.LEHE30:
 1011              	.L38:
 1012 046d 488B45D8 		movq	-40(%rbp), %rax
 1013 0471 64483304 		xorq	%fs:40, %rax
 1013      25280000 
 1013      00
 1014 047a 7405     		je	.L45
 1015 047c E8000000 		call	__stack_chk_fail
 1015      00
 1016              	.L45:
 1017 0481 488D65E8 		leaq	-24(%rbp), %rsp
 1018 0485 5B       		popq	%rbx
 1019 0486 415C     		popq	%r12
 1020 0488 415D     		popq	%r13
 1021 048a 5D       		popq	%rbp
 1022              		.cfi_def_cfa 7, 8
 1023 048b C3       		ret
 1024              		.cfi_endproc
 1025              	.LFE716:
 1026              		.section	.gcc_except_table
 1027              	.LLSDA716:
 1028 0061 FF       		.byte	0xff
 1029 0062 FF       		.byte	0xff
 1030 0063 01       		.byte	0x1
 1031 0064 3A       		.uleb128 .LLSDACSE716-.LLSDACSB716
 1032              	.LLSDACSB716:
 1033 0065 25       		.uleb128 .LEHB20-.LFB716
 1034 0066 17       		.uleb128 .LEHE20-.LEHB20
 1035 0067 00       		.uleb128 0
 1036 0068 00       		.uleb128 0
 1037 0069 6B       		.uleb128 .LEHB21-.LFB716
 1038 006a 05       		.uleb128 .LEHE21-.LEHB21
 1039 006b E702     		.uleb128 .L46-.LFB716
 1040 006d 00       		.uleb128 0
 1041 006e 77       		.uleb128 .LEHB22-.LFB716
 1042 006f 19       		.uleb128 .LEHE22-.LEHB22
 1043 0070 D602     		.uleb128 .L47-.LFB716
 1044 0072 00       		.uleb128 0
 1045 0073 9701     		.uleb128 .LEHB23-.LFB716
 1046 0075 2B       		.uleb128 .LEHE23-.LEHB23
 1047 0076 C502     		.uleb128 .L48-.LFB716
 1048 0078 00       		.uleb128 0
 1049 0079 CD01     		.uleb128 .LEHB24-.LFB716
 1050 007b 05       		.uleb128 .LEHE24-.LEHB24
 1051 007c D602     		.uleb128 .L47-.LFB716
 1052 007e 00       		.uleb128 0
 1053 007f D901     		.uleb128 .LEHB25-.LFB716
 1054 0081 05       		.uleb128 .LEHE25-.LEHB25
 1055 0082 E702     		.uleb128 .L46-.LFB716
 1056 0084 00       		.uleb128 0
 1057 0085 E501     		.uleb128 .LEHB26-.LFB716
GAS LISTING /tmp/ccxHiSG0.s 			page 22


 1058 0087 0F       		.uleb128 .LEHE26-.LEHB26
 1059 0088 00       		.uleb128 0
 1060 0089 00       		.uleb128 0
 1061 008a B402     		.uleb128 .LEHB27-.LFB716
 1062 008c 03       		.uleb128 .LEHE27-.LEHB27
 1063 008d 8103     		.uleb128 .L49-.LFB716
 1064 008f 00       		.uleb128 0
 1065 0090 BE02     		.uleb128 .LEHB28-.LFB716
 1066 0092 05       		.uleb128 .LEHE28-.LEHB28
 1067 0093 00       		.uleb128 0
 1068 0094 00       		.uleb128 0
 1069 0095 FC02     		.uleb128 .LEHB29-.LFB716
 1070 0097 05       		.uleb128 .LEHE29-.LEHB29
 1071 0098 00       		.uleb128 0
 1072 0099 00       		.uleb128 0
 1073 009a 9603     		.uleb128 .LEHB30-.LFB716
 1074 009c 05       		.uleb128 .LEHE30-.LEHB30
 1075 009d 00       		.uleb128 0
 1076 009e 00       		.uleb128 0
 1077              	.LLSDACSE716:
 1078              		.text
 1080              		.section	.text._ZN59TEST_hsm_reset_Should_AlsoResetAllStates_When_HsmReset_TestC2Ev,"axG",@progbit
 1081              		.align 2
 1082              		.weak	_ZN59TEST_hsm_reset_Should_AlsoResetAllStates_When_HsmReset_TestC2Ev
 1084              	_ZN59TEST_hsm_reset_Should_AlsoResetAllStates_When_HsmReset_TestC2Ev:
 1085              	.LFB718:
 1086              		.cfi_startproc
 1087 0000 55       		pushq	%rbp
 1088              		.cfi_def_cfa_offset 16
 1089              		.cfi_offset 6, -16
 1090 0001 4889E5   		movq	%rsp, %rbp
 1091              		.cfi_def_cfa_register 6
 1092 0004 4883EC10 		subq	$16, %rsp
 1093 0008 48897DF8 		movq	%rdi, -8(%rbp)
 1094 000c 488B45F8 		movq	-8(%rbp), %rax
 1095 0010 48C70000 		movq	$0, (%rax)
 1095      000000
 1096 0017 488B45F8 		movq	-8(%rbp), %rax
 1097 001b 48C74008 		movq	$0, 8(%rax)
 1097      00000000 
 1098 0023 488B45F8 		movq	-8(%rbp), %rax
 1099 0027 48C74010 		movq	$0, 16(%rax)
 1099      00000000 
 1100 002f 488B45F8 		movq	-8(%rbp), %rax
 1101 0033 48C74018 		movq	$0, 24(%rax)
 1101      00000000 
 1102 003b 488B45F8 		movq	-8(%rbp), %rax
 1103 003f C7402000 		movl	$0, 32(%rax)
 1103      000000
 1104 0046 488B45F8 		movq	-8(%rbp), %rax
 1105 004a C7402800 		movl	$0, 40(%rax)
 1105      000000
 1106 0051 488B45F8 		movq	-8(%rbp), %rax
 1107 0055 4889C7   		movq	%rax, %rdi
 1108 0058 E8000000 		call	_ZN33TEST_GROUP_CppUTestGrouphsm_resetC2Ev
 1108      00
 1109 005d BA000000 		movl	$_ZTV59TEST_hsm_reset_Should_AlsoResetAllStates_When_HsmReset_Test+16, %edx
GAS LISTING /tmp/ccxHiSG0.s 			page 23


 1109      00
 1110 0062 488B45F8 		movq	-8(%rbp), %rax
 1111 0066 488910   		movq	%rdx, (%rax)
 1112 0069 90       		nop
 1113 006a C9       		leave
 1114              		.cfi_def_cfa 7, 8
 1115 006b C3       		ret
 1116              		.cfi_endproc
 1117              	.LFE718:
 1119              		.weak	_ZN59TEST_hsm_reset_Should_AlsoResetAllStates_When_HsmReset_TestC1Ev
 1120              		.set	_ZN59TEST_hsm_reset_Should_AlsoResetAllStates_When_HsmReset_TestC1Ev,_ZN59TEST_hsm_reset_Shou
 1121              		.section	.text._ZN64TEST_hsm_reset_Should_AlsoResetAllStates_When_HsmReset_TestShell10createTestEv
 1122              		.align 2
 1123              		.weak	_ZN64TEST_hsm_reset_Should_AlsoResetAllStates_When_HsmReset_TestShell10createTestEv
 1125              	_ZN64TEST_hsm_reset_Should_AlsoResetAllStates_When_HsmReset_TestShell10createTestEv:
 1126              	.LFB720:
 1127              		.cfi_startproc
 1128              		.cfi_personality 0x3,__gxx_personality_v0
 1129              		.cfi_lsda 0x3,.LLSDA720
 1130 0000 55       		pushq	%rbp
 1131              		.cfi_def_cfa_offset 16
 1132              		.cfi_offset 6, -16
 1133 0001 4889E5   		movq	%rsp, %rbp
 1134              		.cfi_def_cfa_register 6
 1135 0004 4154     		pushq	%r12
 1136 0006 53       		pushq	%rbx
 1137 0007 4883EC10 		subq	$16, %rsp
 1138              		.cfi_offset 12, -24
 1139              		.cfi_offset 3, -32
 1140 000b 48897DE8 		movq	%rdi, -24(%rbp)
 1141 000f BA510000 		movl	$81, %edx
 1141      00
 1142 0014 BE000000 		movl	$.LC0, %esi
 1142      00
 1143 0019 BF300000 		movl	$48, %edi
 1143      00
 1144              	.LEHB31:
 1145 001e E8000000 		call	_ZnwmPKci
 1145      00
 1146              	.LEHE31:
 1147 0023 4889C3   		movq	%rax, %rbx
 1148 0026 4889DF   		movq	%rbx, %rdi
 1149              	.LEHB32:
 1150 0029 E8000000 		call	_ZN59TEST_hsm_reset_Should_AlsoResetAllStates_When_HsmReset_TestC1Ev
 1150      00
 1151              	.LEHE32:
 1152 002e 4889D8   		movq	%rbx, %rax
 1153 0031 EB20     		jmp	.L55
 1154              	.L54:
 1155 0033 4989C4   		movq	%rax, %r12
 1156 0036 BA510000 		movl	$81, %edx
 1156      00
 1157 003b BE000000 		movl	$.LC0, %esi
 1157      00
 1158 0040 4889DF   		movq	%rbx, %rdi
 1159 0043 E8000000 		call	_ZdlPvPKci
 1159      00
GAS LISTING /tmp/ccxHiSG0.s 			page 24


 1160 0048 4C89E0   		movq	%r12, %rax
 1161 004b 4889C7   		movq	%rax, %rdi
 1162              	.LEHB33:
 1163 004e E8000000 		call	_Unwind_Resume
 1163      00
 1164              	.LEHE33:
 1165              	.L55:
 1166 0053 4883C410 		addq	$16, %rsp
 1167 0057 5B       		popq	%rbx
 1168 0058 415C     		popq	%r12
 1169 005a 5D       		popq	%rbp
 1170              		.cfi_def_cfa 7, 8
 1171 005b C3       		ret
 1172              		.cfi_endproc
 1173              	.LFE720:
 1174              		.section	.gcc_except_table
 1175              	.LLSDA720:
 1176 009f FF       		.byte	0xff
 1177 00a0 FF       		.byte	0xff
 1178 00a1 01       		.byte	0x1
 1179 00a2 0C       		.uleb128 .LLSDACSE720-.LLSDACSB720
 1180              	.LLSDACSB720:
 1181 00a3 1E       		.uleb128 .LEHB31-.LFB720
 1182 00a4 05       		.uleb128 .LEHE31-.LEHB31
 1183 00a5 00       		.uleb128 0
 1184 00a6 00       		.uleb128 0
 1185 00a7 29       		.uleb128 .LEHB32-.LFB720
 1186 00a8 05       		.uleb128 .LEHE32-.LEHB32
 1187 00a9 33       		.uleb128 .L54-.LFB720
 1188 00aa 00       		.uleb128 0
 1189 00ab 4E       		.uleb128 .LEHB33-.LFB720
 1190 00ac 05       		.uleb128 .LEHE33-.LEHB33
 1191 00ad 00       		.uleb128 0
 1192 00ae 00       		.uleb128 0
 1193              	.LLSDACSE720:
 1194              		.section	.text._ZN64TEST_hsm_reset_Should_AlsoResetAllStates_When_HsmReset_TestShell10createTestEv
 1196              		.section	.text._ZN64TEST_hsm_reset_Should_AlsoResetAllStates_When_HsmReset_TestShellC2Ev,"axG",@pr
 1197              		.align 2
 1198              		.weak	_ZN64TEST_hsm_reset_Should_AlsoResetAllStates_When_HsmReset_TestShellC2Ev
 1200              	_ZN64TEST_hsm_reset_Should_AlsoResetAllStates_When_HsmReset_TestShellC2Ev:
 1201              	.LFB722:
 1202              		.cfi_startproc
 1203 0000 55       		pushq	%rbp
 1204              		.cfi_def_cfa_offset 16
 1205              		.cfi_offset 6, -16
 1206 0001 4889E5   		movq	%rsp, %rbp
 1207              		.cfi_def_cfa_register 6
 1208 0004 4883EC10 		subq	$16, %rsp
 1209 0008 48897DF8 		movq	%rdi, -8(%rbp)
 1210 000c 488B45F8 		movq	-8(%rbp), %rax
 1211 0010 4889C7   		movq	%rax, %rdi
 1212 0013 E8000000 		call	_ZN10UtestShellC2Ev
 1212      00
 1213 0018 BA000000 		movl	$_ZTV64TEST_hsm_reset_Should_AlsoResetAllStates_When_HsmReset_TestShell+16, %edx
 1213      00
 1214 001d 488B45F8 		movq	-8(%rbp), %rax
 1215 0021 488910   		movq	%rdx, (%rax)
GAS LISTING /tmp/ccxHiSG0.s 			page 25


 1216 0024 90       		nop
 1217 0025 C9       		leave
 1218              		.cfi_def_cfa 7, 8
 1219 0026 C3       		ret
 1220              		.cfi_endproc
 1221              	.LFE722:
 1223              		.weak	_ZN64TEST_hsm_reset_Should_AlsoResetAllStates_When_HsmReset_TestShellC1Ev
 1224              		.set	_ZN64TEST_hsm_reset_Should_AlsoResetAllStates_When_HsmReset_TestShellC1Ev,_ZN64TEST_hsm_reset
 1225              		.globl	TEST_hsm_reset_Should_AlsoResetAllStates_When_HsmReset_TestShell_instance
 1226              		.bss
 1227 0098 00000000 		.align 32
 1227      00000000 
 1230              	TEST_hsm_reset_Should_AlsoResetAllStates_When_HsmReset_TestShell_instance:
 1231 00a0 00000000 		.zero	56
 1231      00000000 
 1231      00000000 
 1231      00000000 
 1231      00000000 
 1232              		.local	_ZL64TEST_hsm_reset_Should_AlsoResetAllStates_When_HsmReset_Installer
 1233              		.comm	_ZL64TEST_hsm_reset_Should_AlsoResetAllStates_When_HsmReset_Installer,8,8
 1234              		.text
 1235              		.align 2
 1236              		.globl	_ZN59TEST_hsm_reset_Should_AlsoResetAllStates_When_HsmReset_Test8testBodyEv
 1238              	_ZN59TEST_hsm_reset_Should_AlsoResetAllStates_When_HsmReset_Test8testBodyEv:
 1239              	.LFB724:
 1240              		.cfi_startproc
 1241              		.cfi_personality 0x3,__gxx_personality_v0
 1242              		.cfi_lsda 0x3,.LLSDA724
 1243 048c 55       		pushq	%rbp
 1244              		.cfi_def_cfa_offset 16
 1245              		.cfi_offset 6, -16
 1246 048d 4889E5   		movq	%rsp, %rbp
 1247              		.cfi_def_cfa_register 6
 1248 0490 4155     		pushq	%r13
 1249 0492 4154     		pushq	%r12
 1250 0494 53       		pushq	%rbx
 1251 0495 4883EC58 		subq	$88, %rsp
 1252              		.cfi_offset 13, -24
 1253              		.cfi_offset 12, -32
 1254              		.cfi_offset 3, -40
 1255 0499 48897D98 		movq	%rdi, -104(%rbp)
 1256 049d 64488B04 		movq	%fs:40, %rax
 1256      25280000 
 1256      00
 1257 04a6 488945D8 		movq	%rax, -40(%rbp)
 1258 04aa 31C0     		xorl	%eax, %eax
 1259 04ac 488B4598 		movq	-104(%rbp), %rax
 1260 04b0 48C74010 		movq	$_ZL9nextState, 16(%rax)
 1260      00000000 
 1261 04b8 C7050000 		movl	$1, _ZL12initialState+52(%rip)
 1261      00000100 
 1261      0000
 1262 04c2 C7050000 		movl	$1, _ZL9nextState+52(%rip)
 1262      00000100 
 1262      0000
 1263 04cc 488B4598 		movq	-104(%rbp), %rax
 1264 04d0 4883C008 		addq	$8, %rax
GAS LISTING /tmp/ccxHiSG0.s 			page 26


 1265 04d4 4889C7   		movq	%rax, %rdi
 1266              	.LEHB34:
 1267 04d7 E8000000 		call	_Z9hsm_resetP5hsm_t
 1267      00
 1268 04dc 8945AC   		movl	%eax, -84(%rbp)
 1269 04df E8000000 		call	_ZN10UtestShell10getCurrentEv
 1269      00
 1270 04e4 488B10   		movq	(%rax), %rdx
 1271 04e7 4881C288 		addq	$136, %rdx
 1271      000000
 1272 04ee 4C8B0A   		movq	(%rdx), %r9
 1273 04f1 488B5598 		movq	-104(%rbp), %rdx
 1274 04f5 488B5208 		movq	8(%rdx), %rdx
 1275 04f9 41B85E00 		movl	$94, %r8d
 1275      0000
 1276 04ff B9000000 		movl	$.LC0, %ecx
 1276      00
 1277 0504 BE000000 		movl	$_ZL12initialState, %esi
 1277      00
 1278 0509 4889C7   		movq	%rax, %rdi
 1279 050c 41FFD1   		call	*%r9
 1280 050f E8000000 		call	_ZN10UtestShell10getCurrentEv
 1280      00
 1281 0514 488B10   		movq	(%rax), %rdx
 1282 0517 4881C288 		addq	$136, %rdx
 1282      000000
 1283 051e 4C8B0A   		movq	(%rdx), %r9
 1284 0521 488B5598 		movq	-104(%rbp), %rdx
 1285 0525 488B5210 		movq	16(%rdx), %rdx
 1286 0529 41B85F00 		movl	$95, %r8d
 1286      0000
 1287 052f B9000000 		movl	$.LC0, %ecx
 1287      00
 1288 0534 BE000000 		movl	$_ZL12initialState, %esi
 1288      00
 1289 0539 4889C7   		movq	%rax, %rdi
 1290 053c 41FFD1   		call	*%r9
 1291 053f E8000000 		call	_ZN10UtestShell10getCurrentEv
 1291      00
 1292 0544 488B10   		movq	(%rax), %rdx
 1293 0547 4881C288 		addq	$136, %rdx
 1293      000000
 1294 054e 4C8B0A   		movq	(%rdx), %r9
 1295 0551 488B5598 		movq	-104(%rbp), %rdx
 1296 0555 488B5218 		movq	24(%rdx), %rdx
 1297 0559 41B86000 		movl	$96, %r8d
 1297      0000
 1298 055f B9000000 		movl	$.LC0, %ecx
 1298      00
 1299 0564 BE000000 		movl	$_ZL9stateList, %esi
 1299      00
 1300 0569 4889C7   		movq	%rax, %rdi
 1301 056c 41FFD1   		call	*%r9
 1302 056f E8000000 		call	_ZN10UtestShell10getCurrentEv
 1302      00
 1303              	.LEHE34:
 1304 0574 4889C3   		movq	%rax, %rbx
GAS LISTING /tmp/ccxHiSG0.s 			page 27


 1305 0577 488B03   		movq	(%rbx), %rax
 1306 057a 4883C078 		addq	$120, %rax
 1307 057e 4C8B20   		movq	(%rax), %r12
 1308 0581 48C745D0 		movq	$0, -48(%rbp)
 1308      00000000 
 1309 0589 488D45D0 		leaq	-48(%rbp), %rax
 1310 058d 4889C7   		movq	%rax, %rdi
 1311 0590 E8000000 		call	_ZN20NormalTestTerminatorC1Ev
 1311      00
 1312 0595 488B4598 		movq	-104(%rbp), %rax
 1313 0599 8B4020   		movl	32(%rax), %eax
 1314 059c 89C2     		movl	%eax, %edx
 1315 059e 488B4598 		movq	-104(%rbp), %rax
 1316 05a2 8B4028   		movl	40(%rax), %eax
 1317 05a5 89C6     		movl	%eax, %esi
 1318 05a7 488D45D0 		leaq	-48(%rbp), %rax
 1319 05ab 4989C1   		movq	%rax, %r9
 1320 05ae 41B86100 		movl	$97, %r8d
 1320      0000
 1321 05b4 B9000000 		movl	$.LC0, %ecx
 1321      00
 1322 05b9 4889DF   		movq	%rbx, %rdi
 1323              	.LEHB35:
 1324 05bc 41FFD4   		call	*%r12
 1325              	.LEHE35:
 1326 05bf 488D45D0 		leaq	-48(%rbp), %rax
 1327 05c3 4889C7   		movq	%rax, %rdi
 1328              	.LEHB36:
 1329 05c6 E8000000 		call	_ZN20NormalTestTerminatorD1Ev
 1329      00
 1330 05cb 837DAC00 		cmpl	$0, -84(%rbp)
 1331 05cf 0F84B500 		je	.L58
 1331      0000
 1332 05d5 E8000000 		call	_ZN10UtestShell10getCurrentEv
 1332      00
 1333              	.LEHE36:
 1334 05da 4889C3   		movq	%rax, %rbx
 1335 05dd 488B03   		movq	(%rbx), %rax
 1336 05e0 48059800 		addq	$152, %rax
 1336      0000
 1337 05e6 4C8B20   		movq	(%rax), %r12
 1338 05e9 48C745D0 		movq	$0, -48(%rbp)
 1338      00000000 
 1339 05f1 488D45D0 		leaq	-48(%rbp), %rax
 1340 05f5 4889C7   		movq	%rax, %rdi
 1341 05f8 E8000000 		call	_ZN20NormalTestTerminatorC1Ev
 1341      00
 1342 05fd 488D45C0 		leaq	-64(%rbp), %rax
 1343 0601 8B55AC   		movl	-84(%rbp), %edx
 1344 0604 89D6     		movl	%edx, %esi
 1345 0606 4889C7   		movq	%rax, %rdi
 1346              	.LEHB37:
 1347 0609 E8000000 		call	_Z10StringFromi
 1347      00
 1348              	.LEHE37:
 1349 060e 488D45C0 		leaq	-64(%rbp), %rax
 1350 0612 4889C7   		movq	%rax, %rdi
GAS LISTING /tmp/ccxHiSG0.s 			page 28


 1351              	.LEHB38:
 1352 0615 E8000000 		call	_ZNK12SimpleString12asCharStringEv
 1352      00
 1353 061a 4989C5   		movq	%rax, %r13
 1354 061d 488D45B0 		leaq	-80(%rbp), %rax
 1355 0621 BE000000 		movl	$0, %esi
 1355      00
 1356 0626 4889C7   		movq	%rax, %rdi
 1357 0629 E8000000 		call	_Z10StringFromi
 1357      00
 1358              	.LEHE38:
 1359 062e 488D45B0 		leaq	-80(%rbp), %rax
 1360 0632 4889C7   		movq	%rax, %rdi
 1361              	.LEHB39:
 1362 0635 E8000000 		call	_ZNK12SimpleString12asCharStringEv
 1362      00
 1363 063a 4889C2   		movq	%rax, %rdx
 1364 063d 4883EC08 		subq	$8, %rsp
 1365 0641 488D45D0 		leaq	-48(%rbp), %rax
 1366 0645 50       		pushq	%rax
 1367 0646 41B96200 		movl	$98, %r9d
 1367      0000
 1368 064c 41B80000 		movl	$.LC0, %r8d
 1368      0000
 1369 0652 4C89E9   		movq	%r13, %rcx
 1370 0655 BE010000 		movl	$1, %esi
 1370      00
 1371 065a 4889DF   		movq	%rbx, %rdi
 1372              		.cfi_escape 0x2e,0x10
 1373 065d 41FFD4   		call	*%r12
 1374              	.LEHE39:
 1375 0660 4883C410 		addq	$16, %rsp
 1376 0664 488D45B0 		leaq	-80(%rbp), %rax
 1377 0668 4889C7   		movq	%rax, %rdi
 1378              	.LEHB40:
 1379              		.cfi_escape 0x2e,0
 1380 066b E8000000 		call	_ZN12SimpleStringD1Ev
 1380      00
 1381              	.LEHE40:
 1382 0670 488D45C0 		leaq	-64(%rbp), %rax
 1383 0674 4889C7   		movq	%rax, %rdi
 1384              	.LEHB41:
 1385 0677 E8000000 		call	_ZN12SimpleStringD1Ev
 1385      00
 1386              	.LEHE41:
 1387 067c 488D45D0 		leaq	-48(%rbp), %rax
 1388 0680 4889C7   		movq	%rax, %rdi
 1389              	.LEHB42:
 1390 0683 E8000000 		call	_ZN20NormalTestTerminatorD1Ev
 1390      00
 1391 0688 EB54     		jmp	.L59
 1392              	.L58:
 1393 068a E8000000 		call	_ZN10UtestShell10getCurrentEv
 1393      00
 1394              	.LEHE42:
 1395 068f 4889C3   		movq	%rax, %rbx
 1396 0692 488B03   		movq	(%rbx), %rax
GAS LISTING /tmp/ccxHiSG0.s 			page 29


 1397 0695 4883C078 		addq	$120, %rax
 1398 0699 4C8B20   		movq	(%rax), %r12
 1399 069c 48C745D0 		movq	$0, -48(%rbp)
 1399      00000000 
 1400 06a4 488D45D0 		leaq	-48(%rbp), %rax
 1401 06a8 4889C7   		movq	%rax, %rdi
 1402 06ab E8000000 		call	_ZN20NormalTestTerminatorC1Ev
 1402      00
 1403 06b0 488D45D0 		leaq	-48(%rbp), %rax
 1404 06b4 4989C1   		movq	%rax, %r9
 1405 06b7 41B86200 		movl	$98, %r8d
 1405      0000
 1406 06bd B9000000 		movl	$.LC0, %ecx
 1406      00
 1407 06c2 BA000000 		movl	$0, %edx
 1407      00
 1408 06c7 BE000000 		movl	$0, %esi
 1408      00
 1409 06cc 4889DF   		movq	%rbx, %rdi
 1410              	.LEHB43:
 1411 06cf 41FFD4   		call	*%r12
 1412              	.LEHE43:
 1413 06d2 488D45D0 		leaq	-48(%rbp), %rax
 1414 06d6 4889C7   		movq	%rax, %rdi
 1415              	.LEHB44:
 1416 06d9 E8000000 		call	_ZN20NormalTestTerminatorD1Ev
 1416      00
 1417              	.L59:
 1418 06de E8000000 		call	_ZN10UtestShell10getCurrentEv
 1418      00
 1419              	.LEHE44:
 1420 06e3 4889C3   		movq	%rax, %rbx
 1421 06e6 488B03   		movq	(%rbx), %rax
 1422 06e9 4883C078 		addq	$120, %rax
 1423 06ed 4C8B20   		movq	(%rax), %r12
 1424 06f0 48C745D0 		movq	$0, -48(%rbp)
 1424      00000000 
 1425 06f8 488D45D0 		leaq	-48(%rbp), %rax
 1426 06fc 4889C7   		movq	%rax, %rdi
 1427 06ff E8000000 		call	_ZN20NormalTestTerminatorC1Ev
 1427      00
 1428 0704 488B4598 		movq	-104(%rbp), %rax
 1429 0708 488B4018 		movq	24(%rax), %rax
 1430 070c 488B00   		movq	(%rax), %rax
 1431 070f 8B4034   		movl	52(%rax), %eax
 1432 0712 89C2     		movl	%eax, %edx
 1433 0714 488D45D0 		leaq	-48(%rbp), %rax
 1434 0718 4989C1   		movq	%rax, %r9
 1435 071b 41B86500 		movl	$101, %r8d
 1435      0000
 1436 0721 B9000000 		movl	$.LC0, %ecx
 1436      00
 1437 0726 BE000000 		movl	$0, %esi
 1437      00
 1438 072b 4889DF   		movq	%rbx, %rdi
 1439              	.LEHB45:
 1440 072e 41FFD4   		call	*%r12
GAS LISTING /tmp/ccxHiSG0.s 			page 30


 1441              	.LEHE45:
 1442 0731 488D45D0 		leaq	-48(%rbp), %rax
 1443 0735 4889C7   		movq	%rax, %rdi
 1444              	.LEHB46:
 1445 0738 E8000000 		call	_ZN20NormalTestTerminatorD1Ev
 1445      00
 1446 073d E8000000 		call	_ZN10UtestShell10getCurrentEv
 1446      00
 1447              	.LEHE46:
 1448 0742 4889C3   		movq	%rax, %rbx
 1449 0745 488B03   		movq	(%rbx), %rax
 1450 0748 4883C078 		addq	$120, %rax
 1451 074c 4C8B20   		movq	(%rax), %r12
 1452 074f 48C745D0 		movq	$0, -48(%rbp)
 1452      00000000 
 1453 0757 488D45D0 		leaq	-48(%rbp), %rax
 1454 075b 4889C7   		movq	%rax, %rdi
 1455 075e E8000000 		call	_ZN20NormalTestTerminatorC1Ev
 1455      00
 1456 0763 488B4598 		movq	-104(%rbp), %rax
 1457 0767 488B4018 		movq	24(%rax), %rax
 1458 076b 4883C008 		addq	$8, %rax
 1459 076f 488B00   		movq	(%rax), %rax
 1460 0772 8B4034   		movl	52(%rax), %eax
 1461 0775 89C2     		movl	%eax, %edx
 1462 0777 488D45D0 		leaq	-48(%rbp), %rax
 1463 077b 4989C1   		movq	%rax, %r9
 1464 077e 41B86600 		movl	$102, %r8d
 1464      0000
 1465 0784 B9000000 		movl	$.LC0, %ecx
 1465      00
 1466 0789 BE000000 		movl	$0, %esi
 1466      00
 1467 078e 4889DF   		movq	%rbx, %rdi
 1468              	.LEHB47:
 1469 0791 41FFD4   		call	*%r12
 1470              	.LEHE47:
 1471 0794 488D45D0 		leaq	-48(%rbp), %rax
 1472 0798 4889C7   		movq	%rax, %rdi
 1473              	.LEHB48:
 1474 079b E8000000 		call	_ZN20NormalTestTerminatorD1Ev
 1474      00
 1475 07a0 E8000000 		call	_ZN10UtestShell10getCurrentEv
 1475      00
 1476              	.LEHE48:
 1477 07a5 4889C3   		movq	%rax, %rbx
 1478 07a8 488B03   		movq	(%rbx), %rax
 1479 07ab 4883C078 		addq	$120, %rax
 1480 07af 4C8B20   		movq	(%rax), %r12
 1481 07b2 48C745D0 		movq	$0, -48(%rbp)
 1481      00000000 
 1482 07ba 488D45D0 		leaq	-48(%rbp), %rax
 1483 07be 4889C7   		movq	%rax, %rdi
 1484 07c1 E8000000 		call	_ZN20NormalTestTerminatorC1Ev
 1484      00
 1485 07c6 8B050000 		movl	_ZL12initialState+52(%rip), %eax
 1485      0000
GAS LISTING /tmp/ccxHiSG0.s 			page 31


 1486 07cc 89C2     		movl	%eax, %edx
 1487 07ce 488D45D0 		leaq	-48(%rbp), %rax
 1488 07d2 4989C1   		movq	%rax, %r9
 1489 07d5 41B86900 		movl	$105, %r8d
 1489      0000
 1490 07db B9000000 		movl	$.LC0, %ecx
 1490      00
 1491 07e0 BE000000 		movl	$0, %esi
 1491      00
 1492 07e5 4889DF   		movq	%rbx, %rdi
 1493              	.LEHB49:
 1494 07e8 41FFD4   		call	*%r12
 1495              	.LEHE49:
 1496 07eb 488D45D0 		leaq	-48(%rbp), %rax
 1497 07ef 4889C7   		movq	%rax, %rdi
 1498              	.LEHB50:
 1499 07f2 E8000000 		call	_ZN20NormalTestTerminatorD1Ev
 1499      00
 1500 07f7 E8000000 		call	_ZN10UtestShell10getCurrentEv
 1500      00
 1501              	.LEHE50:
 1502 07fc 4889C3   		movq	%rax, %rbx
 1503 07ff 488B03   		movq	(%rbx), %rax
 1504 0802 4883C078 		addq	$120, %rax
 1505 0806 4C8B20   		movq	(%rax), %r12
 1506 0809 48C745D0 		movq	$0, -48(%rbp)
 1506      00000000 
 1507 0811 488D45D0 		leaq	-48(%rbp), %rax
 1508 0815 4889C7   		movq	%rax, %rdi
 1509 0818 E8000000 		call	_ZN20NormalTestTerminatorC1Ev
 1509      00
 1510 081d 8B050000 		movl	_ZL9nextState+52(%rip), %eax
 1510      0000
 1511 0823 89C2     		movl	%eax, %edx
 1512 0825 488D45D0 		leaq	-48(%rbp), %rax
 1513 0829 4989C1   		movq	%rax, %r9
 1514 082c 41B86A00 		movl	$106, %r8d
 1514      0000
 1515 0832 B9000000 		movl	$.LC0, %ecx
 1515      00
 1516 0837 BE000000 		movl	$0, %esi
 1516      00
 1517 083c 4889DF   		movq	%rbx, %rdi
 1518              	.LEHB51:
 1519 083f 41FFD4   		call	*%r12
 1520              	.LEHE51:
 1521 0842 488D45D0 		leaq	-48(%rbp), %rax
 1522 0846 4889C7   		movq	%rax, %rdi
 1523              	.LEHB52:
 1524 0849 E8000000 		call	_ZN20NormalTestTerminatorD1Ev
 1524      00
 1525              	.LEHE52:
 1526 084e 90       		nop
 1527 084f 488B45D8 		movq	-40(%rbp), %rax
 1528 0853 64483304 		xorq	%fs:40, %rax
 1528      25280000 
 1528      00
GAS LISTING /tmp/ccxHiSG0.s 			page 32


 1529 085c 0F84E200 		je	.L69
 1529      0000
 1530 0862 E9D80000 		jmp	.L79
 1530      00
 1531              	.L70:
 1532 0867 4889C3   		movq	%rax, %rbx
 1533 086a 488D45D0 		leaq	-48(%rbp), %rax
 1534 086e 4889C7   		movq	%rax, %rdi
 1535 0871 E8000000 		call	_ZN20NormalTestTerminatorD1Ev
 1535      00
 1536 0876 4889D8   		movq	%rbx, %rax
 1537 0879 4889C7   		movq	%rax, %rdi
 1538              	.LEHB53:
 1539 087c E8000000 		call	_Unwind_Resume
 1539      00
 1540              	.LEHE53:
 1541              	.L73:
 1542 0881 4889C3   		movq	%rax, %rbx
 1543 0884 488D45B0 		leaq	-80(%rbp), %rax
 1544 0888 4889C7   		movq	%rax, %rdi
 1545 088b E8000000 		call	_ZN12SimpleStringD1Ev
 1545      00
 1546 0890 EB03     		jmp	.L62
 1547              	.L72:
 1548 0892 4889C3   		movq	%rax, %rbx
 1549              	.L62:
 1550 0895 488D45C0 		leaq	-64(%rbp), %rax
 1551 0899 4889C7   		movq	%rax, %rdi
 1552 089c E8000000 		call	_ZN12SimpleStringD1Ev
 1552      00
 1553 08a1 EB03     		jmp	.L63
 1554              	.L71:
 1555 08a3 4889C3   		movq	%rax, %rbx
 1556              	.L63:
 1557 08a6 488D45D0 		leaq	-48(%rbp), %rax
 1558 08aa 4889C7   		movq	%rax, %rdi
 1559 08ad E8000000 		call	_ZN20NormalTestTerminatorD1Ev
 1559      00
 1560 08b2 4889D8   		movq	%rbx, %rax
 1561 08b5 4889C7   		movq	%rax, %rdi
 1562              	.LEHB54:
 1563 08b8 E8000000 		call	_Unwind_Resume
 1563      00
 1564              	.LEHE54:
 1565              	.L74:
 1566 08bd 4889C3   		movq	%rax, %rbx
 1567 08c0 488D45D0 		leaq	-48(%rbp), %rax
 1568 08c4 4889C7   		movq	%rax, %rdi
 1569 08c7 E8000000 		call	_ZN20NormalTestTerminatorD1Ev
 1569      00
 1570 08cc 4889D8   		movq	%rbx, %rax
 1571 08cf 4889C7   		movq	%rax, %rdi
 1572              	.LEHB55:
 1573 08d2 E8000000 		call	_Unwind_Resume
 1573      00
 1574              	.LEHE55:
 1575              	.L75:
GAS LISTING /tmp/ccxHiSG0.s 			page 33


 1576 08d7 4889C3   		movq	%rax, %rbx
 1577 08da 488D45D0 		leaq	-48(%rbp), %rax
 1578 08de 4889C7   		movq	%rax, %rdi
 1579 08e1 E8000000 		call	_ZN20NormalTestTerminatorD1Ev
 1579      00
 1580 08e6 4889D8   		movq	%rbx, %rax
 1581 08e9 4889C7   		movq	%rax, %rdi
 1582              	.LEHB56:
 1583 08ec E8000000 		call	_Unwind_Resume
 1583      00
 1584              	.LEHE56:
 1585              	.L76:
 1586 08f1 4889C3   		movq	%rax, %rbx
 1587 08f4 488D45D0 		leaq	-48(%rbp), %rax
 1588 08f8 4889C7   		movq	%rax, %rdi
 1589 08fb E8000000 		call	_ZN20NormalTestTerminatorD1Ev
 1589      00
 1590 0900 4889D8   		movq	%rbx, %rax
 1591 0903 4889C7   		movq	%rax, %rdi
 1592              	.LEHB57:
 1593 0906 E8000000 		call	_Unwind_Resume
 1593      00
 1594              	.LEHE57:
 1595              	.L77:
 1596 090b 4889C3   		movq	%rax, %rbx
 1597 090e 488D45D0 		leaq	-48(%rbp), %rax
 1598 0912 4889C7   		movq	%rax, %rdi
 1599 0915 E8000000 		call	_ZN20NormalTestTerminatorD1Ev
 1599      00
 1600 091a 4889D8   		movq	%rbx, %rax
 1601 091d 4889C7   		movq	%rax, %rdi
 1602              	.LEHB58:
 1603 0920 E8000000 		call	_Unwind_Resume
 1603      00
 1604              	.LEHE58:
 1605              	.L78:
 1606 0925 4889C3   		movq	%rax, %rbx
 1607 0928 488D45D0 		leaq	-48(%rbp), %rax
 1608 092c 4889C7   		movq	%rax, %rdi
 1609 092f E8000000 		call	_ZN20NormalTestTerminatorD1Ev
 1609      00
 1610 0934 4889D8   		movq	%rbx, %rax
 1611 0937 4889C7   		movq	%rax, %rdi
 1612              	.LEHB59:
 1613 093a E8000000 		call	_Unwind_Resume
 1613      00
 1614              	.LEHE59:
 1615              	.L79:
 1616 093f E8000000 		call	__stack_chk_fail
 1616      00
 1617              	.L69:
 1618 0944 488D65E8 		leaq	-24(%rbp), %rsp
 1619 0948 5B       		popq	%rbx
 1620 0949 415C     		popq	%r12
 1621 094b 415D     		popq	%r13
 1622 094d 5D       		popq	%rbp
 1623              		.cfi_def_cfa 7, 8
GAS LISTING /tmp/ccxHiSG0.s 			page 34


 1624 094e C3       		ret
 1625              		.cfi_endproc
 1626              	.LFE724:
 1627              		.section	.gcc_except_table
 1628              	.LLSDA724:
 1629 00af FF       		.byte	0xff
 1630 00b0 FF       		.byte	0xff
 1631 00b1 01       		.byte	0x1
 1632 00b2 8D01     		.uleb128 .LLSDACSE724-.LLSDACSB724
 1633              	.LLSDACSB724:
 1634 00b4 4B       		.uleb128 .LEHB34-.LFB724
 1635 00b5 9D01     		.uleb128 .LEHE34-.LEHB34
 1636 00b7 00       		.uleb128 0
 1637 00b8 00       		.uleb128 0
 1638 00b9 B002     		.uleb128 .LEHB35-.LFB724
 1639 00bb 03       		.uleb128 .LEHE35-.LEHB35
 1640 00bc DB07     		.uleb128 .L70-.LFB724
 1641 00be 00       		.uleb128 0
 1642 00bf BA02     		.uleb128 .LEHB36-.LFB724
 1643 00c1 14       		.uleb128 .LEHE36-.LEHB36
 1644 00c2 00       		.uleb128 0
 1645 00c3 00       		.uleb128 0
 1646 00c4 FD02     		.uleb128 .LEHB37-.LFB724
 1647 00c6 05       		.uleb128 .LEHE37-.LEHB37
 1648 00c7 9708     		.uleb128 .L71-.LFB724
 1649 00c9 00       		.uleb128 0
 1650 00ca 8903     		.uleb128 .LEHB38-.LFB724
 1651 00cc 19       		.uleb128 .LEHE38-.LEHB38
 1652 00cd 8608     		.uleb128 .L72-.LFB724
 1653 00cf 00       		.uleb128 0
 1654 00d0 A903     		.uleb128 .LEHB39-.LFB724
 1655 00d2 2B       		.uleb128 .LEHE39-.LEHB39
 1656 00d3 F507     		.uleb128 .L73-.LFB724
 1657 00d5 00       		.uleb128 0
 1658 00d6 DF03     		.uleb128 .LEHB40-.LFB724
 1659 00d8 05       		.uleb128 .LEHE40-.LEHB40
 1660 00d9 8608     		.uleb128 .L72-.LFB724
 1661 00db 00       		.uleb128 0
 1662 00dc EB03     		.uleb128 .LEHB41-.LFB724
 1663 00de 05       		.uleb128 .LEHE41-.LEHB41
 1664 00df 9708     		.uleb128 .L71-.LFB724
 1665 00e1 00       		.uleb128 0
 1666 00e2 F703     		.uleb128 .LEHB42-.LFB724
 1667 00e4 0C       		.uleb128 .LEHE42-.LEHB42
 1668 00e5 00       		.uleb128 0
 1669 00e6 00       		.uleb128 0
 1670 00e7 C304     		.uleb128 .LEHB43-.LFB724
 1671 00e9 03       		.uleb128 .LEHE43-.LEHB43
 1672 00ea B108     		.uleb128 .L74-.LFB724
 1673 00ec 00       		.uleb128 0
 1674 00ed CD04     		.uleb128 .LEHB44-.LFB724
 1675 00ef 0A       		.uleb128 .LEHE44-.LEHB44
 1676 00f0 00       		.uleb128 0
 1677 00f1 00       		.uleb128 0
 1678 00f2 A205     		.uleb128 .LEHB45-.LFB724
 1679 00f4 03       		.uleb128 .LEHE45-.LEHB45
 1680 00f5 CB08     		.uleb128 .L75-.LFB724
GAS LISTING /tmp/ccxHiSG0.s 			page 35


 1681 00f7 00       		.uleb128 0
 1682 00f8 AC05     		.uleb128 .LEHB46-.LFB724
 1683 00fa 0A       		.uleb128 .LEHE46-.LEHB46
 1684 00fb 00       		.uleb128 0
 1685 00fc 00       		.uleb128 0
 1686 00fd 8506     		.uleb128 .LEHB47-.LFB724
 1687 00ff 03       		.uleb128 .LEHE47-.LEHB47
 1688 0100 E508     		.uleb128 .L76-.LFB724
 1689 0102 00       		.uleb128 0
 1690 0103 8F06     		.uleb128 .LEHB48-.LFB724
 1691 0105 0A       		.uleb128 .LEHE48-.LEHB48
 1692 0106 00       		.uleb128 0
 1693 0107 00       		.uleb128 0
 1694 0108 DC06     		.uleb128 .LEHB49-.LFB724
 1695 010a 03       		.uleb128 .LEHE49-.LEHB49
 1696 010b FF08     		.uleb128 .L77-.LFB724
 1697 010d 00       		.uleb128 0
 1698 010e E606     		.uleb128 .LEHB50-.LFB724
 1699 0110 0A       		.uleb128 .LEHE50-.LEHB50
 1700 0111 00       		.uleb128 0
 1701 0112 00       		.uleb128 0
 1702 0113 B307     		.uleb128 .LEHB51-.LFB724
 1703 0115 03       		.uleb128 .LEHE51-.LEHB51
 1704 0116 9909     		.uleb128 .L78-.LFB724
 1705 0118 00       		.uleb128 0
 1706 0119 BD07     		.uleb128 .LEHB52-.LFB724
 1707 011b 05       		.uleb128 .LEHE52-.LEHB52
 1708 011c 00       		.uleb128 0
 1709 011d 00       		.uleb128 0
 1710 011e F007     		.uleb128 .LEHB53-.LFB724
 1711 0120 05       		.uleb128 .LEHE53-.LEHB53
 1712 0121 00       		.uleb128 0
 1713 0122 00       		.uleb128 0
 1714 0123 AC08     		.uleb128 .LEHB54-.LFB724
 1715 0125 05       		.uleb128 .LEHE54-.LEHB54
 1716 0126 00       		.uleb128 0
 1717 0127 00       		.uleb128 0
 1718 0128 C608     		.uleb128 .LEHB55-.LFB724
 1719 012a 05       		.uleb128 .LEHE55-.LEHB55
 1720 012b 00       		.uleb128 0
 1721 012c 00       		.uleb128 0
 1722 012d E008     		.uleb128 .LEHB56-.LFB724
 1723 012f 05       		.uleb128 .LEHE56-.LEHB56
 1724 0130 00       		.uleb128 0
 1725 0131 00       		.uleb128 0
 1726 0132 FA08     		.uleb128 .LEHB57-.LFB724
 1727 0134 05       		.uleb128 .LEHE57-.LEHB57
 1728 0135 00       		.uleb128 0
 1729 0136 00       		.uleb128 0
 1730 0137 9409     		.uleb128 .LEHB58-.LFB724
 1731 0139 05       		.uleb128 .LEHE58-.LEHB58
 1732 013a 00       		.uleb128 0
 1733 013b 00       		.uleb128 0
 1734 013c AE09     		.uleb128 .LEHB59-.LFB724
 1735 013e 05       		.uleb128 .LEHE59-.LEHB59
 1736 013f 00       		.uleb128 0
 1737 0140 00       		.uleb128 0
GAS LISTING /tmp/ccxHiSG0.s 			page 36


 1738              	.LLSDACSE724:
 1739              		.text
 1741              		.weak	_ZTV59TEST_hsm_reset_Should_AlsoResetAllStates_When_HsmReset_Test
 1742              		.section	.rodata._ZTV59TEST_hsm_reset_Should_AlsoResetAllStates_When_HsmReset_Test,"aG",@progbits,
 1743              		.align 8
 1746              	_ZTV59TEST_hsm_reset_Should_AlsoResetAllStates_When_HsmReset_Test:
 1747 0000 00000000 		.quad	0
 1747      00000000 
 1748 0008 00000000 		.quad	_ZTI59TEST_hsm_reset_Should_AlsoResetAllStates_When_HsmReset_Test
 1748      00000000 
 1749 0010 00000000 		.quad	_ZN59TEST_hsm_reset_Should_AlsoResetAllStates_When_HsmReset_TestD1Ev
 1749      00000000 
 1750 0018 00000000 		.quad	_ZN59TEST_hsm_reset_Should_AlsoResetAllStates_When_HsmReset_TestD0Ev
 1750      00000000 
 1751 0020 00000000 		.quad	_ZN5Utest3runEv
 1751      00000000 
 1752 0028 00000000 		.quad	_ZN33TEST_GROUP_CppUTestGrouphsm_reset5setupEv
 1752      00000000 
 1753 0030 00000000 		.quad	_ZN33TEST_GROUP_CppUTestGrouphsm_reset8teardownEv
 1753      00000000 
 1754 0038 00000000 		.quad	_ZN59TEST_hsm_reset_Should_AlsoResetAllStates_When_HsmReset_Test8testBodyEv
 1754      00000000 
 1755              		.section	.text._ZN59TEST_hsm_reset_Should_AlsoResetAllStates_When_HsmReset_TestD2Ev,"axG",@progbit
 1756              		.align 2
 1757              		.weak	_ZN59TEST_hsm_reset_Should_AlsoResetAllStates_When_HsmReset_TestD2Ev
 1759              	_ZN59TEST_hsm_reset_Should_AlsoResetAllStates_When_HsmReset_TestD2Ev:
 1760              	.LFB726:
 1761              		.cfi_startproc
 1762 0000 55       		pushq	%rbp
 1763              		.cfi_def_cfa_offset 16
 1764              		.cfi_offset 6, -16
 1765 0001 4889E5   		movq	%rsp, %rbp
 1766              		.cfi_def_cfa_register 6
 1767 0004 4883EC10 		subq	$16, %rsp
 1768 0008 48897DF8 		movq	%rdi, -8(%rbp)
 1769 000c BA000000 		movl	$_ZTV59TEST_hsm_reset_Should_AlsoResetAllStates_When_HsmReset_Test+16, %edx
 1769      00
 1770 0011 488B45F8 		movq	-8(%rbp), %rax
 1771 0015 488910   		movq	%rdx, (%rax)
 1772 0018 488B45F8 		movq	-8(%rbp), %rax
 1773 001c 4889C7   		movq	%rax, %rdi
 1774 001f E8000000 		call	_ZN33TEST_GROUP_CppUTestGrouphsm_resetD2Ev
 1774      00
 1775 0024 B8000000 		movl	$0, %eax
 1775      00
 1776 0029 85C0     		testl	%eax, %eax
 1777 002b 740C     		je	.L80
 1778 002d 488B45F8 		movq	-8(%rbp), %rax
 1779 0031 4889C7   		movq	%rax, %rdi
 1780 0034 E8000000 		call	_ZdlPv
 1780      00
 1781              	.L80:
 1782 0039 C9       		leave
 1783              		.cfi_def_cfa 7, 8
 1784 003a C3       		ret
 1785              		.cfi_endproc
 1786              	.LFE726:
GAS LISTING /tmp/ccxHiSG0.s 			page 37


 1788              		.weak	_ZN59TEST_hsm_reset_Should_AlsoResetAllStates_When_HsmReset_TestD1Ev
 1789              		.set	_ZN59TEST_hsm_reset_Should_AlsoResetAllStates_When_HsmReset_TestD1Ev,_ZN59TEST_hsm_reset_Shou
 1790              		.section	.text._ZN59TEST_hsm_reset_Should_AlsoResetAllStates_When_HsmReset_TestD0Ev,"axG",@progbit
 1791              		.align 2
 1792              		.weak	_ZN59TEST_hsm_reset_Should_AlsoResetAllStates_When_HsmReset_TestD0Ev
 1794              	_ZN59TEST_hsm_reset_Should_AlsoResetAllStates_When_HsmReset_TestD0Ev:
 1795              	.LFB728:
 1796              		.cfi_startproc
 1797 0000 55       		pushq	%rbp
 1798              		.cfi_def_cfa_offset 16
 1799              		.cfi_offset 6, -16
 1800 0001 4889E5   		movq	%rsp, %rbp
 1801              		.cfi_def_cfa_register 6
 1802 0004 4883EC10 		subq	$16, %rsp
 1803 0008 48897DF8 		movq	%rdi, -8(%rbp)
 1804 000c 488B45F8 		movq	-8(%rbp), %rax
 1805 0010 4889C7   		movq	%rax, %rdi
 1806 0013 E8000000 		call	_ZN59TEST_hsm_reset_Should_AlsoResetAllStates_When_HsmReset_TestD1Ev
 1806      00
 1807 0018 488B45F8 		movq	-8(%rbp), %rax
 1808 001c 4889C7   		movq	%rax, %rdi
 1809 001f E8000000 		call	_ZdlPv
 1809      00
 1810 0024 C9       		leave
 1811              		.cfi_def_cfa 7, 8
 1812 0025 C3       		ret
 1813              		.cfi_endproc
 1814              	.LFE728:
 1816              		.weak	_ZTV64TEST_hsm_reset_Should_AlsoResetAllStates_When_HsmReset_TestShell
 1817              		.section	.rodata._ZTV64TEST_hsm_reset_Should_AlsoResetAllStates_When_HsmReset_TestShell,"aG",@prog
 1818              		.align 8
 1821              	_ZTV64TEST_hsm_reset_Should_AlsoResetAllStates_When_HsmReset_TestShell:
 1822 0000 00000000 		.quad	0
 1822      00000000 
 1823 0008 00000000 		.quad	_ZTI64TEST_hsm_reset_Should_AlsoResetAllStates_When_HsmReset_TestShell
 1823      00000000 
 1824 0010 00000000 		.quad	_ZN64TEST_hsm_reset_Should_AlsoResetAllStates_When_HsmReset_TestShellD1Ev
 1824      00000000 
 1825 0018 00000000 		.quad	_ZN64TEST_hsm_reset_Should_AlsoResetAllStates_When_HsmReset_TestShellD0Ev
 1825      00000000 
 1826 0020 00000000 		.quad	_ZN10UtestShell7addTestEPS_
 1826      00000000 
 1827 0028 00000000 		.quad	_ZNK10UtestShell7getNextEv
 1827      00000000 
 1828 0030 00000000 		.quad	_ZN10UtestShell10countTestsEv
 1828      00000000 
 1829 0038 00000000 		.quad	_ZNK10UtestShell16getFormattedNameEv
 1829      00000000 
 1830 0040 00000000 		.quad	_ZNK10UtestShell7willRunEv
 1830      00000000 
 1831 0048 00000000 		.quad	_ZNK10UtestShell9hasFailedEv
 1831      00000000 
 1832 0050 00000000 		.quad	_ZN10UtestShell10assertTrueEbPKcS1_S1_iRK14TestTerminator
 1832      00000000 
 1833 0058 00000000 		.quad	_ZN10UtestShell14assertTrueTextEbPKcS1_S1_S1_iRK14TestTerminator
 1833      00000000 
 1834 0060 00000000 		.quad	_ZN10UtestShell15assertCstrEqualEPKcS1_S1_iRK14TestTerminator
GAS LISTING /tmp/ccxHiSG0.s 			page 38


 1834      00000000 
 1835 0068 00000000 		.quad	_ZN10UtestShell16assertCstrNEqualEPKcS1_mS1_iRK14TestTerminator
 1835      00000000 
 1836 0070 00000000 		.quad	_ZN10UtestShell21assertCstrNoCaseEqualEPKcS1_S1_i
 1836      00000000 
 1837 0078 00000000 		.quad	_ZN10UtestShell18assertCstrContainsEPKcS1_S1_i
 1837      00000000 
 1838 0080 00000000 		.quad	_ZN10UtestShell24assertCstrNoCaseContainsEPKcS1_S1_i
 1838      00000000 
 1839 0088 00000000 		.quad	_ZN10UtestShell16assertLongsEqualEllPKciRK14TestTerminator
 1839      00000000 
 1840 0090 00000000 		.quad	_ZN10UtestShell24assertUnsignedLongsEqualEmmPKciRK14TestTerminator
 1840      00000000 
 1841 0098 00000000 		.quad	_ZN10UtestShell19assertPointersEqualEPKvS1_PKci
 1841      00000000 
 1842 00a0 00000000 		.quad	_ZN10UtestShell18assertDoublesEqualEdddPKciRK14TestTerminator
 1842      00000000 
 1843 00a8 00000000 		.quad	_ZN10UtestShell12assertEqualsEbPKcS1_S1_iRK14TestTerminator
 1843      00000000 
 1844 00b0 00000000 		.quad	_ZN10UtestShell17assertBinaryEqualEPKvS1_mPKciRK14TestTerminator
 1844      00000000 
 1845 00b8 00000000 		.quad	_ZN10UtestShell4failEPKcS1_iRK14TestTerminator
 1845      00000000 
 1846 00c0 00000000 		.quad	_ZN10UtestShell5printEPKcS1_i
 1846      00000000 
 1847 00c8 00000000 		.quad	_ZN10UtestShell5printERK12SimpleStringPKci
 1847      00000000 
 1848 00d0 00000000 		.quad	_ZNK10UtestShell22isRunInSeperateProcessEv
 1848      00000000 
 1849 00d8 00000000 		.quad	_ZN10UtestShell23setRunInSeperateProcessEv
 1849      00000000 
 1850 00e0 00000000 		.quad	_ZN64TEST_hsm_reset_Should_AlsoResetAllStates_When_HsmReset_TestShell10createTestEv
 1850      00000000 
 1851 00e8 00000000 		.quad	_ZN10UtestShell11destroyTestEP5Utest
 1851      00000000 
 1852 00f0 00000000 		.quad	_ZN10UtestShell10runOneTestEP10TestPluginR10TestResult
 1852      00000000 
 1853 00f8 00000000 		.quad	_ZN10UtestShell26runOneTestInCurrentProcessEP10TestPluginR10TestResult
 1853      00000000 
 1854 0100 00000000 		.quad	_ZN10UtestShell8failWithERK11TestFailure
 1854      00000000 
 1855 0108 00000000 		.quad	_ZN10UtestShell8failWithERK11TestFailureRK14TestTerminator
 1855      00000000 
 1856 0110 00000000 		.quad	_ZNK10UtestShell12getMacroNameEv
 1856      00000000 
 1857              		.section	.text._ZN64TEST_hsm_reset_Should_AlsoResetAllStates_When_HsmReset_TestShellD2Ev,"axG",@pr
 1858              		.align 2
 1859              		.weak	_ZN64TEST_hsm_reset_Should_AlsoResetAllStates_When_HsmReset_TestShellD2Ev
 1861              	_ZN64TEST_hsm_reset_Should_AlsoResetAllStates_When_HsmReset_TestShellD2Ev:
 1862              	.LFB730:
 1863              		.cfi_startproc
 1864 0000 55       		pushq	%rbp
 1865              		.cfi_def_cfa_offset 16
 1866              		.cfi_offset 6, -16
 1867 0001 4889E5   		movq	%rsp, %rbp
 1868              		.cfi_def_cfa_register 6
 1869 0004 4883EC10 		subq	$16, %rsp
GAS LISTING /tmp/ccxHiSG0.s 			page 39


 1870 0008 48897DF8 		movq	%rdi, -8(%rbp)
 1871 000c BA000000 		movl	$_ZTV64TEST_hsm_reset_Should_AlsoResetAllStates_When_HsmReset_TestShell+16, %edx
 1871      00
 1872 0011 488B45F8 		movq	-8(%rbp), %rax
 1873 0015 488910   		movq	%rdx, (%rax)
 1874 0018 488B45F8 		movq	-8(%rbp), %rax
 1875 001c 4889C7   		movq	%rax, %rdi
 1876 001f E8000000 		call	_ZN10UtestShellD2Ev
 1876      00
 1877 0024 B8000000 		movl	$0, %eax
 1877      00
 1878 0029 85C0     		testl	%eax, %eax
 1879 002b 740C     		je	.L83
 1880 002d 488B45F8 		movq	-8(%rbp), %rax
 1881 0031 4889C7   		movq	%rax, %rdi
 1882 0034 E8000000 		call	_ZdlPv
 1882      00
 1883              	.L83:
 1884 0039 C9       		leave
 1885              		.cfi_def_cfa 7, 8
 1886 003a C3       		ret
 1887              		.cfi_endproc
 1888              	.LFE730:
 1890              		.weak	_ZN64TEST_hsm_reset_Should_AlsoResetAllStates_When_HsmReset_TestShellD1Ev
 1891              		.set	_ZN64TEST_hsm_reset_Should_AlsoResetAllStates_When_HsmReset_TestShellD1Ev,_ZN64TEST_hsm_reset
 1892              		.section	.text._ZN64TEST_hsm_reset_Should_AlsoResetAllStates_When_HsmReset_TestShellD0Ev,"axG",@pr
 1893              		.align 2
 1894              		.weak	_ZN64TEST_hsm_reset_Should_AlsoResetAllStates_When_HsmReset_TestShellD0Ev
 1896              	_ZN64TEST_hsm_reset_Should_AlsoResetAllStates_When_HsmReset_TestShellD0Ev:
 1897              	.LFB732:
 1898              		.cfi_startproc
 1899 0000 55       		pushq	%rbp
 1900              		.cfi_def_cfa_offset 16
 1901              		.cfi_offset 6, -16
 1902 0001 4889E5   		movq	%rsp, %rbp
 1903              		.cfi_def_cfa_register 6
 1904 0004 4883EC10 		subq	$16, %rsp
 1905 0008 48897DF8 		movq	%rdi, -8(%rbp)
 1906 000c 488B45F8 		movq	-8(%rbp), %rax
 1907 0010 4889C7   		movq	%rax, %rdi
 1908 0013 E8000000 		call	_ZN64TEST_hsm_reset_Should_AlsoResetAllStates_When_HsmReset_TestShellD1Ev
 1908      00
 1909 0018 488B45F8 		movq	-8(%rbp), %rax
 1910 001c 4889C7   		movq	%rax, %rdi
 1911 001f E8000000 		call	_ZdlPv
 1911      00
 1912 0024 C9       		leave
 1913              		.cfi_def_cfa 7, 8
 1914 0025 C3       		ret
 1915              		.cfi_endproc
 1916              	.LFE732:
 1918              		.weak	_ZTV51TEST_hsm_reset_Should_GiveError_When_NULLGiven_Test
 1919              		.section	.rodata._ZTV51TEST_hsm_reset_Should_GiveError_When_NULLGiven_Test,"aG",@progbits,_ZTV51TE
 1920              		.align 8
 1923              	_ZTV51TEST_hsm_reset_Should_GiveError_When_NULLGiven_Test:
 1924 0000 00000000 		.quad	0
 1924      00000000 
GAS LISTING /tmp/ccxHiSG0.s 			page 40


 1925 0008 00000000 		.quad	_ZTI51TEST_hsm_reset_Should_GiveError_When_NULLGiven_Test
 1925      00000000 
 1926 0010 00000000 		.quad	_ZN51TEST_hsm_reset_Should_GiveError_When_NULLGiven_TestD1Ev
 1926      00000000 
 1927 0018 00000000 		.quad	_ZN51TEST_hsm_reset_Should_GiveError_When_NULLGiven_TestD0Ev
 1927      00000000 
 1928 0020 00000000 		.quad	_ZN5Utest3runEv
 1928      00000000 
 1929 0028 00000000 		.quad	_ZN33TEST_GROUP_CppUTestGrouphsm_reset5setupEv
 1929      00000000 
 1930 0030 00000000 		.quad	_ZN33TEST_GROUP_CppUTestGrouphsm_reset8teardownEv
 1930      00000000 
 1931 0038 00000000 		.quad	_ZN51TEST_hsm_reset_Should_GiveError_When_NULLGiven_Test8testBodyEv
 1931      00000000 
 1932              		.section	.text._ZN51TEST_hsm_reset_Should_GiveError_When_NULLGiven_TestD2Ev,"axG",@progbits,_ZN51T
 1933              		.align 2
 1934              		.weak	_ZN51TEST_hsm_reset_Should_GiveError_When_NULLGiven_TestD2Ev
 1936              	_ZN51TEST_hsm_reset_Should_GiveError_When_NULLGiven_TestD2Ev:
 1937              	.LFB734:
 1938              		.cfi_startproc
 1939 0000 55       		pushq	%rbp
 1940              		.cfi_def_cfa_offset 16
 1941              		.cfi_offset 6, -16
 1942 0001 4889E5   		movq	%rsp, %rbp
 1943              		.cfi_def_cfa_register 6
 1944 0004 4883EC10 		subq	$16, %rsp
 1945 0008 48897DF8 		movq	%rdi, -8(%rbp)
 1946 000c BA000000 		movl	$_ZTV51TEST_hsm_reset_Should_GiveError_When_NULLGiven_Test+16, %edx
 1946      00
 1947 0011 488B45F8 		movq	-8(%rbp), %rax
 1948 0015 488910   		movq	%rdx, (%rax)
 1949 0018 488B45F8 		movq	-8(%rbp), %rax
 1950 001c 4889C7   		movq	%rax, %rdi
 1951 001f E8000000 		call	_ZN33TEST_GROUP_CppUTestGrouphsm_resetD2Ev
 1951      00
 1952 0024 B8000000 		movl	$0, %eax
 1952      00
 1953 0029 85C0     		testl	%eax, %eax
 1954 002b 740C     		je	.L86
 1955 002d 488B45F8 		movq	-8(%rbp), %rax
 1956 0031 4889C7   		movq	%rax, %rdi
 1957 0034 E8000000 		call	_ZdlPv
 1957      00
 1958              	.L86:
 1959 0039 C9       		leave
 1960              		.cfi_def_cfa 7, 8
 1961 003a C3       		ret
 1962              		.cfi_endproc
 1963              	.LFE734:
 1965              		.weak	_ZN51TEST_hsm_reset_Should_GiveError_When_NULLGiven_TestD1Ev
 1966              		.set	_ZN51TEST_hsm_reset_Should_GiveError_When_NULLGiven_TestD1Ev,_ZN51TEST_hsm_reset_Should_GiveE
 1967              		.section	.text._ZN51TEST_hsm_reset_Should_GiveError_When_NULLGiven_TestD0Ev,"axG",@progbits,_ZN51T
 1968              		.align 2
 1969              		.weak	_ZN51TEST_hsm_reset_Should_GiveError_When_NULLGiven_TestD0Ev
 1971              	_ZN51TEST_hsm_reset_Should_GiveError_When_NULLGiven_TestD0Ev:
 1972              	.LFB736:
 1973              		.cfi_startproc
GAS LISTING /tmp/ccxHiSG0.s 			page 41


 1974 0000 55       		pushq	%rbp
 1975              		.cfi_def_cfa_offset 16
 1976              		.cfi_offset 6, -16
 1977 0001 4889E5   		movq	%rsp, %rbp
 1978              		.cfi_def_cfa_register 6
 1979 0004 4883EC10 		subq	$16, %rsp
 1980 0008 48897DF8 		movq	%rdi, -8(%rbp)
 1981 000c 488B45F8 		movq	-8(%rbp), %rax
 1982 0010 4889C7   		movq	%rax, %rdi
 1983 0013 E8000000 		call	_ZN51TEST_hsm_reset_Should_GiveError_When_NULLGiven_TestD1Ev
 1983      00
 1984 0018 488B45F8 		movq	-8(%rbp), %rax
 1985 001c 4889C7   		movq	%rax, %rdi
 1986 001f E8000000 		call	_ZdlPv
 1986      00
 1987 0024 C9       		leave
 1988              		.cfi_def_cfa 7, 8
 1989 0025 C3       		ret
 1990              		.cfi_endproc
 1991              	.LFE736:
 1993              		.weak	_ZTV56TEST_hsm_reset_Should_GiveError_When_NULLGiven_TestShell
 1994              		.section	.rodata._ZTV56TEST_hsm_reset_Should_GiveError_When_NULLGiven_TestShell,"aG",@progbits,_ZT
 1995              		.align 8
 1998              	_ZTV56TEST_hsm_reset_Should_GiveError_When_NULLGiven_TestShell:
 1999 0000 00000000 		.quad	0
 1999      00000000 
 2000 0008 00000000 		.quad	_ZTI56TEST_hsm_reset_Should_GiveError_When_NULLGiven_TestShell
 2000      00000000 
 2001 0010 00000000 		.quad	_ZN56TEST_hsm_reset_Should_GiveError_When_NULLGiven_TestShellD1Ev
 2001      00000000 
 2002 0018 00000000 		.quad	_ZN56TEST_hsm_reset_Should_GiveError_When_NULLGiven_TestShellD0Ev
 2002      00000000 
 2003 0020 00000000 		.quad	_ZN10UtestShell7addTestEPS_
 2003      00000000 
 2004 0028 00000000 		.quad	_ZNK10UtestShell7getNextEv
 2004      00000000 
 2005 0030 00000000 		.quad	_ZN10UtestShell10countTestsEv
 2005      00000000 
 2006 0038 00000000 		.quad	_ZNK10UtestShell16getFormattedNameEv
 2006      00000000 
 2007 0040 00000000 		.quad	_ZNK10UtestShell7willRunEv
 2007      00000000 
 2008 0048 00000000 		.quad	_ZNK10UtestShell9hasFailedEv
 2008      00000000 
 2009 0050 00000000 		.quad	_ZN10UtestShell10assertTrueEbPKcS1_S1_iRK14TestTerminator
 2009      00000000 
 2010 0058 00000000 		.quad	_ZN10UtestShell14assertTrueTextEbPKcS1_S1_S1_iRK14TestTerminator
 2010      00000000 
 2011 0060 00000000 		.quad	_ZN10UtestShell15assertCstrEqualEPKcS1_S1_iRK14TestTerminator
 2011      00000000 
 2012 0068 00000000 		.quad	_ZN10UtestShell16assertCstrNEqualEPKcS1_mS1_iRK14TestTerminator
 2012      00000000 
 2013 0070 00000000 		.quad	_ZN10UtestShell21assertCstrNoCaseEqualEPKcS1_S1_i
 2013      00000000 
 2014 0078 00000000 		.quad	_ZN10UtestShell18assertCstrContainsEPKcS1_S1_i
 2014      00000000 
 2015 0080 00000000 		.quad	_ZN10UtestShell24assertCstrNoCaseContainsEPKcS1_S1_i
GAS LISTING /tmp/ccxHiSG0.s 			page 42


 2015      00000000 
 2016 0088 00000000 		.quad	_ZN10UtestShell16assertLongsEqualEllPKciRK14TestTerminator
 2016      00000000 
 2017 0090 00000000 		.quad	_ZN10UtestShell24assertUnsignedLongsEqualEmmPKciRK14TestTerminator
 2017      00000000 
 2018 0098 00000000 		.quad	_ZN10UtestShell19assertPointersEqualEPKvS1_PKci
 2018      00000000 
 2019 00a0 00000000 		.quad	_ZN10UtestShell18assertDoublesEqualEdddPKciRK14TestTerminator
 2019      00000000 
 2020 00a8 00000000 		.quad	_ZN10UtestShell12assertEqualsEbPKcS1_S1_iRK14TestTerminator
 2020      00000000 
 2021 00b0 00000000 		.quad	_ZN10UtestShell17assertBinaryEqualEPKvS1_mPKciRK14TestTerminator
 2021      00000000 
 2022 00b8 00000000 		.quad	_ZN10UtestShell4failEPKcS1_iRK14TestTerminator
 2022      00000000 
 2023 00c0 00000000 		.quad	_ZN10UtestShell5printEPKcS1_i
 2023      00000000 
 2024 00c8 00000000 		.quad	_ZN10UtestShell5printERK12SimpleStringPKci
 2024      00000000 
 2025 00d0 00000000 		.quad	_ZNK10UtestShell22isRunInSeperateProcessEv
 2025      00000000 
 2026 00d8 00000000 		.quad	_ZN10UtestShell23setRunInSeperateProcessEv
 2026      00000000 
 2027 00e0 00000000 		.quad	_ZN56TEST_hsm_reset_Should_GiveError_When_NULLGiven_TestShell10createTestEv
 2027      00000000 
 2028 00e8 00000000 		.quad	_ZN10UtestShell11destroyTestEP5Utest
 2028      00000000 
 2029 00f0 00000000 		.quad	_ZN10UtestShell10runOneTestEP10TestPluginR10TestResult
 2029      00000000 
 2030 00f8 00000000 		.quad	_ZN10UtestShell26runOneTestInCurrentProcessEP10TestPluginR10TestResult
 2030      00000000 
 2031 0100 00000000 		.quad	_ZN10UtestShell8failWithERK11TestFailure
 2031      00000000 
 2032 0108 00000000 		.quad	_ZN10UtestShell8failWithERK11TestFailureRK14TestTerminator
 2032      00000000 
 2033 0110 00000000 		.quad	_ZNK10UtestShell12getMacroNameEv
 2033      00000000 
 2034              		.section	.text._ZN56TEST_hsm_reset_Should_GiveError_When_NULLGiven_TestShellD2Ev,"axG",@progbits,_
 2035              		.align 2
 2036              		.weak	_ZN56TEST_hsm_reset_Should_GiveError_When_NULLGiven_TestShellD2Ev
 2038              	_ZN56TEST_hsm_reset_Should_GiveError_When_NULLGiven_TestShellD2Ev:
 2039              	.LFB738:
 2040              		.cfi_startproc
 2041 0000 55       		pushq	%rbp
 2042              		.cfi_def_cfa_offset 16
 2043              		.cfi_offset 6, -16
 2044 0001 4889E5   		movq	%rsp, %rbp
 2045              		.cfi_def_cfa_register 6
 2046 0004 4883EC10 		subq	$16, %rsp
 2047 0008 48897DF8 		movq	%rdi, -8(%rbp)
 2048 000c BA000000 		movl	$_ZTV56TEST_hsm_reset_Should_GiveError_When_NULLGiven_TestShell+16, %edx
 2048      00
 2049 0011 488B45F8 		movq	-8(%rbp), %rax
 2050 0015 488910   		movq	%rdx, (%rax)
 2051 0018 488B45F8 		movq	-8(%rbp), %rax
 2052 001c 4889C7   		movq	%rax, %rdi
 2053 001f E8000000 		call	_ZN10UtestShellD2Ev
GAS LISTING /tmp/ccxHiSG0.s 			page 43


 2053      00
 2054 0024 B8000000 		movl	$0, %eax
 2054      00
 2055 0029 85C0     		testl	%eax, %eax
 2056 002b 740C     		je	.L89
 2057 002d 488B45F8 		movq	-8(%rbp), %rax
 2058 0031 4889C7   		movq	%rax, %rdi
 2059 0034 E8000000 		call	_ZdlPv
 2059      00
 2060              	.L89:
 2061 0039 C9       		leave
 2062              		.cfi_def_cfa 7, 8
 2063 003a C3       		ret
 2064              		.cfi_endproc
 2065              	.LFE738:
 2067              		.weak	_ZN56TEST_hsm_reset_Should_GiveError_When_NULLGiven_TestShellD1Ev
 2068              		.set	_ZN56TEST_hsm_reset_Should_GiveError_When_NULLGiven_TestShellD1Ev,_ZN56TEST_hsm_reset_Should_
 2069              		.section	.text._ZN56TEST_hsm_reset_Should_GiveError_When_NULLGiven_TestShellD0Ev,"axG",@progbits,_
 2070              		.align 2
 2071              		.weak	_ZN56TEST_hsm_reset_Should_GiveError_When_NULLGiven_TestShellD0Ev
 2073              	_ZN56TEST_hsm_reset_Should_GiveError_When_NULLGiven_TestShellD0Ev:
 2074              	.LFB740:
 2075              		.cfi_startproc
 2076 0000 55       		pushq	%rbp
 2077              		.cfi_def_cfa_offset 16
 2078              		.cfi_offset 6, -16
 2079 0001 4889E5   		movq	%rsp, %rbp
 2080              		.cfi_def_cfa_register 6
 2081 0004 4883EC10 		subq	$16, %rsp
 2082 0008 48897DF8 		movq	%rdi, -8(%rbp)
 2083 000c 488B45F8 		movq	-8(%rbp), %rax
 2084 0010 4889C7   		movq	%rax, %rdi
 2085 0013 E8000000 		call	_ZN56TEST_hsm_reset_Should_GiveError_When_NULLGiven_TestShellD1Ev
 2085      00
 2086 0018 488B45F8 		movq	-8(%rbp), %rax
 2087 001c 4889C7   		movq	%rax, %rdi
 2088 001f E8000000 		call	_ZdlPv
 2088      00
 2089 0024 C9       		leave
 2090              		.cfi_def_cfa 7, 8
 2091 0025 C3       		ret
 2092              		.cfi_endproc
 2093              	.LFE740:
 2095              		.weak	_ZTV70TEST_hsm_reset_Should_ReturnToInitialState_When_NotInInitialState_Test
 2096              		.section	.rodata._ZTV70TEST_hsm_reset_Should_ReturnToInitialState_When_NotInInitialState_Test,"aG"
 2097              		.align 8
 2100              	_ZTV70TEST_hsm_reset_Should_ReturnToInitialState_When_NotInInitialState_Test:
 2101 0000 00000000 		.quad	0
 2101      00000000 
 2102 0008 00000000 		.quad	_ZTI70TEST_hsm_reset_Should_ReturnToInitialState_When_NotInInitialState_Test
 2102      00000000 
 2103 0010 00000000 		.quad	_ZN70TEST_hsm_reset_Should_ReturnToInitialState_When_NotInInitialState_TestD1Ev
 2103      00000000 
 2104 0018 00000000 		.quad	_ZN70TEST_hsm_reset_Should_ReturnToInitialState_When_NotInInitialState_TestD0Ev
 2104      00000000 
 2105 0020 00000000 		.quad	_ZN5Utest3runEv
 2105      00000000 
GAS LISTING /tmp/ccxHiSG0.s 			page 44


 2106 0028 00000000 		.quad	_ZN33TEST_GROUP_CppUTestGrouphsm_reset5setupEv
 2106      00000000 
 2107 0030 00000000 		.quad	_ZN33TEST_GROUP_CppUTestGrouphsm_reset8teardownEv
 2107      00000000 
 2108 0038 00000000 		.quad	_ZN70TEST_hsm_reset_Should_ReturnToInitialState_When_NotInInitialState_Test8testBodyEv
 2108      00000000 
 2109              		.section	.text._ZN70TEST_hsm_reset_Should_ReturnToInitialState_When_NotInInitialState_TestD2Ev,"ax
 2110              		.align 2
 2111              		.weak	_ZN70TEST_hsm_reset_Should_ReturnToInitialState_When_NotInInitialState_TestD2Ev
 2113              	_ZN70TEST_hsm_reset_Should_ReturnToInitialState_When_NotInInitialState_TestD2Ev:
 2114              	.LFB742:
 2115              		.cfi_startproc
 2116 0000 55       		pushq	%rbp
 2117              		.cfi_def_cfa_offset 16
 2118              		.cfi_offset 6, -16
 2119 0001 4889E5   		movq	%rsp, %rbp
 2120              		.cfi_def_cfa_register 6
 2121 0004 4883EC10 		subq	$16, %rsp
 2122 0008 48897DF8 		movq	%rdi, -8(%rbp)
 2123 000c BA000000 		movl	$_ZTV70TEST_hsm_reset_Should_ReturnToInitialState_When_NotInInitialState_Test+16, %edx
 2123      00
 2124 0011 488B45F8 		movq	-8(%rbp), %rax
 2125 0015 488910   		movq	%rdx, (%rax)
 2126 0018 488B45F8 		movq	-8(%rbp), %rax
 2127 001c 4889C7   		movq	%rax, %rdi
 2128 001f E8000000 		call	_ZN33TEST_GROUP_CppUTestGrouphsm_resetD2Ev
 2128      00
 2129 0024 B8000000 		movl	$0, %eax
 2129      00
 2130 0029 85C0     		testl	%eax, %eax
 2131 002b 740C     		je	.L92
 2132 002d 488B45F8 		movq	-8(%rbp), %rax
 2133 0031 4889C7   		movq	%rax, %rdi
 2134 0034 E8000000 		call	_ZdlPv
 2134      00
 2135              	.L92:
 2136 0039 C9       		leave
 2137              		.cfi_def_cfa 7, 8
 2138 003a C3       		ret
 2139              		.cfi_endproc
 2140              	.LFE742:
 2142              		.weak	_ZN70TEST_hsm_reset_Should_ReturnToInitialState_When_NotInInitialState_TestD1Ev
 2143              		.set	_ZN70TEST_hsm_reset_Should_ReturnToInitialState_When_NotInInitialState_TestD1Ev,_ZN70TEST_hsm
 2144              		.section	.text._ZN70TEST_hsm_reset_Should_ReturnToInitialState_When_NotInInitialState_TestD0Ev,"ax
 2145              		.align 2
 2146              		.weak	_ZN70TEST_hsm_reset_Should_ReturnToInitialState_When_NotInInitialState_TestD0Ev
 2148              	_ZN70TEST_hsm_reset_Should_ReturnToInitialState_When_NotInInitialState_TestD0Ev:
 2149              	.LFB744:
 2150              		.cfi_startproc
 2151 0000 55       		pushq	%rbp
 2152              		.cfi_def_cfa_offset 16
 2153              		.cfi_offset 6, -16
 2154 0001 4889E5   		movq	%rsp, %rbp
 2155              		.cfi_def_cfa_register 6
 2156 0004 4883EC10 		subq	$16, %rsp
 2157 0008 48897DF8 		movq	%rdi, -8(%rbp)
 2158 000c 488B45F8 		movq	-8(%rbp), %rax
GAS LISTING /tmp/ccxHiSG0.s 			page 45


 2159 0010 4889C7   		movq	%rax, %rdi
 2160 0013 E8000000 		call	_ZN70TEST_hsm_reset_Should_ReturnToInitialState_When_NotInInitialState_TestD1Ev
 2160      00
 2161 0018 488B45F8 		movq	-8(%rbp), %rax
 2162 001c 4889C7   		movq	%rax, %rdi
 2163 001f E8000000 		call	_ZdlPv
 2163      00
 2164 0024 C9       		leave
 2165              		.cfi_def_cfa 7, 8
 2166 0025 C3       		ret
 2167              		.cfi_endproc
 2168              	.LFE744:
 2170              		.weak	_ZTV75TEST_hsm_reset_Should_ReturnToInitialState_When_NotInInitialState_TestShell
 2171              		.section	.rodata._ZTV75TEST_hsm_reset_Should_ReturnToInitialState_When_NotInInitialState_TestShell
 2172              		.align 8
 2175              	_ZTV75TEST_hsm_reset_Should_ReturnToInitialState_When_NotInInitialState_TestShell:
 2176 0000 00000000 		.quad	0
 2176      00000000 
 2177 0008 00000000 		.quad	_ZTI75TEST_hsm_reset_Should_ReturnToInitialState_When_NotInInitialState_TestShell
 2177      00000000 
 2178 0010 00000000 		.quad	_ZN75TEST_hsm_reset_Should_ReturnToInitialState_When_NotInInitialState_TestShellD1Ev
 2178      00000000 
 2179 0018 00000000 		.quad	_ZN75TEST_hsm_reset_Should_ReturnToInitialState_When_NotInInitialState_TestShellD0Ev
 2179      00000000 
 2180 0020 00000000 		.quad	_ZN10UtestShell7addTestEPS_
 2180      00000000 
 2181 0028 00000000 		.quad	_ZNK10UtestShell7getNextEv
 2181      00000000 
 2182 0030 00000000 		.quad	_ZN10UtestShell10countTestsEv
 2182      00000000 
 2183 0038 00000000 		.quad	_ZNK10UtestShell16getFormattedNameEv
 2183      00000000 
 2184 0040 00000000 		.quad	_ZNK10UtestShell7willRunEv
 2184      00000000 
 2185 0048 00000000 		.quad	_ZNK10UtestShell9hasFailedEv
 2185      00000000 
 2186 0050 00000000 		.quad	_ZN10UtestShell10assertTrueEbPKcS1_S1_iRK14TestTerminator
 2186      00000000 
 2187 0058 00000000 		.quad	_ZN10UtestShell14assertTrueTextEbPKcS1_S1_S1_iRK14TestTerminator
 2187      00000000 
 2188 0060 00000000 		.quad	_ZN10UtestShell15assertCstrEqualEPKcS1_S1_iRK14TestTerminator
 2188      00000000 
 2189 0068 00000000 		.quad	_ZN10UtestShell16assertCstrNEqualEPKcS1_mS1_iRK14TestTerminator
 2189      00000000 
 2190 0070 00000000 		.quad	_ZN10UtestShell21assertCstrNoCaseEqualEPKcS1_S1_i
 2190      00000000 
 2191 0078 00000000 		.quad	_ZN10UtestShell18assertCstrContainsEPKcS1_S1_i
 2191      00000000 
 2192 0080 00000000 		.quad	_ZN10UtestShell24assertCstrNoCaseContainsEPKcS1_S1_i
 2192      00000000 
 2193 0088 00000000 		.quad	_ZN10UtestShell16assertLongsEqualEllPKciRK14TestTerminator
 2193      00000000 
 2194 0090 00000000 		.quad	_ZN10UtestShell24assertUnsignedLongsEqualEmmPKciRK14TestTerminator
 2194      00000000 
 2195 0098 00000000 		.quad	_ZN10UtestShell19assertPointersEqualEPKvS1_PKci
 2195      00000000 
 2196 00a0 00000000 		.quad	_ZN10UtestShell18assertDoublesEqualEdddPKciRK14TestTerminator
GAS LISTING /tmp/ccxHiSG0.s 			page 46


 2196      00000000 
 2197 00a8 00000000 		.quad	_ZN10UtestShell12assertEqualsEbPKcS1_S1_iRK14TestTerminator
 2197      00000000 
 2198 00b0 00000000 		.quad	_ZN10UtestShell17assertBinaryEqualEPKvS1_mPKciRK14TestTerminator
 2198      00000000 
 2199 00b8 00000000 		.quad	_ZN10UtestShell4failEPKcS1_iRK14TestTerminator
 2199      00000000 
 2200 00c0 00000000 		.quad	_ZN10UtestShell5printEPKcS1_i
 2200      00000000 
 2201 00c8 00000000 		.quad	_ZN10UtestShell5printERK12SimpleStringPKci
 2201      00000000 
 2202 00d0 00000000 		.quad	_ZNK10UtestShell22isRunInSeperateProcessEv
 2202      00000000 
 2203 00d8 00000000 		.quad	_ZN10UtestShell23setRunInSeperateProcessEv
 2203      00000000 
 2204 00e0 00000000 		.quad	_ZN75TEST_hsm_reset_Should_ReturnToInitialState_When_NotInInitialState_TestShell10createTest
 2204      00000000 
 2205 00e8 00000000 		.quad	_ZN10UtestShell11destroyTestEP5Utest
 2205      00000000 
 2206 00f0 00000000 		.quad	_ZN10UtestShell10runOneTestEP10TestPluginR10TestResult
 2206      00000000 
 2207 00f8 00000000 		.quad	_ZN10UtestShell26runOneTestInCurrentProcessEP10TestPluginR10TestResult
 2207      00000000 
 2208 0100 00000000 		.quad	_ZN10UtestShell8failWithERK11TestFailure
 2208      00000000 
 2209 0108 00000000 		.quad	_ZN10UtestShell8failWithERK11TestFailureRK14TestTerminator
 2209      00000000 
 2210 0110 00000000 		.quad	_ZNK10UtestShell12getMacroNameEv
 2210      00000000 
 2211              		.section	.text._ZN75TEST_hsm_reset_Should_ReturnToInitialState_When_NotInInitialState_TestShellD2E
 2212              		.align 2
 2213              		.weak	_ZN75TEST_hsm_reset_Should_ReturnToInitialState_When_NotInInitialState_TestShellD2Ev
 2215              	_ZN75TEST_hsm_reset_Should_ReturnToInitialState_When_NotInInitialState_TestShellD2Ev:
 2216              	.LFB746:
 2217              		.cfi_startproc
 2218 0000 55       		pushq	%rbp
 2219              		.cfi_def_cfa_offset 16
 2220              		.cfi_offset 6, -16
 2221 0001 4889E5   		movq	%rsp, %rbp
 2222              		.cfi_def_cfa_register 6
 2223 0004 4883EC10 		subq	$16, %rsp
 2224 0008 48897DF8 		movq	%rdi, -8(%rbp)
 2225 000c BA000000 		movl	$_ZTV75TEST_hsm_reset_Should_ReturnToInitialState_When_NotInInitialState_TestShell+16, %edx
 2225      00
 2226 0011 488B45F8 		movq	-8(%rbp), %rax
 2227 0015 488910   		movq	%rdx, (%rax)
 2228 0018 488B45F8 		movq	-8(%rbp), %rax
 2229 001c 4889C7   		movq	%rax, %rdi
 2230 001f E8000000 		call	_ZN10UtestShellD2Ev
 2230      00
 2231 0024 B8000000 		movl	$0, %eax
 2231      00
 2232 0029 85C0     		testl	%eax, %eax
 2233 002b 740C     		je	.L95
 2234 002d 488B45F8 		movq	-8(%rbp), %rax
 2235 0031 4889C7   		movq	%rax, %rdi
 2236 0034 E8000000 		call	_ZdlPv
GAS LISTING /tmp/ccxHiSG0.s 			page 47


 2236      00
 2237              	.L95:
 2238 0039 C9       		leave
 2239              		.cfi_def_cfa 7, 8
 2240 003a C3       		ret
 2241              		.cfi_endproc
 2242              	.LFE746:
 2244              		.weak	_ZN75TEST_hsm_reset_Should_ReturnToInitialState_When_NotInInitialState_TestShellD1Ev
 2245              		.set	_ZN75TEST_hsm_reset_Should_ReturnToInitialState_When_NotInInitialState_TestShellD1Ev,_ZN75TES
 2246              		.section	.text._ZN75TEST_hsm_reset_Should_ReturnToInitialState_When_NotInInitialState_TestShellD0E
 2247              		.align 2
 2248              		.weak	_ZN75TEST_hsm_reset_Should_ReturnToInitialState_When_NotInInitialState_TestShellD0Ev
 2250              	_ZN75TEST_hsm_reset_Should_ReturnToInitialState_When_NotInInitialState_TestShellD0Ev:
 2251              	.LFB748:
 2252              		.cfi_startproc
 2253 0000 55       		pushq	%rbp
 2254              		.cfi_def_cfa_offset 16
 2255              		.cfi_offset 6, -16
 2256 0001 4889E5   		movq	%rsp, %rbp
 2257              		.cfi_def_cfa_register 6
 2258 0004 4883EC10 		subq	$16, %rsp
 2259 0008 48897DF8 		movq	%rdi, -8(%rbp)
 2260 000c 488B45F8 		movq	-8(%rbp), %rax
 2261 0010 4889C7   		movq	%rax, %rdi
 2262 0013 E8000000 		call	_ZN75TEST_hsm_reset_Should_ReturnToInitialState_When_NotInInitialState_TestShellD1Ev
 2262      00
 2263 0018 488B45F8 		movq	-8(%rbp), %rax
 2264 001c 4889C7   		movq	%rax, %rdi
 2265 001f E8000000 		call	_ZdlPv
 2265      00
 2266 0024 C9       		leave
 2267              		.cfi_def_cfa 7, 8
 2268 0025 C3       		ret
 2269              		.cfi_endproc
 2270              	.LFE748:
 2272              		.weak	_ZTV33TEST_GROUP_CppUTestGrouphsm_reset
 2273              		.section	.rodata._ZTV33TEST_GROUP_CppUTestGrouphsm_reset,"aG",@progbits,_ZTV33TEST_GROUP_CppUTestG
 2274              		.align 8
 2277              	_ZTV33TEST_GROUP_CppUTestGrouphsm_reset:
 2278 0000 00000000 		.quad	0
 2278      00000000 
 2279 0008 00000000 		.quad	_ZTI33TEST_GROUP_CppUTestGrouphsm_reset
 2279      00000000 
 2280 0010 00000000 		.quad	_ZN33TEST_GROUP_CppUTestGrouphsm_resetD1Ev
 2280      00000000 
 2281 0018 00000000 		.quad	_ZN33TEST_GROUP_CppUTestGrouphsm_resetD0Ev
 2281      00000000 
 2282 0020 00000000 		.quad	_ZN5Utest3runEv
 2282      00000000 
 2283 0028 00000000 		.quad	_ZN33TEST_GROUP_CppUTestGrouphsm_reset5setupEv
 2283      00000000 
 2284 0030 00000000 		.quad	_ZN33TEST_GROUP_CppUTestGrouphsm_reset8teardownEv
 2284      00000000 
 2285 0038 00000000 		.quad	_ZN5Utest8testBodyEv
 2285      00000000 
 2286              		.weak	_ZTI64TEST_hsm_reset_Should_AlsoResetAllStates_When_HsmReset_TestShell
 2287              		.section	.rodata._ZTI64TEST_hsm_reset_Should_AlsoResetAllStates_When_HsmReset_TestShell,"aG",@prog
GAS LISTING /tmp/ccxHiSG0.s 			page 48


 2288              		.align 8
 2291              	_ZTI64TEST_hsm_reset_Should_AlsoResetAllStates_When_HsmReset_TestShell:
 2292 0000 00000000 		.quad	_ZTVN10__cxxabiv120__si_class_type_infoE+16
 2292      00000000 
 2293 0008 00000000 		.quad	_ZTS64TEST_hsm_reset_Should_AlsoResetAllStates_When_HsmReset_TestShell
 2293      00000000 
 2294 0010 00000000 		.quad	_ZTI10UtestShell
 2294      00000000 
 2295              		.weak	_ZTS64TEST_hsm_reset_Should_AlsoResetAllStates_When_HsmReset_TestShell
 2296              		.section	.rodata._ZTS64TEST_hsm_reset_Should_AlsoResetAllStates_When_HsmReset_TestShell,"aG",@prog
 2297              		.align 32
 2300              	_ZTS64TEST_hsm_reset_Should_AlsoResetAllStates_When_HsmReset_TestShell:
 2301 0000 36345445 		.string	"64TEST_hsm_reset_Should_AlsoResetAllStates_When_HsmReset_TestShell"
 2301      53545F68 
 2301      736D5F72 
 2301      65736574 
 2301      5F53686F 
 2302              		.weak	_ZTI59TEST_hsm_reset_Should_AlsoResetAllStates_When_HsmReset_Test
 2303              		.section	.rodata._ZTI59TEST_hsm_reset_Should_AlsoResetAllStates_When_HsmReset_Test,"aG",@progbits,
 2304              		.align 8
 2307              	_ZTI59TEST_hsm_reset_Should_AlsoResetAllStates_When_HsmReset_Test:
 2308 0000 00000000 		.quad	_ZTVN10__cxxabiv120__si_class_type_infoE+16
 2308      00000000 
 2309 0008 00000000 		.quad	_ZTS59TEST_hsm_reset_Should_AlsoResetAllStates_When_HsmReset_Test
 2309      00000000 
 2310 0010 00000000 		.quad	_ZTI33TEST_GROUP_CppUTestGrouphsm_reset
 2310      00000000 
 2311              		.weak	_ZTS59TEST_hsm_reset_Should_AlsoResetAllStates_When_HsmReset_Test
 2312              		.section	.rodata._ZTS59TEST_hsm_reset_Should_AlsoResetAllStates_When_HsmReset_Test,"aG",@progbits,
 2313              		.align 32
 2316              	_ZTS59TEST_hsm_reset_Should_AlsoResetAllStates_When_HsmReset_Test:
 2317 0000 35395445 		.string	"59TEST_hsm_reset_Should_AlsoResetAllStates_When_HsmReset_Test"
 2317      53545F68 
 2317      736D5F72 
 2317      65736574 
 2317      5F53686F 
 2318              		.weak	_ZTI56TEST_hsm_reset_Should_GiveError_When_NULLGiven_TestShell
 2319              		.section	.rodata._ZTI56TEST_hsm_reset_Should_GiveError_When_NULLGiven_TestShell,"aG",@progbits,_ZT
 2320              		.align 8
 2323              	_ZTI56TEST_hsm_reset_Should_GiveError_When_NULLGiven_TestShell:
 2324 0000 00000000 		.quad	_ZTVN10__cxxabiv120__si_class_type_infoE+16
 2324      00000000 
 2325 0008 00000000 		.quad	_ZTS56TEST_hsm_reset_Should_GiveError_When_NULLGiven_TestShell
 2325      00000000 
 2326 0010 00000000 		.quad	_ZTI10UtestShell
 2326      00000000 
 2327              		.weak	_ZTS56TEST_hsm_reset_Should_GiveError_When_NULLGiven_TestShell
 2328              		.section	.rodata._ZTS56TEST_hsm_reset_Should_GiveError_When_NULLGiven_TestShell,"aG",@progbits,_ZT
 2329              		.align 32
 2332              	_ZTS56TEST_hsm_reset_Should_GiveError_When_NULLGiven_TestShell:
 2333 0000 35365445 		.string	"56TEST_hsm_reset_Should_GiveError_When_NULLGiven_TestShell"
 2333      53545F68 
 2333      736D5F72 
 2333      65736574 
 2333      5F53686F 
 2334              		.weak	_ZTI51TEST_hsm_reset_Should_GiveError_When_NULLGiven_Test
 2335              		.section	.rodata._ZTI51TEST_hsm_reset_Should_GiveError_When_NULLGiven_Test,"aG",@progbits,_ZTI51TE
GAS LISTING /tmp/ccxHiSG0.s 			page 49


 2336              		.align 8
 2339              	_ZTI51TEST_hsm_reset_Should_GiveError_When_NULLGiven_Test:
 2340 0000 00000000 		.quad	_ZTVN10__cxxabiv120__si_class_type_infoE+16
 2340      00000000 
 2341 0008 00000000 		.quad	_ZTS51TEST_hsm_reset_Should_GiveError_When_NULLGiven_Test
 2341      00000000 
 2342 0010 00000000 		.quad	_ZTI33TEST_GROUP_CppUTestGrouphsm_reset
 2342      00000000 
 2343              		.weak	_ZTS51TEST_hsm_reset_Should_GiveError_When_NULLGiven_Test
 2344              		.section	.rodata._ZTS51TEST_hsm_reset_Should_GiveError_When_NULLGiven_Test,"aG",@progbits,_ZTS51TE
 2345              		.align 32
 2348              	_ZTS51TEST_hsm_reset_Should_GiveError_When_NULLGiven_Test:
 2349 0000 35315445 		.string	"51TEST_hsm_reset_Should_GiveError_When_NULLGiven_Test"
 2349      53545F68 
 2349      736D5F72 
 2349      65736574 
 2349      5F53686F 
 2350              		.weak	_ZTI75TEST_hsm_reset_Should_ReturnToInitialState_When_NotInInitialState_TestShell
 2351              		.section	.rodata._ZTI75TEST_hsm_reset_Should_ReturnToInitialState_When_NotInInitialState_TestShell
 2352              		.align 8
 2355              	_ZTI75TEST_hsm_reset_Should_ReturnToInitialState_When_NotInInitialState_TestShell:
 2356 0000 00000000 		.quad	_ZTVN10__cxxabiv120__si_class_type_infoE+16
 2356      00000000 
 2357 0008 00000000 		.quad	_ZTS75TEST_hsm_reset_Should_ReturnToInitialState_When_NotInInitialState_TestShell
 2357      00000000 
 2358 0010 00000000 		.quad	_ZTI10UtestShell
 2358      00000000 
 2359              		.weak	_ZTS75TEST_hsm_reset_Should_ReturnToInitialState_When_NotInInitialState_TestShell
 2360              		.section	.rodata._ZTS75TEST_hsm_reset_Should_ReturnToInitialState_When_NotInInitialState_TestShell
 2361              		.align 32
 2364              	_ZTS75TEST_hsm_reset_Should_ReturnToInitialState_When_NotInInitialState_TestShell:
 2365 0000 37355445 		.string	"75TEST_hsm_reset_Should_ReturnToInitialState_When_NotInInitialState_TestShell"
 2365      53545F68 
 2365      736D5F72 
 2365      65736574 
 2365      5F53686F 
 2366              		.weak	_ZTI70TEST_hsm_reset_Should_ReturnToInitialState_When_NotInInitialState_Test
 2367              		.section	.rodata._ZTI70TEST_hsm_reset_Should_ReturnToInitialState_When_NotInInitialState_Test,"aG"
 2368              		.align 8
 2371              	_ZTI70TEST_hsm_reset_Should_ReturnToInitialState_When_NotInInitialState_Test:
 2372 0000 00000000 		.quad	_ZTVN10__cxxabiv120__si_class_type_infoE+16
 2372      00000000 
 2373 0008 00000000 		.quad	_ZTS70TEST_hsm_reset_Should_ReturnToInitialState_When_NotInInitialState_Test
 2373      00000000 
 2374 0010 00000000 		.quad	_ZTI33TEST_GROUP_CppUTestGrouphsm_reset
 2374      00000000 
 2375              		.weak	_ZTS70TEST_hsm_reset_Should_ReturnToInitialState_When_NotInInitialState_Test
 2376              		.section	.rodata._ZTS70TEST_hsm_reset_Should_ReturnToInitialState_When_NotInInitialState_Test,"aG"
 2377              		.align 32
 2380              	_ZTS70TEST_hsm_reset_Should_ReturnToInitialState_When_NotInInitialState_Test:
 2381 0000 37305445 		.string	"70TEST_hsm_reset_Should_ReturnToInitialState_When_NotInInitialState_Test"
 2381      53545F68 
 2381      736D5F72 
 2381      65736574 
 2381      5F53686F 
 2382              		.weak	_ZTI33TEST_GROUP_CppUTestGrouphsm_reset
 2383              		.section	.rodata._ZTI33TEST_GROUP_CppUTestGrouphsm_reset,"aG",@progbits,_ZTI33TEST_GROUP_CppUTestG
GAS LISTING /tmp/ccxHiSG0.s 			page 50


 2384              		.align 8
 2387              	_ZTI33TEST_GROUP_CppUTestGrouphsm_reset:
 2388 0000 00000000 		.quad	_ZTVN10__cxxabiv120__si_class_type_infoE+16
 2388      00000000 
 2389 0008 00000000 		.quad	_ZTS33TEST_GROUP_CppUTestGrouphsm_reset
 2389      00000000 
 2390 0010 00000000 		.quad	_ZTI5Utest
 2390      00000000 
 2391              		.weak	_ZTS33TEST_GROUP_CppUTestGrouphsm_reset
 2392              		.section	.rodata._ZTS33TEST_GROUP_CppUTestGrouphsm_reset,"aG",@progbits,_ZTS33TEST_GROUP_CppUTestG
 2393              		.align 32
 2396              	_ZTS33TEST_GROUP_CppUTestGrouphsm_reset:
 2397 0000 33335445 		.string	"33TEST_GROUP_CppUTestGrouphsm_reset"
 2397      53545F47 
 2397      524F5550 
 2397      5F437070 
 2397      55546573 
 2398              		.section	.rodata
 2399 0025 000000   		.align 8
 2400              	.LC1:
 2401 0028 53686F75 		.string	"Should_ReturnToInitialState_When_NotInInitialState"
 2401      6C645F52 
 2401      65747572 
 2401      6E546F49 
 2401      6E697469 
 2402              	.LC2:
 2403 005b 68736D5F 		.string	"hsm_reset"
 2403      72657365 
 2403      7400
 2404 0065 000000   		.align 8
 2405              	.LC3:
 2406 0068 53686F75 		.string	"Should_GiveError_When_NULLGiven"
 2406      6C645F47 
 2406      69766545 
 2406      72726F72 
 2406      5F576865 
 2407              		.align 8
 2408              	.LC4:
 2409 0088 53686F75 		.string	"Should_AlsoResetAllStates_When_HsmReset"
 2409      6C645F41 
 2409      6C736F52 
 2409      65736574 
 2409      416C6C53 
 2410              		.text
 2412              	_Z41__static_initialization_and_destruction_0ii:
 2413              	.LFB749:
 2414              		.cfi_startproc
 2415 094f 55       		pushq	%rbp
 2416              		.cfi_def_cfa_offset 16
 2417              		.cfi_offset 6, -16
 2418 0950 4889E5   		movq	%rsp, %rbp
 2419              		.cfi_def_cfa_register 6
 2420 0953 4883EC10 		subq	$16, %rsp
 2421 0957 897DFC   		movl	%edi, -4(%rbp)
 2422 095a 8975F8   		movl	%esi, -8(%rbp)
 2423 095d 837DFC01 		cmpl	$1, -4(%rbp)
 2424 0961 0F851201 		jne	.L100
GAS LISTING /tmp/ccxHiSG0.s 			page 51


 2424      0000
 2425 0967 817DF8FF 		cmpl	$65535, -8(%rbp)
 2425      FF0000
 2426 096e 0F850501 		jne	.L100
 2426      0000
 2427 0974 BF000000 		movl	$TEST_hsm_reset_Should_ReturnToInitialState_When_NotInInitialState_TestShell_instance, %edi
 2427      00
 2428 0979 E8000000 		call	_ZN75TEST_hsm_reset_Should_ReturnToInitialState_When_NotInInitialState_TestShellC1Ev
 2428      00
 2429 097e BA000000 		movl	$__dso_handle, %edx
 2429      00
 2430 0983 BE000000 		movl	$TEST_hsm_reset_Should_ReturnToInitialState_When_NotInInitialState_TestShell_instance, %esi
 2430      00
 2431 0988 BF000000 		movl	$_ZN75TEST_hsm_reset_Should_ReturnToInitialState_When_NotInInitialState_TestShellD1Ev, %edi
 2431      00
 2432 098d E8000000 		call	__cxa_atexit
 2432      00
 2433 0992 41B93800 		movl	$56, %r9d
 2433      0000
 2434 0998 41B80000 		movl	$.LC0, %r8d
 2434      0000
 2435 099e B9000000 		movl	$.LC1, %ecx
 2435      00
 2436 09a3 BA000000 		movl	$.LC2, %edx
 2436      00
 2437 09a8 BE000000 		movl	$TEST_hsm_reset_Should_ReturnToInitialState_When_NotInInitialState_TestShell_instance, %esi
 2437      00
 2438 09ad BF000000 		movl	$_ZL75TEST_hsm_reset_Should_ReturnToInitialState_When_NotInInitialState_Installer, %edi
 2438      00
 2439 09b2 E8000000 		call	_ZN13TestInstallerC1ER10UtestShellPKcS3_S3_i
 2439      00
 2440 09b7 BA000000 		movl	$__dso_handle, %edx
 2440      00
 2441 09bc BE000000 		movl	$_ZL75TEST_hsm_reset_Should_ReturnToInitialState_When_NotInInitialState_Installer, %esi
 2441      00
 2442 09c1 BF000000 		movl	$_ZN13TestInstallerD1Ev, %edi
 2442      00
 2443 09c6 E8000000 		call	__cxa_atexit
 2443      00
 2444 09cb BF000000 		movl	$TEST_hsm_reset_Should_GiveError_When_NULLGiven_TestShell_instance, %edi
 2444      00
 2445 09d0 E8000000 		call	_ZN56TEST_hsm_reset_Should_GiveError_When_NULLGiven_TestShellC1Ev
 2445      00
 2446 09d5 BA000000 		movl	$__dso_handle, %edx
 2446      00
 2447 09da BE000000 		movl	$TEST_hsm_reset_Should_GiveError_When_NULLGiven_TestShell_instance, %esi
 2447      00
 2448 09df BF000000 		movl	$_ZN56TEST_hsm_reset_Should_GiveError_When_NULLGiven_TestShellD1Ev, %edi
 2448      00
 2449 09e4 E8000000 		call	__cxa_atexit
 2449      00
 2450 09e9 41B94800 		movl	$72, %r9d
 2450      0000
 2451 09ef 41B80000 		movl	$.LC0, %r8d
 2451      0000
 2452 09f5 B9000000 		movl	$.LC3, %ecx
 2452      00
GAS LISTING /tmp/ccxHiSG0.s 			page 52


 2453 09fa BA000000 		movl	$.LC2, %edx
 2453      00
 2454 09ff BE000000 		movl	$TEST_hsm_reset_Should_GiveError_When_NULLGiven_TestShell_instance, %esi
 2454      00
 2455 0a04 BF000000 		movl	$_ZL56TEST_hsm_reset_Should_GiveError_When_NULLGiven_Installer, %edi
 2455      00
 2456 0a09 E8000000 		call	_ZN13TestInstallerC1ER10UtestShellPKcS3_S3_i
 2456      00
 2457 0a0e BA000000 		movl	$__dso_handle, %edx
 2457      00
 2458 0a13 BE000000 		movl	$_ZL56TEST_hsm_reset_Should_GiveError_When_NULLGiven_Installer, %esi
 2458      00
 2459 0a18 BF000000 		movl	$_ZN13TestInstallerD1Ev, %edi
 2459      00
 2460 0a1d E8000000 		call	__cxa_atexit
 2460      00
 2461 0a22 BF000000 		movl	$TEST_hsm_reset_Should_AlsoResetAllStates_When_HsmReset_TestShell_instance, %edi
 2461      00
 2462 0a27 E8000000 		call	_ZN64TEST_hsm_reset_Should_AlsoResetAllStates_When_HsmReset_TestShellC1Ev
 2462      00
 2463 0a2c BA000000 		movl	$__dso_handle, %edx
 2463      00
 2464 0a31 BE000000 		movl	$TEST_hsm_reset_Should_AlsoResetAllStates_When_HsmReset_TestShell_instance, %esi
 2464      00
 2465 0a36 BF000000 		movl	$_ZN64TEST_hsm_reset_Should_AlsoResetAllStates_When_HsmReset_TestShellD1Ev, %edi
 2465      00
 2466 0a3b E8000000 		call	__cxa_atexit
 2466      00
 2467 0a40 41B95100 		movl	$81, %r9d
 2467      0000
 2468 0a46 41B80000 		movl	$.LC0, %r8d
 2468      0000
 2469 0a4c B9000000 		movl	$.LC4, %ecx
 2469      00
 2470 0a51 BA000000 		movl	$.LC2, %edx
 2470      00
 2471 0a56 BE000000 		movl	$TEST_hsm_reset_Should_AlsoResetAllStates_When_HsmReset_TestShell_instance, %esi
 2471      00
 2472 0a5b BF000000 		movl	$_ZL64TEST_hsm_reset_Should_AlsoResetAllStates_When_HsmReset_Installer, %edi
 2472      00
 2473 0a60 E8000000 		call	_ZN13TestInstallerC1ER10UtestShellPKcS3_S3_i
 2473      00
 2474 0a65 BA000000 		movl	$__dso_handle, %edx
 2474      00
 2475 0a6a BE000000 		movl	$_ZL64TEST_hsm_reset_Should_AlsoResetAllStates_When_HsmReset_Installer, %esi
 2475      00
 2476 0a6f BF000000 		movl	$_ZN13TestInstallerD1Ev, %edi
 2476      00
 2477 0a74 E8000000 		call	__cxa_atexit
 2477      00
 2478              	.L100:
 2479 0a79 90       		nop
 2480 0a7a C9       		leave
 2481              		.cfi_def_cfa 7, 8
 2482 0a7b C3       		ret
 2483              		.cfi_endproc
 2484              	.LFE749:
GAS LISTING /tmp/ccxHiSG0.s 			page 53


 2487              	_GLOBAL__sub_I_externTestGrouphsm_reset:
 2488              	.LFB750:
 2489              		.cfi_startproc
 2490 0a7c 55       		pushq	%rbp
 2491              		.cfi_def_cfa_offset 16
 2492              		.cfi_offset 6, -16
 2493 0a7d 4889E5   		movq	%rsp, %rbp
 2494              		.cfi_def_cfa_register 6
 2495 0a80 BEFFFF00 		movl	$65535, %esi
 2495      00
 2496 0a85 BF010000 		movl	$1, %edi
 2496      00
 2497 0a8a E8C0FEFF 		call	_Z41__static_initialization_and_destruction_0ii
 2497      FF
 2498 0a8f 5D       		popq	%rbp
 2499              		.cfi_def_cfa 7, 8
 2500 0a90 C3       		ret
 2501              		.cfi_endproc
 2502              	.LFE750:
 2504              		.section	.init_array,"aw"
 2505              		.align 8
 2506 0000 00000000 		.quad	_GLOBAL__sub_I_externTestGrouphsm_reset
 2506      00000000 
 2507              		.hidden	__dso_handle
 2508              		.ident	"GCC: (Ubuntu 5.4.0-6ubuntu1~16.04.5) 5.4.0 20160609"
 2509              		.section	.note.GNU-stack,"",@progbits
GAS LISTING /tmp/ccxHiSG0.s 			page 54

