GAS LISTING /tmp/ccFKddKf.s 			page 1


   1              		.file	"hsm_handleEvent_test.cpp"
   2              		.section	.text._ZN14TestTerminatorC2Ev,"axG",@progbits,_ZN14TestTerminatorC5Ev,comdat
   3              		.align 2
   4              		.weak	_ZN14TestTerminatorC2Ev
   6              	_ZN14TestTerminatorC2Ev:
   7              	.LFB611:
   8              		.cfi_startproc
   9 0000 55       		pushq	%rbp
  10              		.cfi_def_cfa_offset 16
  11              		.cfi_offset 6, -16
  12 0001 4889E5   		movq	%rsp, %rbp
  13              		.cfi_def_cfa_register 6
  14 0004 48897DF8 		movq	%rdi, -8(%rbp)
  15 0008 BA000000 		movl	$_ZTV14TestTerminator+16, %edx
  15      00
  16 000d 488B45F8 		movq	-8(%rbp), %rax
  17 0011 488910   		movq	%rdx, (%rax)
  18 0014 90       		nop
  19 0015 5D       		popq	%rbp
  20              		.cfi_def_cfa 7, 8
  21 0016 C3       		ret
  22              		.cfi_endproc
  23              	.LFE611:
  25              		.weak	_ZN14TestTerminatorC1Ev
  26              		.set	_ZN14TestTerminatorC1Ev,_ZN14TestTerminatorC2Ev
  27              		.section	.text._ZN20NormalTestTerminatorC2Ev,"axG",@progbits,_ZN20NormalTestTerminatorC5Ev,comdat
  28              		.align 2
  29              		.weak	_ZN20NormalTestTerminatorC2Ev
  31              	_ZN20NormalTestTerminatorC2Ev:
  32              	.LFB613:
  33              		.cfi_startproc
  34 0000 55       		pushq	%rbp
  35              		.cfi_def_cfa_offset 16
  36              		.cfi_offset 6, -16
  37 0001 4889E5   		movq	%rsp, %rbp
  38              		.cfi_def_cfa_register 6
  39 0004 4883EC10 		subq	$16, %rsp
  40 0008 48897DF8 		movq	%rdi, -8(%rbp)
  41 000c 488B45F8 		movq	-8(%rbp), %rax
  42 0010 4889C7   		movq	%rax, %rdi
  43 0013 E8000000 		call	_ZN14TestTerminatorC2Ev
  43      00
  44 0018 BA000000 		movl	$_ZTV20NormalTestTerminator+16, %edx
  44      00
  45 001d 488B45F8 		movq	-8(%rbp), %rax
  46 0021 488910   		movq	%rdx, (%rax)
  47 0024 90       		nop
  48 0025 C9       		leave
  49              		.cfi_def_cfa 7, 8
  50 0026 C3       		ret
  51              		.cfi_endproc
  52              	.LFE613:
  54              		.weak	_ZN20NormalTestTerminatorC1Ev
  55              		.set	_ZN20NormalTestTerminatorC1Ev,_ZN20NormalTestTerminatorC2Ev
  56              		.globl	firstState
  57              		.data
  58              		.align 32
GAS LISTING /tmp/ccFKddKf.s 			page 2


  61              	firstState:
  62 0000 00000000 		.quad	0
  62      00000000 
  63 0008 00000000 		.quad	0
  63      00000000 
  64 0010 00000000 		.quad	0
  64      00000000 
  65 0018 00000000 		.quad	0
  65      00000000 
  66 0020 00000000 		.quad	0
  66      00000000 
  67 0028 00000000 		.quad	._79
  67      00000000 
  68 0030 01000000 		.long	1
  69 0034 00000000 		.zero	20
  69      00000000 
  69      00000000 
  69      00000000 
  69      00000000 
  70              		.globl	secondState
  71 0048 00000000 		.align 32
  71      00000000 
  71      00000000 
  71      00000000 
  71      00000000 
  74              	secondState:
  75 0060 00000000 		.quad	0
  75      00000000 
  76 0068 00000000 		.quad	0
  76      00000000 
  77 0070 00000000 		.quad	0
  77      00000000 
  78 0078 00000000 		.quad	0
  78      00000000 
  79 0080 00000000 		.quad	0
  79      00000000 
  80 0088 00000000 		.quad	._80
  80      00000000 
  81 0090 01000000 		.long	1
  82 0094 00000000 		.zero	20
  82      00000000 
  82      00000000 
  82      00000000 
  82      00000000 
  83 00a8 00000000 		.align 16
  83      00000000 
  86              	_ZL9stateList:
  87 00b0 00000000 		.quad	firstState
  87      00000000 
  88 00b8 00000000 		.quad	secondState
  88      00000000 
  89              		.globl	externTestGrouphsm_handleEvent
  90              		.bss
  91              		.align 4
  94              	externTestGrouphsm_handleEvent:
  95 0000 00000000 		.zero	4
  96              		.section	.text._ZN39TEST_GROUP_CppUTestGrouphsm_handleEvent5setupEv,"axG",@progbits,_ZN39TEST_GROU
GAS LISTING /tmp/ccFKddKf.s 			page 3


  97              		.align 2
  98              		.weak	_ZN39TEST_GROUP_CppUTestGrouphsm_handleEvent5setupEv
 100              	_ZN39TEST_GROUP_CppUTestGrouphsm_handleEvent5setupEv:
 101              	.LFB692:
 102              		.cfi_startproc
 103 0000 55       		pushq	%rbp
 104              		.cfi_def_cfa_offset 16
 105              		.cfi_offset 6, -16
 106 0001 4889E5   		movq	%rsp, %rbp
 107              		.cfi_def_cfa_register 6
 108 0004 53       		pushq	%rbx
 109 0005 4883EC48 		subq	$72, %rsp
 110              		.cfi_offset 3, -24
 111 0009 48897DD8 		movq	%rdi, -40(%rbp)
 112 000d 64488B04 		movq	%fs:40, %rax
 112      25280000 
 112      00
 113 0016 488945E8 		movq	%rax, -24(%rbp)
 114 001a 31C0     		xorl	%eax, %eax
 115 001c B8020000 		movl	$2, %eax
 115      00
 116 0021 89C2     		movl	%eax, %edx
 117 0023 488B5DD8 		movq	-40(%rbp), %rbx
 118 0027 488D45B0 		leaq	-80(%rbp), %rax
 119 002b 89D1     		movl	%edx, %ecx
 120 002d BA000000 		movl	$_ZL9stateList, %edx
 120      00
 121 0032 BE000000 		movl	$firstState, %esi
 121      00
 122 0037 4889C7   		movq	%rax, %rdi
 123 003a E8000000 		call	_Z10_hsm_buildPK5statePPS_j
 123      00
 124 003f 488B45B0 		movq	-80(%rbp), %rax
 125 0043 48894308 		movq	%rax, 8(%rbx)
 126 0047 488B45B8 		movq	-72(%rbp), %rax
 127 004b 48894310 		movq	%rax, 16(%rbx)
 128 004f 488B45C0 		movq	-64(%rbp), %rax
 129 0053 48894318 		movq	%rax, 24(%rbx)
 130 0057 488B45C8 		movq	-56(%rbp), %rax
 131 005b 48894320 		movq	%rax, 32(%rbx)
 132 005f 90       		nop
 133 0060 488B45E8 		movq	-24(%rbp), %rax
 134 0064 64483304 		xorq	%fs:40, %rax
 134      25280000 
 134      00
 135 006d 7405     		je	.L4
 136 006f E8000000 		call	__stack_chk_fail
 136      00
 137              	.L4:
 138 0074 4883C448 		addq	$72, %rsp
 139 0078 5B       		popq	%rbx
 140 0079 5D       		popq	%rbp
 141              		.cfi_def_cfa 7, 8
 142 007a C3       		ret
 143              		.cfi_endproc
 144              	.LFE692:
 146              		.section	.text._ZN39TEST_GROUP_CppUTestGrouphsm_handleEvent8teardownEv,"axG",@progbits,_ZN39TEST_G
GAS LISTING /tmp/ccFKddKf.s 			page 4


 147              		.align 2
 148              		.weak	_ZN39TEST_GROUP_CppUTestGrouphsm_handleEvent8teardownEv
 150              	_ZN39TEST_GROUP_CppUTestGrouphsm_handleEvent8teardownEv:
 151              	.LFB693:
 152              		.cfi_startproc
 153 0000 55       		pushq	%rbp
 154              		.cfi_def_cfa_offset 16
 155              		.cfi_offset 6, -16
 156 0001 4889E5   		movq	%rsp, %rbp
 157              		.cfi_def_cfa_register 6
 158 0004 48897DF8 		movq	%rdi, -8(%rbp)
 159 0008 90       		nop
 160 0009 5D       		popq	%rbp
 161              		.cfi_def_cfa 7, 8
 162 000a C3       		ret
 163              		.cfi_endproc
 164              	.LFE693:
 166              		.section	.text._ZN39TEST_GROUP_CppUTestGrouphsm_handleEventC2Ev,"axG",@progbits,_ZN39TEST_GROUP_Cp
 167              		.align 2
 168              		.weak	_ZN39TEST_GROUP_CppUTestGrouphsm_handleEventC2Ev
 170              	_ZN39TEST_GROUP_CppUTestGrouphsm_handleEventC2Ev:
 171              	.LFB696:
 172              		.cfi_startproc
 173 0000 55       		pushq	%rbp
 174              		.cfi_def_cfa_offset 16
 175              		.cfi_offset 6, -16
 176 0001 4889E5   		movq	%rsp, %rbp
 177              		.cfi_def_cfa_register 6
 178 0004 4883EC10 		subq	$16, %rsp
 179 0008 48897DF8 		movq	%rdi, -8(%rbp)
 180 000c 488B45F8 		movq	-8(%rbp), %rax
 181 0010 4889C7   		movq	%rax, %rdi
 182 0013 E8000000 		call	_ZN5UtestC2Ev
 182      00
 183 0018 BA000000 		movl	$_ZTV39TEST_GROUP_CppUTestGrouphsm_handleEvent+16, %edx
 183      00
 184 001d 488B45F8 		movq	-8(%rbp), %rax
 185 0021 488910   		movq	%rdx, (%rax)
 186 0024 90       		nop
 187 0025 C9       		leave
 188              		.cfi_def_cfa 7, 8
 189 0026 C3       		ret
 190              		.cfi_endproc
 191              	.LFE696:
 193              		.weak	_ZN39TEST_GROUP_CppUTestGrouphsm_handleEventC1Ev
 194              		.set	_ZN39TEST_GROUP_CppUTestGrouphsm_handleEventC1Ev,_ZN39TEST_GROUP_CppUTestGrouphsm_handleEvent
 195              		.section	.text._ZN39TEST_GROUP_CppUTestGrouphsm_handleEventD2Ev,"axG",@progbits,_ZN39TEST_GROUP_Cp
 196              		.align 2
 197              		.weak	_ZN39TEST_GROUP_CppUTestGrouphsm_handleEventD2Ev
 199              	_ZN39TEST_GROUP_CppUTestGrouphsm_handleEventD2Ev:
 200              	.LFB699:
 201              		.cfi_startproc
 202 0000 55       		pushq	%rbp
 203              		.cfi_def_cfa_offset 16
 204              		.cfi_offset 6, -16
 205 0001 4889E5   		movq	%rsp, %rbp
 206              		.cfi_def_cfa_register 6
GAS LISTING /tmp/ccFKddKf.s 			page 5


 207 0004 4883EC10 		subq	$16, %rsp
 208 0008 48897DF8 		movq	%rdi, -8(%rbp)
 209 000c BA000000 		movl	$_ZTV39TEST_GROUP_CppUTestGrouphsm_handleEvent+16, %edx
 209      00
 210 0011 488B45F8 		movq	-8(%rbp), %rax
 211 0015 488910   		movq	%rdx, (%rax)
 212 0018 488B45F8 		movq	-8(%rbp), %rax
 213 001c 4889C7   		movq	%rax, %rdi
 214 001f E8000000 		call	_ZN5UtestD2Ev
 214      00
 215 0024 B8000000 		movl	$0, %eax
 215      00
 216 0029 85C0     		testl	%eax, %eax
 217 002b 740C     		je	.L7
 218 002d 488B45F8 		movq	-8(%rbp), %rax
 219 0031 4889C7   		movq	%rax, %rdi
 220 0034 E8000000 		call	_ZdlPv
 220      00
 221              	.L7:
 222 0039 C9       		leave
 223              		.cfi_def_cfa 7, 8
 224 003a C3       		ret
 225              		.cfi_endproc
 226              	.LFE699:
 228              		.weak	_ZN39TEST_GROUP_CppUTestGrouphsm_handleEventD1Ev
 229              		.set	_ZN39TEST_GROUP_CppUTestGrouphsm_handleEventD1Ev,_ZN39TEST_GROUP_CppUTestGrouphsm_handleEvent
 230              		.section	.text._ZN39TEST_GROUP_CppUTestGrouphsm_handleEventD0Ev,"axG",@progbits,_ZN39TEST_GROUP_Cp
 231              		.align 2
 232              		.weak	_ZN39TEST_GROUP_CppUTestGrouphsm_handleEventD0Ev
 234              	_ZN39TEST_GROUP_CppUTestGrouphsm_handleEventD0Ev:
 235              	.LFB701:
 236              		.cfi_startproc
 237 0000 55       		pushq	%rbp
 238              		.cfi_def_cfa_offset 16
 239              		.cfi_offset 6, -16
 240 0001 4889E5   		movq	%rsp, %rbp
 241              		.cfi_def_cfa_register 6
 242 0004 4883EC10 		subq	$16, %rsp
 243 0008 48897DF8 		movq	%rdi, -8(%rbp)
 244 000c 488B45F8 		movq	-8(%rbp), %rax
 245 0010 4889C7   		movq	%rax, %rdi
 246 0013 E8000000 		call	_ZN39TEST_GROUP_CppUTestGrouphsm_handleEventD1Ev
 246      00
 247 0018 488B45F8 		movq	-8(%rbp), %rax
 248 001c 4889C7   		movq	%rax, %rdi
 249 001f E8000000 		call	_ZdlPv
 249      00
 250 0024 C9       		leave
 251              		.cfi_def_cfa 7, 8
 252 0025 C3       		ret
 253              		.cfi_endproc
 254              	.LFE701:
 256              		.section	.text._ZN71TEST_hsm_handleEvent_Should_GiveError_When_InvalidHandleAndNoEvent_TestC2Ev,"a
 257              		.align 2
 258              		.weak	_ZN71TEST_hsm_handleEvent_Should_GiveError_When_InvalidHandleAndNoEvent_TestC2Ev
 260              	_ZN71TEST_hsm_handleEvent_Should_GiveError_When_InvalidHandleAndNoEvent_TestC2Ev:
 261              	.LFB702:
GAS LISTING /tmp/ccFKddKf.s 			page 6


 262              		.cfi_startproc
 263 0000 55       		pushq	%rbp
 264              		.cfi_def_cfa_offset 16
 265              		.cfi_offset 6, -16
 266 0001 4889E5   		movq	%rsp, %rbp
 267              		.cfi_def_cfa_register 6
 268 0004 4883EC10 		subq	$16, %rsp
 269 0008 48897DF8 		movq	%rdi, -8(%rbp)
 270 000c 488B45F8 		movq	-8(%rbp), %rax
 271 0010 4889C6   		movq	%rax, %rsi
 272 0013 B8000000 		movl	$0, %eax
 272      00
 273 0018 BA070000 		movl	$7, %edx
 273      00
 274 001d 4889F7   		movq	%rsi, %rdi
 275 0020 4889D1   		movq	%rdx, %rcx
 276 0023 F348AB   		rep stosq
 277 0026 488B45F8 		movq	-8(%rbp), %rax
 278 002a 4889C7   		movq	%rax, %rdi
 279 002d E8000000 		call	_ZN39TEST_GROUP_CppUTestGrouphsm_handleEventC2Ev
 279      00
 280 0032 BA000000 		movl	$_ZTV71TEST_hsm_handleEvent_Should_GiveError_When_InvalidHandleAndNoEvent_Test+16, %edx
 280      00
 281 0037 488B45F8 		movq	-8(%rbp), %rax
 282 003b 488910   		movq	%rdx, (%rax)
 283 003e 90       		nop
 284 003f C9       		leave
 285              		.cfi_def_cfa 7, 8
 286 0040 C3       		ret
 287              		.cfi_endproc
 288              	.LFE702:
 290              		.weak	_ZN71TEST_hsm_handleEvent_Should_GiveError_When_InvalidHandleAndNoEvent_TestC1Ev
 291              		.set	_ZN71TEST_hsm_handleEvent_Should_GiveError_When_InvalidHandleAndNoEvent_TestC1Ev,_ZN71TEST_hs
 292              		.section	.rodata
 293              		.align 8
 294              	.LC0:
 295 0000 74657374 		.string	"tests/fsm/methods/hsm_handleEvent_test.cpp"
 295      732F6673 
 295      6D2F6D65 
 295      74686F64 
 295      732F6873 
 296              		.section	.text._ZN76TEST_hsm_handleEvent_Should_GiveError_When_InvalidHandleAndNoEvent_TestShell10
 297              		.align 2
 298              		.weak	_ZN76TEST_hsm_handleEvent_Should_GiveError_When_InvalidHandleAndNoEvent_TestShell10createTes
 300              	_ZN76TEST_hsm_handleEvent_Should_GiveError_When_InvalidHandleAndNoEvent_TestShell10createTestEv:
 301              	.LFB704:
 302              		.cfi_startproc
 303              		.cfi_personality 0x3,__gxx_personality_v0
 304              		.cfi_lsda 0x3,.LLSDA704
 305 0000 55       		pushq	%rbp
 306              		.cfi_def_cfa_offset 16
 307              		.cfi_offset 6, -16
 308 0001 4889E5   		movq	%rsp, %rbp
 309              		.cfi_def_cfa_register 6
 310 0004 4154     		pushq	%r12
 311 0006 53       		pushq	%rbx
 312 0007 4883EC10 		subq	$16, %rsp
GAS LISTING /tmp/ccFKddKf.s 			page 7


 313              		.cfi_offset 12, -24
 314              		.cfi_offset 3, -32
 315 000b 48897DE8 		movq	%rdi, -24(%rbp)
 316 000f BA400000 		movl	$64, %edx
 316      00
 317 0014 BE000000 		movl	$.LC0, %esi
 317      00
 318 0019 BF380000 		movl	$56, %edi
 318      00
 319              	.LEHB0:
 320 001e E8000000 		call	_ZnwmPKci
 320      00
 321              	.LEHE0:
 322 0023 4889C3   		movq	%rax, %rbx
 323 0026 4889DF   		movq	%rbx, %rdi
 324              	.LEHB1:
 325 0029 E8000000 		call	_ZN71TEST_hsm_handleEvent_Should_GiveError_When_InvalidHandleAndNoEvent_TestC1Ev
 325      00
 326              	.LEHE1:
 327 002e 4889D8   		movq	%rbx, %rax
 328 0031 EB20     		jmp	.L15
 329              	.L14:
 330 0033 4989C4   		movq	%rax, %r12
 331 0036 BA400000 		movl	$64, %edx
 331      00
 332 003b BE000000 		movl	$.LC0, %esi
 332      00
 333 0040 4889DF   		movq	%rbx, %rdi
 334 0043 E8000000 		call	_ZdlPvPKci
 334      00
 335 0048 4C89E0   		movq	%r12, %rax
 336 004b 4889C7   		movq	%rax, %rdi
 337              	.LEHB2:
 338 004e E8000000 		call	_Unwind_Resume
 338      00
 339              	.LEHE2:
 340              	.L15:
 341 0053 4883C410 		addq	$16, %rsp
 342 0057 5B       		popq	%rbx
 343 0058 415C     		popq	%r12
 344 005a 5D       		popq	%rbp
 345              		.cfi_def_cfa 7, 8
 346 005b C3       		ret
 347              		.cfi_endproc
 348              	.LFE704:
 349              		.globl	__gxx_personality_v0
 350              		.section	.gcc_except_table._ZN76TEST_hsm_handleEvent_Should_GiveError_When_InvalidHandleAndNoEvent
 351              	.LLSDA704:
 352 0000 FF       		.byte	0xff
 353 0001 FF       		.byte	0xff
 354 0002 01       		.byte	0x1
 355 0003 0C       		.uleb128 .LLSDACSE704-.LLSDACSB704
 356              	.LLSDACSB704:
 357 0004 1E       		.uleb128 .LEHB0-.LFB704
 358 0005 05       		.uleb128 .LEHE0-.LEHB0
 359 0006 00       		.uleb128 0
 360 0007 00       		.uleb128 0
GAS LISTING /tmp/ccFKddKf.s 			page 8


 361 0008 29       		.uleb128 .LEHB1-.LFB704
 362 0009 05       		.uleb128 .LEHE1-.LEHB1
 363 000a 33       		.uleb128 .L14-.LFB704
 364 000b 00       		.uleb128 0
 365 000c 4E       		.uleb128 .LEHB2-.LFB704
 366 000d 05       		.uleb128 .LEHE2-.LEHB2
 367 000e 00       		.uleb128 0
 368 000f 00       		.uleb128 0
 369              	.LLSDACSE704:
 370              		.section	.text._ZN76TEST_hsm_handleEvent_Should_GiveError_When_InvalidHandleAndNoEvent_TestShell10
 372              		.section	.text._ZN76TEST_hsm_handleEvent_Should_GiveError_When_InvalidHandleAndNoEvent_TestShellC2
 373              		.align 2
 374              		.weak	_ZN76TEST_hsm_handleEvent_Should_GiveError_When_InvalidHandleAndNoEvent_TestShellC2Ev
 376              	_ZN76TEST_hsm_handleEvent_Should_GiveError_When_InvalidHandleAndNoEvent_TestShellC2Ev:
 377              	.LFB706:
 378              		.cfi_startproc
 379 0000 55       		pushq	%rbp
 380              		.cfi_def_cfa_offset 16
 381              		.cfi_offset 6, -16
 382 0001 4889E5   		movq	%rsp, %rbp
 383              		.cfi_def_cfa_register 6
 384 0004 4883EC10 		subq	$16, %rsp
 385 0008 48897DF8 		movq	%rdi, -8(%rbp)
 386 000c 488B45F8 		movq	-8(%rbp), %rax
 387 0010 4889C7   		movq	%rax, %rdi
 388 0013 E8000000 		call	_ZN10UtestShellC2Ev
 388      00
 389 0018 BA000000 		movl	$_ZTV76TEST_hsm_handleEvent_Should_GiveError_When_InvalidHandleAndNoEvent_TestShell+16, %edx
 389      00
 390 001d 488B45F8 		movq	-8(%rbp), %rax
 391 0021 488910   		movq	%rdx, (%rax)
 392 0024 90       		nop
 393 0025 C9       		leave
 394              		.cfi_def_cfa 7, 8
 395 0026 C3       		ret
 396              		.cfi_endproc
 397              	.LFE706:
 399              		.weak	_ZN76TEST_hsm_handleEvent_Should_GiveError_When_InvalidHandleAndNoEvent_TestShellC1Ev
 400              		.set	_ZN76TEST_hsm_handleEvent_Should_GiveError_When_InvalidHandleAndNoEvent_TestShellC1Ev,_ZN76TE
 401              		.globl	TEST_hsm_handleEvent_Should_GiveError_When_InvalidHandleAndNoEvent_TestShell_instance
 402              		.bss
 403 0004 00000000 		.align 32
 403      00000000 
 403      00000000 
 403      00000000 
 403      00000000 
 406              	TEST_hsm_handleEvent_Should_GiveError_When_InvalidHandleAndNoEvent_TestShell_instance:
 407 0020 00000000 		.zero	56
 407      00000000 
 407      00000000 
 407      00000000 
 407      00000000 
 408              		.local	_ZL76TEST_hsm_handleEvent_Should_GiveError_When_InvalidHandleAndNoEvent_Installer
 409              		.comm	_ZL76TEST_hsm_handleEvent_Should_GiveError_When_InvalidHandleAndNoEvent_Installer,8,8
 410              		.text
 411              		.align 2
 412              		.globl	_ZN71TEST_hsm_handleEvent_Should_GiveError_When_InvalidHandleAndNoEvent_Test8testBodyEv
GAS LISTING /tmp/ccFKddKf.s 			page 9


 414              	_ZN71TEST_hsm_handleEvent_Should_GiveError_When_InvalidHandleAndNoEvent_Test8testBodyEv:
 415              	.LFB708:
 416              		.cfi_startproc
 417              		.cfi_personality 0x3,__gxx_personality_v0
 418              		.cfi_lsda 0x3,.LLSDA708
 419 0000 55       		pushq	%rbp
 420              		.cfi_def_cfa_offset 16
 421              		.cfi_offset 6, -16
 422 0001 4889E5   		movq	%rsp, %rbp
 423              		.cfi_def_cfa_register 6
 424 0004 4155     		pushq	%r13
 425 0006 4154     		pushq	%r12
 426 0008 53       		pushq	%rbx
 427 0009 4883EC58 		subq	$88, %rsp
 428              		.cfi_offset 13, -24
 429              		.cfi_offset 12, -32
 430              		.cfi_offset 3, -40
 431 000d 48897D98 		movq	%rdi, -104(%rbp)
 432 0011 64488B04 		movq	%fs:40, %rax
 432      25280000 
 432      00
 433 001a 488945D8 		movq	%rax, -40(%rbp)
 434 001e 31C0     		xorl	%eax, %eax
 435 0020 488B4598 		movq	-104(%rbp), %rax
 436 0024 4883C028 		addq	$40, %rax
 437 0028 4889C6   		movq	%rax, %rsi
 438 002b BF000000 		movl	$0, %edi
 438      00
 439              	.LEHB3:
 440 0030 E8000000 		call	_Z15hsm_handleEventP5hsm_tPK11hsm_event_t
 440      00
 441 0035 8945AC   		movl	%eax, -84(%rbp)
 442 0038 837DACFF 		cmpl	$-1, -84(%rbp)
 443 003c 0F84B800 		je	.L18
 443      0000
 444 0042 E8000000 		call	_ZN10UtestShell10getCurrentEv
 444      00
 445              	.LEHE3:
 446 0047 4889C3   		movq	%rax, %rbx
 447 004a 488B03   		movq	(%rbx), %rax
 448 004d 48059800 		addq	$152, %rax
 448      0000
 449 0053 4C8B20   		movq	(%rax), %r12
 450 0056 48C745D0 		movq	$0, -48(%rbp)
 450      00000000 
 451 005e 488D45D0 		leaq	-48(%rbp), %rax
 452 0062 4889C7   		movq	%rax, %rdi
 453 0065 E8000000 		call	_ZN20NormalTestTerminatorC1Ev
 453      00
 454 006a 488D45C0 		leaq	-64(%rbp), %rax
 455 006e 8B55AC   		movl	-84(%rbp), %edx
 456 0071 89D6     		movl	%edx, %esi
 457 0073 4889C7   		movq	%rax, %rdi
 458              	.LEHB4:
 459 0076 E8000000 		call	_Z10StringFromi
 459      00
 460              	.LEHE4:
GAS LISTING /tmp/ccFKddKf.s 			page 10


 461 007b 488D45C0 		leaq	-64(%rbp), %rax
 462 007f 4889C7   		movq	%rax, %rdi
 463              	.LEHB5:
 464 0082 E8000000 		call	_ZNK12SimpleString12asCharStringEv
 464      00
 465 0087 4989C5   		movq	%rax, %r13
 466 008a 488D45B0 		leaq	-80(%rbp), %rax
 467 008e BEFFFFFF 		movl	$-1, %esi
 467      FF
 468 0093 4889C7   		movq	%rax, %rdi
 469 0096 E8000000 		call	_Z10StringFromi
 469      00
 470              	.LEHE5:
 471 009b 488D45B0 		leaq	-80(%rbp), %rax
 472 009f 4889C7   		movq	%rax, %rdi
 473              	.LEHB6:
 474 00a2 E8000000 		call	_ZNK12SimpleString12asCharStringEv
 474      00
 475 00a7 4889C2   		movq	%rax, %rdx
 476 00aa 4883EC08 		subq	$8, %rsp
 477 00ae 488D45D0 		leaq	-48(%rbp), %rax
 478 00b2 50       		pushq	%rax
 479 00b3 41B94600 		movl	$70, %r9d
 479      0000
 480 00b9 41B80000 		movl	$.LC0, %r8d
 480      0000
 481 00bf 4C89E9   		movq	%r13, %rcx
 482 00c2 BE010000 		movl	$1, %esi
 482      00
 483 00c7 4889DF   		movq	%rbx, %rdi
 484              		.cfi_escape 0x2e,0x10
 485 00ca 41FFD4   		call	*%r12
 486              	.LEHE6:
 487 00cd 4883C410 		addq	$16, %rsp
 488 00d1 488D45B0 		leaq	-80(%rbp), %rax
 489 00d5 4889C7   		movq	%rax, %rdi
 490              	.LEHB7:
 491              		.cfi_escape 0x2e,0
 492 00d8 E8000000 		call	_ZN12SimpleStringD1Ev
 492      00
 493              	.LEHE7:
 494 00dd 488D45C0 		leaq	-64(%rbp), %rax
 495 00e1 4889C7   		movq	%rax, %rdi
 496              	.LEHB8:
 497 00e4 E8000000 		call	_ZN12SimpleStringD1Ev
 497      00
 498              	.LEHE8:
 499 00e9 488D45D0 		leaq	-48(%rbp), %rax
 500 00ed 4889C7   		movq	%rax, %rdi
 501              	.LEHB9:
 502 00f0 E8000000 		call	_ZN20NormalTestTerminatorD1Ev
 502      00
 503 00f5 E9AC0000 		jmp	.L17
 503      00
 504              	.L18:
 505 00fa E8000000 		call	_ZN10UtestShell10getCurrentEv
 505      00
GAS LISTING /tmp/ccFKddKf.s 			page 11


 506              	.LEHE9:
 507 00ff 4889C3   		movq	%rax, %rbx
 508 0102 488B03   		movq	(%rbx), %rax
 509 0105 4883C078 		addq	$120, %rax
 510 0109 4C8B20   		movq	(%rax), %r12
 511 010c 48C745D0 		movq	$0, -48(%rbp)
 511      00000000 
 512 0114 488D45D0 		leaq	-48(%rbp), %rax
 513 0118 4889C7   		movq	%rax, %rdi
 514 011b E8000000 		call	_ZN20NormalTestTerminatorC1Ev
 514      00
 515 0120 488D45D0 		leaq	-48(%rbp), %rax
 516 0124 4989C1   		movq	%rax, %r9
 517 0127 41B84600 		movl	$70, %r8d
 517      0000
 518 012d B9000000 		movl	$.LC0, %ecx
 518      00
 519 0132 BA000000 		movl	$0, %edx
 519      00
 520 0137 BE000000 		movl	$0, %esi
 520      00
 521 013c 4889DF   		movq	%rbx, %rdi
 522              	.LEHB10:
 523 013f 41FFD4   		call	*%r12
 524              	.LEHE10:
 525 0142 488D45D0 		leaq	-48(%rbp), %rax
 526 0146 4889C7   		movq	%rax, %rdi
 527              	.LEHB11:
 528 0149 E8000000 		call	_ZN20NormalTestTerminatorD1Ev
 528      00
 529              	.LEHE11:
 530 014e EB56     		jmp	.L17
 531              	.L27:
 532 0150 4889C3   		movq	%rax, %rbx
 533 0153 488D45B0 		leaq	-80(%rbp), %rax
 534 0157 4889C7   		movq	%rax, %rdi
 535 015a E8000000 		call	_ZN12SimpleStringD1Ev
 535      00
 536 015f EB03     		jmp	.L21
 537              	.L26:
 538 0161 4889C3   		movq	%rax, %rbx
 539              	.L21:
 540 0164 488D45C0 		leaq	-64(%rbp), %rax
 541 0168 4889C7   		movq	%rax, %rdi
 542 016b E8000000 		call	_ZN12SimpleStringD1Ev
 542      00
 543 0170 EB03     		jmp	.L22
 544              	.L25:
 545 0172 4889C3   		movq	%rax, %rbx
 546              	.L22:
 547 0175 488D45D0 		leaq	-48(%rbp), %rax
 548 0179 4889C7   		movq	%rax, %rdi
 549 017c E8000000 		call	_ZN20NormalTestTerminatorD1Ev
 549      00
 550 0181 4889D8   		movq	%rbx, %rax
 551 0184 4889C7   		movq	%rax, %rdi
 552              	.LEHB12:
GAS LISTING /tmp/ccFKddKf.s 			page 12


 553 0187 E8000000 		call	_Unwind_Resume
 553      00
 554              	.LEHE12:
 555              	.L28:
 556 018c 4889C3   		movq	%rax, %rbx
 557 018f 488D45D0 		leaq	-48(%rbp), %rax
 558 0193 4889C7   		movq	%rax, %rdi
 559 0196 E8000000 		call	_ZN20NormalTestTerminatorD1Ev
 559      00
 560 019b 4889D8   		movq	%rbx, %rax
 561 019e 4889C7   		movq	%rax, %rdi
 562              	.LEHB13:
 563 01a1 E8000000 		call	_Unwind_Resume
 563      00
 564              	.LEHE13:
 565              	.L17:
 566 01a6 488B45D8 		movq	-40(%rbp), %rax
 567 01aa 64483304 		xorq	%fs:40, %rax
 567      25280000 
 567      00
 568 01b3 7405     		je	.L24
 569 01b5 E8000000 		call	__stack_chk_fail
 569      00
 570              	.L24:
 571 01ba 488D65E8 		leaq	-24(%rbp), %rsp
 572 01be 5B       		popq	%rbx
 573 01bf 415C     		popq	%r12
 574 01c1 415D     		popq	%r13
 575 01c3 5D       		popq	%rbp
 576              		.cfi_def_cfa 7, 8
 577 01c4 C3       		ret
 578              		.cfi_endproc
 579              	.LFE708:
 580              		.section	.gcc_except_table,"a",@progbits
 581              	.LLSDA708:
 582 0000 FF       		.byte	0xff
 583 0001 FF       		.byte	0xff
 584 0002 01       		.byte	0x1
 585 0003 3B       		.uleb128 .LLSDACSE708-.LLSDACSB708
 586              	.LLSDACSB708:
 587 0004 30       		.uleb128 .LEHB3-.LFB708
 588 0005 17       		.uleb128 .LEHE3-.LEHB3
 589 0006 00       		.uleb128 0
 590 0007 00       		.uleb128 0
 591 0008 76       		.uleb128 .LEHB4-.LFB708
 592 0009 05       		.uleb128 .LEHE4-.LEHB4
 593 000a F202     		.uleb128 .L25-.LFB708
 594 000c 00       		.uleb128 0
 595 000d 8201     		.uleb128 .LEHB5-.LFB708
 596 000f 19       		.uleb128 .LEHE5-.LEHB5
 597 0010 E102     		.uleb128 .L26-.LFB708
 598 0012 00       		.uleb128 0
 599 0013 A201     		.uleb128 .LEHB6-.LFB708
 600 0015 2B       		.uleb128 .LEHE6-.LEHB6
 601 0016 D002     		.uleb128 .L27-.LFB708
 602 0018 00       		.uleb128 0
 603 0019 D801     		.uleb128 .LEHB7-.LFB708
GAS LISTING /tmp/ccFKddKf.s 			page 13


 604 001b 05       		.uleb128 .LEHE7-.LEHB7
 605 001c E102     		.uleb128 .L26-.LFB708
 606 001e 00       		.uleb128 0
 607 001f E401     		.uleb128 .LEHB8-.LFB708
 608 0021 05       		.uleb128 .LEHE8-.LEHB8
 609 0022 F202     		.uleb128 .L25-.LFB708
 610 0024 00       		.uleb128 0
 611 0025 F001     		.uleb128 .LEHB9-.LFB708
 612 0027 0F       		.uleb128 .LEHE9-.LEHB9
 613 0028 00       		.uleb128 0
 614 0029 00       		.uleb128 0
 615 002a BF02     		.uleb128 .LEHB10-.LFB708
 616 002c 03       		.uleb128 .LEHE10-.LEHB10
 617 002d 8C03     		.uleb128 .L28-.LFB708
 618 002f 00       		.uleb128 0
 619 0030 C902     		.uleb128 .LEHB11-.LFB708
 620 0032 05       		.uleb128 .LEHE11-.LEHB11
 621 0033 00       		.uleb128 0
 622 0034 00       		.uleb128 0
 623 0035 8703     		.uleb128 .LEHB12-.LFB708
 624 0037 05       		.uleb128 .LEHE12-.LEHB12
 625 0038 00       		.uleb128 0
 626 0039 00       		.uleb128 0
 627 003a A103     		.uleb128 .LEHB13-.LFB708
 628 003c 05       		.uleb128 .LEHE13-.LEHB13
 629 003d 00       		.uleb128 0
 630 003e 00       		.uleb128 0
 631              	.LLSDACSE708:
 632              		.text
 634              		.section	.text._ZN58TEST_hsm_handleEvent_Should_Know_When_NoEventProvided_TestC2Ev,"axG",@progbits
 635              		.align 2
 636              		.weak	_ZN58TEST_hsm_handleEvent_Should_Know_When_NoEventProvided_TestC2Ev
 638              	_ZN58TEST_hsm_handleEvent_Should_Know_When_NoEventProvided_TestC2Ev:
 639              	.LFB710:
 640              		.cfi_startproc
 641 0000 55       		pushq	%rbp
 642              		.cfi_def_cfa_offset 16
 643              		.cfi_offset 6, -16
 644 0001 4889E5   		movq	%rsp, %rbp
 645              		.cfi_def_cfa_register 6
 646 0004 4883EC10 		subq	$16, %rsp
 647 0008 48897DF8 		movq	%rdi, -8(%rbp)
 648 000c 488B45F8 		movq	-8(%rbp), %rax
 649 0010 4889C6   		movq	%rax, %rsi
 650 0013 B8000000 		movl	$0, %eax
 650      00
 651 0018 BA070000 		movl	$7, %edx
 651      00
 652 001d 4889F7   		movq	%rsi, %rdi
 653 0020 4889D1   		movq	%rdx, %rcx
 654 0023 F348AB   		rep stosq
 655 0026 488B45F8 		movq	-8(%rbp), %rax
 656 002a 4889C7   		movq	%rax, %rdi
 657 002d E8000000 		call	_ZN39TEST_GROUP_CppUTestGrouphsm_handleEventC2Ev
 657      00
 658 0032 BA000000 		movl	$_ZTV58TEST_hsm_handleEvent_Should_Know_When_NoEventProvided_Test+16, %edx
 658      00
GAS LISTING /tmp/ccFKddKf.s 			page 14


 659 0037 488B45F8 		movq	-8(%rbp), %rax
 660 003b 488910   		movq	%rdx, (%rax)
 661 003e 90       		nop
 662 003f C9       		leave
 663              		.cfi_def_cfa 7, 8
 664 0040 C3       		ret
 665              		.cfi_endproc
 666              	.LFE710:
 668              		.weak	_ZN58TEST_hsm_handleEvent_Should_Know_When_NoEventProvided_TestC1Ev
 669              		.set	_ZN58TEST_hsm_handleEvent_Should_Know_When_NoEventProvided_TestC1Ev,_ZN58TEST_hsm_handleEvent
 670              		.section	.text._ZN63TEST_hsm_handleEvent_Should_Know_When_NoEventProvided_TestShell10createTestEv,
 671              		.align 2
 672              		.weak	_ZN63TEST_hsm_handleEvent_Should_Know_When_NoEventProvided_TestShell10createTestEv
 674              	_ZN63TEST_hsm_handleEvent_Should_Know_When_NoEventProvided_TestShell10createTestEv:
 675              	.LFB712:
 676              		.cfi_startproc
 677              		.cfi_personality 0x3,__gxx_personality_v0
 678              		.cfi_lsda 0x3,.LLSDA712
 679 0000 55       		pushq	%rbp
 680              		.cfi_def_cfa_offset 16
 681              		.cfi_offset 6, -16
 682 0001 4889E5   		movq	%rsp, %rbp
 683              		.cfi_def_cfa_register 6
 684 0004 4154     		pushq	%r12
 685 0006 53       		pushq	%rbx
 686 0007 4883EC10 		subq	$16, %rsp
 687              		.cfi_offset 12, -24
 688              		.cfi_offset 3, -32
 689 000b 48897DE8 		movq	%rdi, -24(%rbp)
 690 000f BA490000 		movl	$73, %edx
 690      00
 691 0014 BE000000 		movl	$.LC0, %esi
 691      00
 692 0019 BF380000 		movl	$56, %edi
 692      00
 693              	.LEHB14:
 694 001e E8000000 		call	_ZnwmPKci
 694      00
 695              	.LEHE14:
 696 0023 4889C3   		movq	%rax, %rbx
 697 0026 4889DF   		movq	%rbx, %rdi
 698              	.LEHB15:
 699 0029 E8000000 		call	_ZN58TEST_hsm_handleEvent_Should_Know_When_NoEventProvided_TestC1Ev
 699      00
 700              	.LEHE15:
 701 002e 4889D8   		movq	%rbx, %rax
 702 0031 EB20     		jmp	.L34
 703              	.L33:
 704 0033 4989C4   		movq	%rax, %r12
 705 0036 BA490000 		movl	$73, %edx
 705      00
 706 003b BE000000 		movl	$.LC0, %esi
 706      00
 707 0040 4889DF   		movq	%rbx, %rdi
 708 0043 E8000000 		call	_ZdlPvPKci
 708      00
 709 0048 4C89E0   		movq	%r12, %rax
GAS LISTING /tmp/ccFKddKf.s 			page 15


 710 004b 4889C7   		movq	%rax, %rdi
 711              	.LEHB16:
 712 004e E8000000 		call	_Unwind_Resume
 712      00
 713              	.LEHE16:
 714              	.L34:
 715 0053 4883C410 		addq	$16, %rsp
 716 0057 5B       		popq	%rbx
 717 0058 415C     		popq	%r12
 718 005a 5D       		popq	%rbp
 719              		.cfi_def_cfa 7, 8
 720 005b C3       		ret
 721              		.cfi_endproc
 722              	.LFE712:
 723              		.section	.gcc_except_table
 724              	.LLSDA712:
 725 003f FF       		.byte	0xff
 726 0040 FF       		.byte	0xff
 727 0041 01       		.byte	0x1
 728 0042 0C       		.uleb128 .LLSDACSE712-.LLSDACSB712
 729              	.LLSDACSB712:
 730 0043 1E       		.uleb128 .LEHB14-.LFB712
 731 0044 05       		.uleb128 .LEHE14-.LEHB14
 732 0045 00       		.uleb128 0
 733 0046 00       		.uleb128 0
 734 0047 29       		.uleb128 .LEHB15-.LFB712
 735 0048 05       		.uleb128 .LEHE15-.LEHB15
 736 0049 33       		.uleb128 .L33-.LFB712
 737 004a 00       		.uleb128 0
 738 004b 4E       		.uleb128 .LEHB16-.LFB712
 739 004c 05       		.uleb128 .LEHE16-.LEHB16
 740 004d 00       		.uleb128 0
 741 004e 00       		.uleb128 0
 742              	.LLSDACSE712:
 743              		.section	.text._ZN63TEST_hsm_handleEvent_Should_Know_When_NoEventProvided_TestShell10createTestEv,
 745              		.section	.text._ZN63TEST_hsm_handleEvent_Should_Know_When_NoEventProvided_TestShellC2Ev,"axG",@pro
 746              		.align 2
 747              		.weak	_ZN63TEST_hsm_handleEvent_Should_Know_When_NoEventProvided_TestShellC2Ev
 749              	_ZN63TEST_hsm_handleEvent_Should_Know_When_NoEventProvided_TestShellC2Ev:
 750              	.LFB714:
 751              		.cfi_startproc
 752 0000 55       		pushq	%rbp
 753              		.cfi_def_cfa_offset 16
 754              		.cfi_offset 6, -16
 755 0001 4889E5   		movq	%rsp, %rbp
 756              		.cfi_def_cfa_register 6
 757 0004 4883EC10 		subq	$16, %rsp
 758 0008 48897DF8 		movq	%rdi, -8(%rbp)
 759 000c 488B45F8 		movq	-8(%rbp), %rax
 760 0010 4889C7   		movq	%rax, %rdi
 761 0013 E8000000 		call	_ZN10UtestShellC2Ev
 761      00
 762 0018 BA000000 		movl	$_ZTV63TEST_hsm_handleEvent_Should_Know_When_NoEventProvided_TestShell+16, %edx
 762      00
 763 001d 488B45F8 		movq	-8(%rbp), %rax
 764 0021 488910   		movq	%rdx, (%rax)
 765 0024 90       		nop
GAS LISTING /tmp/ccFKddKf.s 			page 16


 766 0025 C9       		leave
 767              		.cfi_def_cfa 7, 8
 768 0026 C3       		ret
 769              		.cfi_endproc
 770              	.LFE714:
 772              		.weak	_ZN63TEST_hsm_handleEvent_Should_Know_When_NoEventProvided_TestShellC1Ev
 773              		.set	_ZN63TEST_hsm_handleEvent_Should_Know_When_NoEventProvided_TestShellC1Ev,_ZN63TEST_hsm_handle
 774              		.globl	TEST_hsm_handleEvent_Should_Know_When_NoEventProvided_TestShell_instance
 775              		.bss
 776 0058 00000000 		.align 32
 776      00000000 
 779              	TEST_hsm_handleEvent_Should_Know_When_NoEventProvided_TestShell_instance:
 780 0060 00000000 		.zero	56
 780      00000000 
 780      00000000 
 780      00000000 
 780      00000000 
 781              		.local	_ZL63TEST_hsm_handleEvent_Should_Know_When_NoEventProvided_Installer
 782              		.comm	_ZL63TEST_hsm_handleEvent_Should_Know_When_NoEventProvided_Installer,8,8
 783              		.text
 784 01c5 90       		.align 2
 785              		.globl	_ZN58TEST_hsm_handleEvent_Should_Know_When_NoEventProvided_Test8testBodyEv
 787              	_ZN58TEST_hsm_handleEvent_Should_Know_When_NoEventProvided_Test8testBodyEv:
 788              	.LFB716:
 789              		.cfi_startproc
 790              		.cfi_personality 0x3,__gxx_personality_v0
 791              		.cfi_lsda 0x3,.LLSDA716
 792 01c6 55       		pushq	%rbp
 793              		.cfi_def_cfa_offset 16
 794              		.cfi_offset 6, -16
 795 01c7 4889E5   		movq	%rsp, %rbp
 796              		.cfi_def_cfa_register 6
 797 01ca 4155     		pushq	%r13
 798 01cc 4154     		pushq	%r12
 799 01ce 53       		pushq	%rbx
 800 01cf 4883EC58 		subq	$88, %rsp
 801              		.cfi_offset 13, -24
 802              		.cfi_offset 12, -32
 803              		.cfi_offset 3, -40
 804 01d3 48897D98 		movq	%rdi, -104(%rbp)
 805 01d7 64488B04 		movq	%fs:40, %rax
 805      25280000 
 805      00
 806 01e0 488945D8 		movq	%rax, -40(%rbp)
 807 01e4 31C0     		xorl	%eax, %eax
 808 01e6 488B4598 		movq	-104(%rbp), %rax
 809 01ea 4883C008 		addq	$8, %rax
 810 01ee BE000000 		movl	$0, %esi
 810      00
 811 01f3 4889C7   		movq	%rax, %rdi
 812              	.LEHB17:
 813 01f6 E8000000 		call	_Z15hsm_handleEventP5hsm_tPK11hsm_event_t
 813      00
 814 01fb 8945AC   		movl	%eax, -84(%rbp)
 815 01fe 837DAC01 		cmpl	$1, -84(%rbp)
 816 0202 0F84B800 		je	.L37
 816      0000
GAS LISTING /tmp/ccFKddKf.s 			page 17


 817 0208 E8000000 		call	_ZN10UtestShell10getCurrentEv
 817      00
 818              	.LEHE17:
 819 020d 4889C3   		movq	%rax, %rbx
 820 0210 488B03   		movq	(%rbx), %rax
 821 0213 48059800 		addq	$152, %rax
 821      0000
 822 0219 4C8B20   		movq	(%rax), %r12
 823 021c 48C745D0 		movq	$0, -48(%rbp)
 823      00000000 
 824 0224 488D45D0 		leaq	-48(%rbp), %rax
 825 0228 4889C7   		movq	%rax, %rdi
 826 022b E8000000 		call	_ZN20NormalTestTerminatorC1Ev
 826      00
 827 0230 488D45C0 		leaq	-64(%rbp), %rax
 828 0234 8B55AC   		movl	-84(%rbp), %edx
 829 0237 89D6     		movl	%edx, %esi
 830 0239 4889C7   		movq	%rax, %rdi
 831              	.LEHB18:
 832 023c E8000000 		call	_Z10StringFromi
 832      00
 833              	.LEHE18:
 834 0241 488D45C0 		leaq	-64(%rbp), %rax
 835 0245 4889C7   		movq	%rax, %rdi
 836              	.LEHB19:
 837 0248 E8000000 		call	_ZNK12SimpleString12asCharStringEv
 837      00
 838 024d 4989C5   		movq	%rax, %r13
 839 0250 488D45B0 		leaq	-80(%rbp), %rax
 840 0254 BE010000 		movl	$1, %esi
 840      00
 841 0259 4889C7   		movq	%rax, %rdi
 842 025c E8000000 		call	_Z10StringFromi
 842      00
 843              	.LEHE19:
 844 0261 488D45B0 		leaq	-80(%rbp), %rax
 845 0265 4889C7   		movq	%rax, %rdi
 846              	.LEHB20:
 847 0268 E8000000 		call	_ZNK12SimpleString12asCharStringEv
 847      00
 848 026d 4889C2   		movq	%rax, %rdx
 849 0270 4883EC08 		subq	$8, %rsp
 850 0274 488D45D0 		leaq	-48(%rbp), %rax
 851 0278 50       		pushq	%rax
 852 0279 41B94F00 		movl	$79, %r9d
 852      0000
 853 027f 41B80000 		movl	$.LC0, %r8d
 853      0000
 854 0285 4C89E9   		movq	%r13, %rcx
 855 0288 BE010000 		movl	$1, %esi
 855      00
 856 028d 4889DF   		movq	%rbx, %rdi
 857              		.cfi_escape 0x2e,0x10
 858 0290 41FFD4   		call	*%r12
 859              	.LEHE20:
 860 0293 4883C410 		addq	$16, %rsp
 861 0297 488D45B0 		leaq	-80(%rbp), %rax
GAS LISTING /tmp/ccFKddKf.s 			page 18


 862 029b 4889C7   		movq	%rax, %rdi
 863              	.LEHB21:
 864              		.cfi_escape 0x2e,0
 865 029e E8000000 		call	_ZN12SimpleStringD1Ev
 865      00
 866              	.LEHE21:
 867 02a3 488D45C0 		leaq	-64(%rbp), %rax
 868 02a7 4889C7   		movq	%rax, %rdi
 869              	.LEHB22:
 870 02aa E8000000 		call	_ZN12SimpleStringD1Ev
 870      00
 871              	.LEHE22:
 872 02af 488D45D0 		leaq	-48(%rbp), %rax
 873 02b3 4889C7   		movq	%rax, %rdi
 874              	.LEHB23:
 875 02b6 E8000000 		call	_ZN20NormalTestTerminatorD1Ev
 875      00
 876 02bb E9AC0000 		jmp	.L36
 876      00
 877              	.L37:
 878 02c0 E8000000 		call	_ZN10UtestShell10getCurrentEv
 878      00
 879              	.LEHE23:
 880 02c5 4889C3   		movq	%rax, %rbx
 881 02c8 488B03   		movq	(%rbx), %rax
 882 02cb 4883C078 		addq	$120, %rax
 883 02cf 4C8B20   		movq	(%rax), %r12
 884 02d2 48C745D0 		movq	$0, -48(%rbp)
 884      00000000 
 885 02da 488D45D0 		leaq	-48(%rbp), %rax
 886 02de 4889C7   		movq	%rax, %rdi
 887 02e1 E8000000 		call	_ZN20NormalTestTerminatorC1Ev
 887      00
 888 02e6 488D45D0 		leaq	-48(%rbp), %rax
 889 02ea 4989C1   		movq	%rax, %r9
 890 02ed 41B84F00 		movl	$79, %r8d
 890      0000
 891 02f3 B9000000 		movl	$.LC0, %ecx
 891      00
 892 02f8 BA000000 		movl	$0, %edx
 892      00
 893 02fd BE000000 		movl	$0, %esi
 893      00
 894 0302 4889DF   		movq	%rbx, %rdi
 895              	.LEHB24:
 896 0305 41FFD4   		call	*%r12
 897              	.LEHE24:
 898 0308 488D45D0 		leaq	-48(%rbp), %rax
 899 030c 4889C7   		movq	%rax, %rdi
 900              	.LEHB25:
 901 030f E8000000 		call	_ZN20NormalTestTerminatorD1Ev
 901      00
 902              	.LEHE25:
 903 0314 EB56     		jmp	.L36
 904              	.L46:
 905 0316 4889C3   		movq	%rax, %rbx
 906 0319 488D45B0 		leaq	-80(%rbp), %rax
GAS LISTING /tmp/ccFKddKf.s 			page 19


 907 031d 4889C7   		movq	%rax, %rdi
 908 0320 E8000000 		call	_ZN12SimpleStringD1Ev
 908      00
 909 0325 EB03     		jmp	.L40
 910              	.L45:
 911 0327 4889C3   		movq	%rax, %rbx
 912              	.L40:
 913 032a 488D45C0 		leaq	-64(%rbp), %rax
 914 032e 4889C7   		movq	%rax, %rdi
 915 0331 E8000000 		call	_ZN12SimpleStringD1Ev
 915      00
 916 0336 EB03     		jmp	.L41
 917              	.L44:
 918 0338 4889C3   		movq	%rax, %rbx
 919              	.L41:
 920 033b 488D45D0 		leaq	-48(%rbp), %rax
 921 033f 4889C7   		movq	%rax, %rdi
 922 0342 E8000000 		call	_ZN20NormalTestTerminatorD1Ev
 922      00
 923 0347 4889D8   		movq	%rbx, %rax
 924 034a 4889C7   		movq	%rax, %rdi
 925              	.LEHB26:
 926 034d E8000000 		call	_Unwind_Resume
 926      00
 927              	.LEHE26:
 928              	.L47:
 929 0352 4889C3   		movq	%rax, %rbx
 930 0355 488D45D0 		leaq	-48(%rbp), %rax
 931 0359 4889C7   		movq	%rax, %rdi
 932 035c E8000000 		call	_ZN20NormalTestTerminatorD1Ev
 932      00
 933 0361 4889D8   		movq	%rbx, %rax
 934 0364 4889C7   		movq	%rax, %rdi
 935              	.LEHB27:
 936 0367 E8000000 		call	_Unwind_Resume
 936      00
 937              	.LEHE27:
 938              	.L36:
 939 036c 488B45D8 		movq	-40(%rbp), %rax
 940 0370 64483304 		xorq	%fs:40, %rax
 940      25280000 
 940      00
 941 0379 7405     		je	.L43
 942 037b E8000000 		call	__stack_chk_fail
 942      00
 943              	.L43:
 944 0380 488D65E8 		leaq	-24(%rbp), %rsp
 945 0384 5B       		popq	%rbx
 946 0385 415C     		popq	%r12
 947 0387 415D     		popq	%r13
 948 0389 5D       		popq	%rbp
 949              		.cfi_def_cfa 7, 8
 950 038a C3       		ret
 951              		.cfi_endproc
 952              	.LFE716:
 953              		.section	.gcc_except_table
 954              	.LLSDA716:
GAS LISTING /tmp/ccFKddKf.s 			page 20


 955 004f FF       		.byte	0xff
 956 0050 FF       		.byte	0xff
 957 0051 01       		.byte	0x1
 958 0052 3B       		.uleb128 .LLSDACSE716-.LLSDACSB716
 959              	.LLSDACSB716:
 960 0053 30       		.uleb128 .LEHB17-.LFB716
 961 0054 17       		.uleb128 .LEHE17-.LEHB17
 962 0055 00       		.uleb128 0
 963 0056 00       		.uleb128 0
 964 0057 76       		.uleb128 .LEHB18-.LFB716
 965 0058 05       		.uleb128 .LEHE18-.LEHB18
 966 0059 F202     		.uleb128 .L44-.LFB716
 967 005b 00       		.uleb128 0
 968 005c 8201     		.uleb128 .LEHB19-.LFB716
 969 005e 19       		.uleb128 .LEHE19-.LEHB19
 970 005f E102     		.uleb128 .L45-.LFB716
 971 0061 00       		.uleb128 0
 972 0062 A201     		.uleb128 .LEHB20-.LFB716
 973 0064 2B       		.uleb128 .LEHE20-.LEHB20
 974 0065 D002     		.uleb128 .L46-.LFB716
 975 0067 00       		.uleb128 0
 976 0068 D801     		.uleb128 .LEHB21-.LFB716
 977 006a 05       		.uleb128 .LEHE21-.LEHB21
 978 006b E102     		.uleb128 .L45-.LFB716
 979 006d 00       		.uleb128 0
 980 006e E401     		.uleb128 .LEHB22-.LFB716
 981 0070 05       		.uleb128 .LEHE22-.LEHB22
 982 0071 F202     		.uleb128 .L44-.LFB716
 983 0073 00       		.uleb128 0
 984 0074 F001     		.uleb128 .LEHB23-.LFB716
 985 0076 0F       		.uleb128 .LEHE23-.LEHB23
 986 0077 00       		.uleb128 0
 987 0078 00       		.uleb128 0
 988 0079 BF02     		.uleb128 .LEHB24-.LFB716
 989 007b 03       		.uleb128 .LEHE24-.LEHB24
 990 007c 8C03     		.uleb128 .L47-.LFB716
 991 007e 00       		.uleb128 0
 992 007f C902     		.uleb128 .LEHB25-.LFB716
 993 0081 05       		.uleb128 .LEHE25-.LEHB25
 994 0082 00       		.uleb128 0
 995 0083 00       		.uleb128 0
 996 0084 8703     		.uleb128 .LEHB26-.LFB716
 997 0086 05       		.uleb128 .LEHE26-.LEHB26
 998 0087 00       		.uleb128 0
 999 0088 00       		.uleb128 0
 1000 0089 A103     		.uleb128 .LEHB27-.LFB716
 1001 008b 05       		.uleb128 .LEHE27-.LEHB27
 1002 008c 00       		.uleb128 0
 1003 008d 00       		.uleb128 0
 1004              	.LLSDACSE716:
 1005              		.text
 1007              		.weak	_ZTV58TEST_hsm_handleEvent_Should_Know_When_NoEventProvided_Test
 1008              		.section	.rodata._ZTV58TEST_hsm_handleEvent_Should_Know_When_NoEventProvided_Test,"aG",@progbits,_
 1009              		.align 8
 1012              	_ZTV58TEST_hsm_handleEvent_Should_Know_When_NoEventProvided_Test:
 1013 0000 00000000 		.quad	0
 1013      00000000 
GAS LISTING /tmp/ccFKddKf.s 			page 21


 1014 0008 00000000 		.quad	_ZTI58TEST_hsm_handleEvent_Should_Know_When_NoEventProvided_Test
 1014      00000000 
 1015 0010 00000000 		.quad	_ZN58TEST_hsm_handleEvent_Should_Know_When_NoEventProvided_TestD1Ev
 1015      00000000 
 1016 0018 00000000 		.quad	_ZN58TEST_hsm_handleEvent_Should_Know_When_NoEventProvided_TestD0Ev
 1016      00000000 
 1017 0020 00000000 		.quad	_ZN5Utest3runEv
 1017      00000000 
 1018 0028 00000000 		.quad	_ZN39TEST_GROUP_CppUTestGrouphsm_handleEvent5setupEv
 1018      00000000 
 1019 0030 00000000 		.quad	_ZN39TEST_GROUP_CppUTestGrouphsm_handleEvent8teardownEv
 1019      00000000 
 1020 0038 00000000 		.quad	_ZN58TEST_hsm_handleEvent_Should_Know_When_NoEventProvided_Test8testBodyEv
 1020      00000000 
 1021              		.section	.text._ZN58TEST_hsm_handleEvent_Should_Know_When_NoEventProvided_TestD2Ev,"axG",@progbits
 1022              		.align 2
 1023              		.weak	_ZN58TEST_hsm_handleEvent_Should_Know_When_NoEventProvided_TestD2Ev
 1025              	_ZN58TEST_hsm_handleEvent_Should_Know_When_NoEventProvided_TestD2Ev:
 1026              	.LFB718:
 1027              		.cfi_startproc
 1028 0000 55       		pushq	%rbp
 1029              		.cfi_def_cfa_offset 16
 1030              		.cfi_offset 6, -16
 1031 0001 4889E5   		movq	%rsp, %rbp
 1032              		.cfi_def_cfa_register 6
 1033 0004 4883EC10 		subq	$16, %rsp
 1034 0008 48897DF8 		movq	%rdi, -8(%rbp)
 1035 000c BA000000 		movl	$_ZTV58TEST_hsm_handleEvent_Should_Know_When_NoEventProvided_Test+16, %edx
 1035      00
 1036 0011 488B45F8 		movq	-8(%rbp), %rax
 1037 0015 488910   		movq	%rdx, (%rax)
 1038 0018 488B45F8 		movq	-8(%rbp), %rax
 1039 001c 4889C7   		movq	%rax, %rdi
 1040 001f E8000000 		call	_ZN39TEST_GROUP_CppUTestGrouphsm_handleEventD2Ev
 1040      00
 1041 0024 B8000000 		movl	$0, %eax
 1041      00
 1042 0029 85C0     		testl	%eax, %eax
 1043 002b 740C     		je	.L48
 1044 002d 488B45F8 		movq	-8(%rbp), %rax
 1045 0031 4889C7   		movq	%rax, %rdi
 1046 0034 E8000000 		call	_ZdlPv
 1046      00
 1047              	.L48:
 1048 0039 C9       		leave
 1049              		.cfi_def_cfa 7, 8
 1050 003a C3       		ret
 1051              		.cfi_endproc
 1052              	.LFE718:
 1054              		.weak	_ZN58TEST_hsm_handleEvent_Should_Know_When_NoEventProvided_TestD1Ev
 1055              		.set	_ZN58TEST_hsm_handleEvent_Should_Know_When_NoEventProvided_TestD1Ev,_ZN58TEST_hsm_handleEvent
 1056              		.section	.text._ZN58TEST_hsm_handleEvent_Should_Know_When_NoEventProvided_TestD0Ev,"axG",@progbits
 1057              		.align 2
 1058              		.weak	_ZN58TEST_hsm_handleEvent_Should_Know_When_NoEventProvided_TestD0Ev
 1060              	_ZN58TEST_hsm_handleEvent_Should_Know_When_NoEventProvided_TestD0Ev:
 1061              	.LFB720:
 1062              		.cfi_startproc
GAS LISTING /tmp/ccFKddKf.s 			page 22


 1063 0000 55       		pushq	%rbp
 1064              		.cfi_def_cfa_offset 16
 1065              		.cfi_offset 6, -16
 1066 0001 4889E5   		movq	%rsp, %rbp
 1067              		.cfi_def_cfa_register 6
 1068 0004 4883EC10 		subq	$16, %rsp
 1069 0008 48897DF8 		movq	%rdi, -8(%rbp)
 1070 000c 488B45F8 		movq	-8(%rbp), %rax
 1071 0010 4889C7   		movq	%rax, %rdi
 1072 0013 E8000000 		call	_ZN58TEST_hsm_handleEvent_Should_Know_When_NoEventProvided_TestD1Ev
 1072      00
 1073 0018 488B45F8 		movq	-8(%rbp), %rax
 1074 001c 4889C7   		movq	%rax, %rdi
 1075 001f E8000000 		call	_ZdlPv
 1075      00
 1076 0024 C9       		leave
 1077              		.cfi_def_cfa 7, 8
 1078 0025 C3       		ret
 1079              		.cfi_endproc
 1080              	.LFE720:
 1082              		.weak	_ZTV63TEST_hsm_handleEvent_Should_Know_When_NoEventProvided_TestShell
 1083              		.section	.rodata._ZTV63TEST_hsm_handleEvent_Should_Know_When_NoEventProvided_TestShell,"aG",@progb
 1084              		.align 8
 1087              	_ZTV63TEST_hsm_handleEvent_Should_Know_When_NoEventProvided_TestShell:
 1088 0000 00000000 		.quad	0
 1088      00000000 
 1089 0008 00000000 		.quad	_ZTI63TEST_hsm_handleEvent_Should_Know_When_NoEventProvided_TestShell
 1089      00000000 
 1090 0010 00000000 		.quad	_ZN63TEST_hsm_handleEvent_Should_Know_When_NoEventProvided_TestShellD1Ev
 1090      00000000 
 1091 0018 00000000 		.quad	_ZN63TEST_hsm_handleEvent_Should_Know_When_NoEventProvided_TestShellD0Ev
 1091      00000000 
 1092 0020 00000000 		.quad	_ZN10UtestShell7addTestEPS_
 1092      00000000 
 1093 0028 00000000 		.quad	_ZNK10UtestShell7getNextEv
 1093      00000000 
 1094 0030 00000000 		.quad	_ZN10UtestShell10countTestsEv
 1094      00000000 
 1095 0038 00000000 		.quad	_ZNK10UtestShell16getFormattedNameEv
 1095      00000000 
 1096 0040 00000000 		.quad	_ZNK10UtestShell7willRunEv
 1096      00000000 
 1097 0048 00000000 		.quad	_ZNK10UtestShell9hasFailedEv
 1097      00000000 
 1098 0050 00000000 		.quad	_ZN10UtestShell10assertTrueEbPKcS1_S1_iRK14TestTerminator
 1098      00000000 
 1099 0058 00000000 		.quad	_ZN10UtestShell14assertTrueTextEbPKcS1_S1_S1_iRK14TestTerminator
 1099      00000000 
 1100 0060 00000000 		.quad	_ZN10UtestShell15assertCstrEqualEPKcS1_S1_iRK14TestTerminator
 1100      00000000 
 1101 0068 00000000 		.quad	_ZN10UtestShell16assertCstrNEqualEPKcS1_mS1_iRK14TestTerminator
 1101      00000000 
 1102 0070 00000000 		.quad	_ZN10UtestShell21assertCstrNoCaseEqualEPKcS1_S1_i
 1102      00000000 
 1103 0078 00000000 		.quad	_ZN10UtestShell18assertCstrContainsEPKcS1_S1_i
 1103      00000000 
 1104 0080 00000000 		.quad	_ZN10UtestShell24assertCstrNoCaseContainsEPKcS1_S1_i
GAS LISTING /tmp/ccFKddKf.s 			page 23


 1104      00000000 
 1105 0088 00000000 		.quad	_ZN10UtestShell16assertLongsEqualEllPKciRK14TestTerminator
 1105      00000000 
 1106 0090 00000000 		.quad	_ZN10UtestShell24assertUnsignedLongsEqualEmmPKciRK14TestTerminator
 1106      00000000 
 1107 0098 00000000 		.quad	_ZN10UtestShell19assertPointersEqualEPKvS1_PKci
 1107      00000000 
 1108 00a0 00000000 		.quad	_ZN10UtestShell18assertDoublesEqualEdddPKciRK14TestTerminator
 1108      00000000 
 1109 00a8 00000000 		.quad	_ZN10UtestShell12assertEqualsEbPKcS1_S1_iRK14TestTerminator
 1109      00000000 
 1110 00b0 00000000 		.quad	_ZN10UtestShell17assertBinaryEqualEPKvS1_mPKciRK14TestTerminator
 1110      00000000 
 1111 00b8 00000000 		.quad	_ZN10UtestShell4failEPKcS1_iRK14TestTerminator
 1111      00000000 
 1112 00c0 00000000 		.quad	_ZN10UtestShell5printEPKcS1_i
 1112      00000000 
 1113 00c8 00000000 		.quad	_ZN10UtestShell5printERK12SimpleStringPKci
 1113      00000000 
 1114 00d0 00000000 		.quad	_ZNK10UtestShell22isRunInSeperateProcessEv
 1114      00000000 
 1115 00d8 00000000 		.quad	_ZN10UtestShell23setRunInSeperateProcessEv
 1115      00000000 
 1116 00e0 00000000 		.quad	_ZN63TEST_hsm_handleEvent_Should_Know_When_NoEventProvided_TestShell10createTestEv
 1116      00000000 
 1117 00e8 00000000 		.quad	_ZN10UtestShell11destroyTestEP5Utest
 1117      00000000 
 1118 00f0 00000000 		.quad	_ZN10UtestShell10runOneTestEP10TestPluginR10TestResult
 1118      00000000 
 1119 00f8 00000000 		.quad	_ZN10UtestShell26runOneTestInCurrentProcessEP10TestPluginR10TestResult
 1119      00000000 
 1120 0100 00000000 		.quad	_ZN10UtestShell8failWithERK11TestFailure
 1120      00000000 
 1121 0108 00000000 		.quad	_ZN10UtestShell8failWithERK11TestFailureRK14TestTerminator
 1121      00000000 
 1122 0110 00000000 		.quad	_ZNK10UtestShell12getMacroNameEv
 1122      00000000 
 1123              		.section	.text._ZN63TEST_hsm_handleEvent_Should_Know_When_NoEventProvided_TestShellD2Ev,"axG",@pro
 1124              		.align 2
 1125              		.weak	_ZN63TEST_hsm_handleEvent_Should_Know_When_NoEventProvided_TestShellD2Ev
 1127              	_ZN63TEST_hsm_handleEvent_Should_Know_When_NoEventProvided_TestShellD2Ev:
 1128              	.LFB722:
 1129              		.cfi_startproc
 1130 0000 55       		pushq	%rbp
 1131              		.cfi_def_cfa_offset 16
 1132              		.cfi_offset 6, -16
 1133 0001 4889E5   		movq	%rsp, %rbp
 1134              		.cfi_def_cfa_register 6
 1135 0004 4883EC10 		subq	$16, %rsp
 1136 0008 48897DF8 		movq	%rdi, -8(%rbp)
 1137 000c BA000000 		movl	$_ZTV63TEST_hsm_handleEvent_Should_Know_When_NoEventProvided_TestShell+16, %edx
 1137      00
 1138 0011 488B45F8 		movq	-8(%rbp), %rax
 1139 0015 488910   		movq	%rdx, (%rax)
 1140 0018 488B45F8 		movq	-8(%rbp), %rax
 1141 001c 4889C7   		movq	%rax, %rdi
 1142 001f E8000000 		call	_ZN10UtestShellD2Ev
GAS LISTING /tmp/ccFKddKf.s 			page 24


 1142      00
 1143 0024 B8000000 		movl	$0, %eax
 1143      00
 1144 0029 85C0     		testl	%eax, %eax
 1145 002b 740C     		je	.L51
 1146 002d 488B45F8 		movq	-8(%rbp), %rax
 1147 0031 4889C7   		movq	%rax, %rdi
 1148 0034 E8000000 		call	_ZdlPv
 1148      00
 1149              	.L51:
 1150 0039 C9       		leave
 1151              		.cfi_def_cfa 7, 8
 1152 003a C3       		ret
 1153              		.cfi_endproc
 1154              	.LFE722:
 1156              		.weak	_ZN63TEST_hsm_handleEvent_Should_Know_When_NoEventProvided_TestShellD1Ev
 1157              		.set	_ZN63TEST_hsm_handleEvent_Should_Know_When_NoEventProvided_TestShellD1Ev,_ZN63TEST_hsm_handle
 1158              		.section	.text._ZN63TEST_hsm_handleEvent_Should_Know_When_NoEventProvided_TestShellD0Ev,"axG",@pro
 1159              		.align 2
 1160              		.weak	_ZN63TEST_hsm_handleEvent_Should_Know_When_NoEventProvided_TestShellD0Ev
 1162              	_ZN63TEST_hsm_handleEvent_Should_Know_When_NoEventProvided_TestShellD0Ev:
 1163              	.LFB724:
 1164              		.cfi_startproc
 1165 0000 55       		pushq	%rbp
 1166              		.cfi_def_cfa_offset 16
 1167              		.cfi_offset 6, -16
 1168 0001 4889E5   		movq	%rsp, %rbp
 1169              		.cfi_def_cfa_register 6
 1170 0004 4883EC10 		subq	$16, %rsp
 1171 0008 48897DF8 		movq	%rdi, -8(%rbp)
 1172 000c 488B45F8 		movq	-8(%rbp), %rax
 1173 0010 4889C7   		movq	%rax, %rdi
 1174 0013 E8000000 		call	_ZN63TEST_hsm_handleEvent_Should_Know_When_NoEventProvided_TestShellD1Ev
 1174      00
 1175 0018 488B45F8 		movq	-8(%rbp), %rax
 1176 001c 4889C7   		movq	%rax, %rdi
 1177 001f E8000000 		call	_ZdlPv
 1177      00
 1178 0024 C9       		leave
 1179              		.cfi_def_cfa 7, 8
 1180 0025 C3       		ret
 1181              		.cfi_endproc
 1182              	.LFE724:
 1184              		.weak	_ZTV71TEST_hsm_handleEvent_Should_GiveError_When_InvalidHandleAndNoEvent_Test
 1185              		.section	.rodata._ZTV71TEST_hsm_handleEvent_Should_GiveError_When_InvalidHandleAndNoEvent_Test,"aG
 1186              		.align 8
 1189              	_ZTV71TEST_hsm_handleEvent_Should_GiveError_When_InvalidHandleAndNoEvent_Test:
 1190 0000 00000000 		.quad	0
 1190      00000000 
 1191 0008 00000000 		.quad	_ZTI71TEST_hsm_handleEvent_Should_GiveError_When_InvalidHandleAndNoEvent_Test
 1191      00000000 
 1192 0010 00000000 		.quad	_ZN71TEST_hsm_handleEvent_Should_GiveError_When_InvalidHandleAndNoEvent_TestD1Ev
 1192      00000000 
 1193 0018 00000000 		.quad	_ZN71TEST_hsm_handleEvent_Should_GiveError_When_InvalidHandleAndNoEvent_TestD0Ev
 1193      00000000 
 1194 0020 00000000 		.quad	_ZN5Utest3runEv
 1194      00000000 
GAS LISTING /tmp/ccFKddKf.s 			page 25


 1195 0028 00000000 		.quad	_ZN39TEST_GROUP_CppUTestGrouphsm_handleEvent5setupEv
 1195      00000000 
 1196 0030 00000000 		.quad	_ZN39TEST_GROUP_CppUTestGrouphsm_handleEvent8teardownEv
 1196      00000000 
 1197 0038 00000000 		.quad	_ZN71TEST_hsm_handleEvent_Should_GiveError_When_InvalidHandleAndNoEvent_Test8testBodyEv
 1197      00000000 
 1198              		.section	.text._ZN71TEST_hsm_handleEvent_Should_GiveError_When_InvalidHandleAndNoEvent_TestD2Ev,"a
 1199              		.align 2
 1200              		.weak	_ZN71TEST_hsm_handleEvent_Should_GiveError_When_InvalidHandleAndNoEvent_TestD2Ev
 1202              	_ZN71TEST_hsm_handleEvent_Should_GiveError_When_InvalidHandleAndNoEvent_TestD2Ev:
 1203              	.LFB726:
 1204              		.cfi_startproc
 1205 0000 55       		pushq	%rbp
 1206              		.cfi_def_cfa_offset 16
 1207              		.cfi_offset 6, -16
 1208 0001 4889E5   		movq	%rsp, %rbp
 1209              		.cfi_def_cfa_register 6
 1210 0004 4883EC10 		subq	$16, %rsp
 1211 0008 48897DF8 		movq	%rdi, -8(%rbp)
 1212 000c BA000000 		movl	$_ZTV71TEST_hsm_handleEvent_Should_GiveError_When_InvalidHandleAndNoEvent_Test+16, %edx
 1212      00
 1213 0011 488B45F8 		movq	-8(%rbp), %rax
 1214 0015 488910   		movq	%rdx, (%rax)
 1215 0018 488B45F8 		movq	-8(%rbp), %rax
 1216 001c 4889C7   		movq	%rax, %rdi
 1217 001f E8000000 		call	_ZN39TEST_GROUP_CppUTestGrouphsm_handleEventD2Ev
 1217      00
 1218 0024 B8000000 		movl	$0, %eax
 1218      00
 1219 0029 85C0     		testl	%eax, %eax
 1220 002b 740C     		je	.L54
 1221 002d 488B45F8 		movq	-8(%rbp), %rax
 1222 0031 4889C7   		movq	%rax, %rdi
 1223 0034 E8000000 		call	_ZdlPv
 1223      00
 1224              	.L54:
 1225 0039 C9       		leave
 1226              		.cfi_def_cfa 7, 8
 1227 003a C3       		ret
 1228              		.cfi_endproc
 1229              	.LFE726:
 1231              		.weak	_ZN71TEST_hsm_handleEvent_Should_GiveError_When_InvalidHandleAndNoEvent_TestD1Ev
 1232              		.set	_ZN71TEST_hsm_handleEvent_Should_GiveError_When_InvalidHandleAndNoEvent_TestD1Ev,_ZN71TEST_hs
 1233              		.section	.text._ZN71TEST_hsm_handleEvent_Should_GiveError_When_InvalidHandleAndNoEvent_TestD0Ev,"a
 1234              		.align 2
 1235              		.weak	_ZN71TEST_hsm_handleEvent_Should_GiveError_When_InvalidHandleAndNoEvent_TestD0Ev
 1237              	_ZN71TEST_hsm_handleEvent_Should_GiveError_When_InvalidHandleAndNoEvent_TestD0Ev:
 1238              	.LFB728:
 1239              		.cfi_startproc
 1240 0000 55       		pushq	%rbp
 1241              		.cfi_def_cfa_offset 16
 1242              		.cfi_offset 6, -16
 1243 0001 4889E5   		movq	%rsp, %rbp
 1244              		.cfi_def_cfa_register 6
 1245 0004 4883EC10 		subq	$16, %rsp
 1246 0008 48897DF8 		movq	%rdi, -8(%rbp)
 1247 000c 488B45F8 		movq	-8(%rbp), %rax
GAS LISTING /tmp/ccFKddKf.s 			page 26


 1248 0010 4889C7   		movq	%rax, %rdi
 1249 0013 E8000000 		call	_ZN71TEST_hsm_handleEvent_Should_GiveError_When_InvalidHandleAndNoEvent_TestD1Ev
 1249      00
 1250 0018 488B45F8 		movq	-8(%rbp), %rax
 1251 001c 4889C7   		movq	%rax, %rdi
 1252 001f E8000000 		call	_ZdlPv
 1252      00
 1253 0024 C9       		leave
 1254              		.cfi_def_cfa 7, 8
 1255 0025 C3       		ret
 1256              		.cfi_endproc
 1257              	.LFE728:
 1259              		.weak	_ZTV76TEST_hsm_handleEvent_Should_GiveError_When_InvalidHandleAndNoEvent_TestShell
 1260              		.section	.rodata._ZTV76TEST_hsm_handleEvent_Should_GiveError_When_InvalidHandleAndNoEvent_TestShel
 1261              		.align 8
 1264              	_ZTV76TEST_hsm_handleEvent_Should_GiveError_When_InvalidHandleAndNoEvent_TestShell:
 1265 0000 00000000 		.quad	0
 1265      00000000 
 1266 0008 00000000 		.quad	_ZTI76TEST_hsm_handleEvent_Should_GiveError_When_InvalidHandleAndNoEvent_TestShell
 1266      00000000 
 1267 0010 00000000 		.quad	_ZN76TEST_hsm_handleEvent_Should_GiveError_When_InvalidHandleAndNoEvent_TestShellD1Ev
 1267      00000000 
 1268 0018 00000000 		.quad	_ZN76TEST_hsm_handleEvent_Should_GiveError_When_InvalidHandleAndNoEvent_TestShellD0Ev
 1268      00000000 
 1269 0020 00000000 		.quad	_ZN10UtestShell7addTestEPS_
 1269      00000000 
 1270 0028 00000000 		.quad	_ZNK10UtestShell7getNextEv
 1270      00000000 
 1271 0030 00000000 		.quad	_ZN10UtestShell10countTestsEv
 1271      00000000 
 1272 0038 00000000 		.quad	_ZNK10UtestShell16getFormattedNameEv
 1272      00000000 
 1273 0040 00000000 		.quad	_ZNK10UtestShell7willRunEv
 1273      00000000 
 1274 0048 00000000 		.quad	_ZNK10UtestShell9hasFailedEv
 1274      00000000 
 1275 0050 00000000 		.quad	_ZN10UtestShell10assertTrueEbPKcS1_S1_iRK14TestTerminator
 1275      00000000 
 1276 0058 00000000 		.quad	_ZN10UtestShell14assertTrueTextEbPKcS1_S1_S1_iRK14TestTerminator
 1276      00000000 
 1277 0060 00000000 		.quad	_ZN10UtestShell15assertCstrEqualEPKcS1_S1_iRK14TestTerminator
 1277      00000000 
 1278 0068 00000000 		.quad	_ZN10UtestShell16assertCstrNEqualEPKcS1_mS1_iRK14TestTerminator
 1278      00000000 
 1279 0070 00000000 		.quad	_ZN10UtestShell21assertCstrNoCaseEqualEPKcS1_S1_i
 1279      00000000 
 1280 0078 00000000 		.quad	_ZN10UtestShell18assertCstrContainsEPKcS1_S1_i
 1280      00000000 
 1281 0080 00000000 		.quad	_ZN10UtestShell24assertCstrNoCaseContainsEPKcS1_S1_i
 1281      00000000 
 1282 0088 00000000 		.quad	_ZN10UtestShell16assertLongsEqualEllPKciRK14TestTerminator
 1282      00000000 
 1283 0090 00000000 		.quad	_ZN10UtestShell24assertUnsignedLongsEqualEmmPKciRK14TestTerminator
 1283      00000000 
 1284 0098 00000000 		.quad	_ZN10UtestShell19assertPointersEqualEPKvS1_PKci
 1284      00000000 
 1285 00a0 00000000 		.quad	_ZN10UtestShell18assertDoublesEqualEdddPKciRK14TestTerminator
GAS LISTING /tmp/ccFKddKf.s 			page 27


 1285      00000000 
 1286 00a8 00000000 		.quad	_ZN10UtestShell12assertEqualsEbPKcS1_S1_iRK14TestTerminator
 1286      00000000 
 1287 00b0 00000000 		.quad	_ZN10UtestShell17assertBinaryEqualEPKvS1_mPKciRK14TestTerminator
 1287      00000000 
 1288 00b8 00000000 		.quad	_ZN10UtestShell4failEPKcS1_iRK14TestTerminator
 1288      00000000 
 1289 00c0 00000000 		.quad	_ZN10UtestShell5printEPKcS1_i
 1289      00000000 
 1290 00c8 00000000 		.quad	_ZN10UtestShell5printERK12SimpleStringPKci
 1290      00000000 
 1291 00d0 00000000 		.quad	_ZNK10UtestShell22isRunInSeperateProcessEv
 1291      00000000 
 1292 00d8 00000000 		.quad	_ZN10UtestShell23setRunInSeperateProcessEv
 1292      00000000 
 1293 00e0 00000000 		.quad	_ZN76TEST_hsm_handleEvent_Should_GiveError_When_InvalidHandleAndNoEvent_TestShell10createTes
 1293      00000000 
 1294 00e8 00000000 		.quad	_ZN10UtestShell11destroyTestEP5Utest
 1294      00000000 
 1295 00f0 00000000 		.quad	_ZN10UtestShell10runOneTestEP10TestPluginR10TestResult
 1295      00000000 
 1296 00f8 00000000 		.quad	_ZN10UtestShell26runOneTestInCurrentProcessEP10TestPluginR10TestResult
 1296      00000000 
 1297 0100 00000000 		.quad	_ZN10UtestShell8failWithERK11TestFailure
 1297      00000000 
 1298 0108 00000000 		.quad	_ZN10UtestShell8failWithERK11TestFailureRK14TestTerminator
 1298      00000000 
 1299 0110 00000000 		.quad	_ZNK10UtestShell12getMacroNameEv
 1299      00000000 
 1300              		.section	.text._ZN76TEST_hsm_handleEvent_Should_GiveError_When_InvalidHandleAndNoEvent_TestShellD2
 1301              		.align 2
 1302              		.weak	_ZN76TEST_hsm_handleEvent_Should_GiveError_When_InvalidHandleAndNoEvent_TestShellD2Ev
 1304              	_ZN76TEST_hsm_handleEvent_Should_GiveError_When_InvalidHandleAndNoEvent_TestShellD2Ev:
 1305              	.LFB730:
 1306              		.cfi_startproc
 1307 0000 55       		pushq	%rbp
 1308              		.cfi_def_cfa_offset 16
 1309              		.cfi_offset 6, -16
 1310 0001 4889E5   		movq	%rsp, %rbp
 1311              		.cfi_def_cfa_register 6
 1312 0004 4883EC10 		subq	$16, %rsp
 1313 0008 48897DF8 		movq	%rdi, -8(%rbp)
 1314 000c BA000000 		movl	$_ZTV76TEST_hsm_handleEvent_Should_GiveError_When_InvalidHandleAndNoEvent_TestShell+16, %edx
 1314      00
 1315 0011 488B45F8 		movq	-8(%rbp), %rax
 1316 0015 488910   		movq	%rdx, (%rax)
 1317 0018 488B45F8 		movq	-8(%rbp), %rax
 1318 001c 4889C7   		movq	%rax, %rdi
 1319 001f E8000000 		call	_ZN10UtestShellD2Ev
 1319      00
 1320 0024 B8000000 		movl	$0, %eax
 1320      00
 1321 0029 85C0     		testl	%eax, %eax
 1322 002b 740C     		je	.L57
 1323 002d 488B45F8 		movq	-8(%rbp), %rax
 1324 0031 4889C7   		movq	%rax, %rdi
 1325 0034 E8000000 		call	_ZdlPv
GAS LISTING /tmp/ccFKddKf.s 			page 28


 1325      00
 1326              	.L57:
 1327 0039 C9       		leave
 1328              		.cfi_def_cfa 7, 8
 1329 003a C3       		ret
 1330              		.cfi_endproc
 1331              	.LFE730:
 1333              		.weak	_ZN76TEST_hsm_handleEvent_Should_GiveError_When_InvalidHandleAndNoEvent_TestShellD1Ev
 1334              		.set	_ZN76TEST_hsm_handleEvent_Should_GiveError_When_InvalidHandleAndNoEvent_TestShellD1Ev,_ZN76TE
 1335              		.section	.text._ZN76TEST_hsm_handleEvent_Should_GiveError_When_InvalidHandleAndNoEvent_TestShellD0
 1336              		.align 2
 1337              		.weak	_ZN76TEST_hsm_handleEvent_Should_GiveError_When_InvalidHandleAndNoEvent_TestShellD0Ev
 1339              	_ZN76TEST_hsm_handleEvent_Should_GiveError_When_InvalidHandleAndNoEvent_TestShellD0Ev:
 1340              	.LFB732:
 1341              		.cfi_startproc
 1342 0000 55       		pushq	%rbp
 1343              		.cfi_def_cfa_offset 16
 1344              		.cfi_offset 6, -16
 1345 0001 4889E5   		movq	%rsp, %rbp
 1346              		.cfi_def_cfa_register 6
 1347 0004 4883EC10 		subq	$16, %rsp
 1348 0008 48897DF8 		movq	%rdi, -8(%rbp)
 1349 000c 488B45F8 		movq	-8(%rbp), %rax
 1350 0010 4889C7   		movq	%rax, %rdi
 1351 0013 E8000000 		call	_ZN76TEST_hsm_handleEvent_Should_GiveError_When_InvalidHandleAndNoEvent_TestShellD1Ev
 1351      00
 1352 0018 488B45F8 		movq	-8(%rbp), %rax
 1353 001c 4889C7   		movq	%rax, %rdi
 1354 001f E8000000 		call	_ZdlPv
 1354      00
 1355 0024 C9       		leave
 1356              		.cfi_def_cfa 7, 8
 1357 0025 C3       		ret
 1358              		.cfi_endproc
 1359              	.LFE732:
 1361              		.weak	_ZTV39TEST_GROUP_CppUTestGrouphsm_handleEvent
 1362              		.section	.rodata._ZTV39TEST_GROUP_CppUTestGrouphsm_handleEvent,"aG",@progbits,_ZTV39TEST_GROUP_Cpp
 1363              		.align 8
 1366              	_ZTV39TEST_GROUP_CppUTestGrouphsm_handleEvent:
 1367 0000 00000000 		.quad	0
 1367      00000000 
 1368 0008 00000000 		.quad	_ZTI39TEST_GROUP_CppUTestGrouphsm_handleEvent
 1368      00000000 
 1369 0010 00000000 		.quad	_ZN39TEST_GROUP_CppUTestGrouphsm_handleEventD1Ev
 1369      00000000 
 1370 0018 00000000 		.quad	_ZN39TEST_GROUP_CppUTestGrouphsm_handleEventD0Ev
 1370      00000000 
 1371 0020 00000000 		.quad	_ZN5Utest3runEv
 1371      00000000 
 1372 0028 00000000 		.quad	_ZN39TEST_GROUP_CppUTestGrouphsm_handleEvent5setupEv
 1372      00000000 
 1373 0030 00000000 		.quad	_ZN39TEST_GROUP_CppUTestGrouphsm_handleEvent8teardownEv
 1373      00000000 
 1374 0038 00000000 		.quad	_ZN5Utest8testBodyEv
 1374      00000000 
 1375              		.weak	_ZTI63TEST_hsm_handleEvent_Should_Know_When_NoEventProvided_TestShell
 1376              		.section	.rodata._ZTI63TEST_hsm_handleEvent_Should_Know_When_NoEventProvided_TestShell,"aG",@progb
GAS LISTING /tmp/ccFKddKf.s 			page 29


 1377              		.align 8
 1380              	_ZTI63TEST_hsm_handleEvent_Should_Know_When_NoEventProvided_TestShell:
 1381 0000 00000000 		.quad	_ZTVN10__cxxabiv120__si_class_type_infoE+16
 1381      00000000 
 1382 0008 00000000 		.quad	_ZTS63TEST_hsm_handleEvent_Should_Know_When_NoEventProvided_TestShell
 1382      00000000 
 1383 0010 00000000 		.quad	_ZTI10UtestShell
 1383      00000000 
 1384              		.weak	_ZTS63TEST_hsm_handleEvent_Should_Know_When_NoEventProvided_TestShell
 1385              		.section	.rodata._ZTS63TEST_hsm_handleEvent_Should_Know_When_NoEventProvided_TestShell,"aG",@progb
 1386              		.align 32
 1389              	_ZTS63TEST_hsm_handleEvent_Should_Know_When_NoEventProvided_TestShell:
 1390 0000 36335445 		.string	"63TEST_hsm_handleEvent_Should_Know_When_NoEventProvided_TestShell"
 1390      53545F68 
 1390      736D5F68 
 1390      616E646C 
 1390      65457665 
 1391              		.weak	_ZTI58TEST_hsm_handleEvent_Should_Know_When_NoEventProvided_Test
 1392              		.section	.rodata._ZTI58TEST_hsm_handleEvent_Should_Know_When_NoEventProvided_Test,"aG",@progbits,_
 1393              		.align 8
 1396              	_ZTI58TEST_hsm_handleEvent_Should_Know_When_NoEventProvided_Test:
 1397 0000 00000000 		.quad	_ZTVN10__cxxabiv120__si_class_type_infoE+16
 1397      00000000 
 1398 0008 00000000 		.quad	_ZTS58TEST_hsm_handleEvent_Should_Know_When_NoEventProvided_Test
 1398      00000000 
 1399 0010 00000000 		.quad	_ZTI39TEST_GROUP_CppUTestGrouphsm_handleEvent
 1399      00000000 
 1400              		.weak	_ZTS58TEST_hsm_handleEvent_Should_Know_When_NoEventProvided_Test
 1401              		.section	.rodata._ZTS58TEST_hsm_handleEvent_Should_Know_When_NoEventProvided_Test,"aG",@progbits,_
 1402              		.align 32
 1405              	_ZTS58TEST_hsm_handleEvent_Should_Know_When_NoEventProvided_Test:
 1406 0000 35385445 		.string	"58TEST_hsm_handleEvent_Should_Know_When_NoEventProvided_Test"
 1406      53545F68 
 1406      736D5F68 
 1406      616E646C 
 1406      65457665 
 1407              		.weak	_ZTI76TEST_hsm_handleEvent_Should_GiveError_When_InvalidHandleAndNoEvent_TestShell
 1408              		.section	.rodata._ZTI76TEST_hsm_handleEvent_Should_GiveError_When_InvalidHandleAndNoEvent_TestShel
 1409              		.align 8
 1412              	_ZTI76TEST_hsm_handleEvent_Should_GiveError_When_InvalidHandleAndNoEvent_TestShell:
 1413 0000 00000000 		.quad	_ZTVN10__cxxabiv120__si_class_type_infoE+16
 1413      00000000 
 1414 0008 00000000 		.quad	_ZTS76TEST_hsm_handleEvent_Should_GiveError_When_InvalidHandleAndNoEvent_TestShell
 1414      00000000 
 1415 0010 00000000 		.quad	_ZTI10UtestShell
 1415      00000000 
 1416              		.weak	_ZTS76TEST_hsm_handleEvent_Should_GiveError_When_InvalidHandleAndNoEvent_TestShell
 1417              		.section	.rodata._ZTS76TEST_hsm_handleEvent_Should_GiveError_When_InvalidHandleAndNoEvent_TestShel
 1418              		.align 32
 1421              	_ZTS76TEST_hsm_handleEvent_Should_GiveError_When_InvalidHandleAndNoEvent_TestShell:
 1422 0000 37365445 		.string	"76TEST_hsm_handleEvent_Should_GiveError_When_InvalidHandleAndNoEvent_TestShell"
 1422      53545F68 
 1422      736D5F68 
 1422      616E646C 
 1422      65457665 
 1423              		.weak	_ZTI71TEST_hsm_handleEvent_Should_GiveError_When_InvalidHandleAndNoEvent_Test
 1424              		.section	.rodata._ZTI71TEST_hsm_handleEvent_Should_GiveError_When_InvalidHandleAndNoEvent_Test,"aG
GAS LISTING /tmp/ccFKddKf.s 			page 30


 1425              		.align 8
 1428              	_ZTI71TEST_hsm_handleEvent_Should_GiveError_When_InvalidHandleAndNoEvent_Test:
 1429 0000 00000000 		.quad	_ZTVN10__cxxabiv120__si_class_type_infoE+16
 1429      00000000 
 1430 0008 00000000 		.quad	_ZTS71TEST_hsm_handleEvent_Should_GiveError_When_InvalidHandleAndNoEvent_Test
 1430      00000000 
 1431 0010 00000000 		.quad	_ZTI39TEST_GROUP_CppUTestGrouphsm_handleEvent
 1431      00000000 
 1432              		.weak	_ZTS71TEST_hsm_handleEvent_Should_GiveError_When_InvalidHandleAndNoEvent_Test
 1433              		.section	.rodata._ZTS71TEST_hsm_handleEvent_Should_GiveError_When_InvalidHandleAndNoEvent_Test,"aG
 1434              		.align 32
 1437              	_ZTS71TEST_hsm_handleEvent_Should_GiveError_When_InvalidHandleAndNoEvent_Test:
 1438 0000 37315445 		.string	"71TEST_hsm_handleEvent_Should_GiveError_When_InvalidHandleAndNoEvent_Test"
 1438      53545F68 
 1438      736D5F68 
 1438      616E646C 
 1438      65457665 
 1439              		.weak	_ZTI39TEST_GROUP_CppUTestGrouphsm_handleEvent
 1440              		.section	.rodata._ZTI39TEST_GROUP_CppUTestGrouphsm_handleEvent,"aG",@progbits,_ZTI39TEST_GROUP_Cpp
 1441              		.align 8
 1444              	_ZTI39TEST_GROUP_CppUTestGrouphsm_handleEvent:
 1445 0000 00000000 		.quad	_ZTVN10__cxxabiv120__si_class_type_infoE+16
 1445      00000000 
 1446 0008 00000000 		.quad	_ZTS39TEST_GROUP_CppUTestGrouphsm_handleEvent
 1446      00000000 
 1447 0010 00000000 		.quad	_ZTI5Utest
 1447      00000000 
 1448              		.weak	_ZTS39TEST_GROUP_CppUTestGrouphsm_handleEvent
 1449              		.section	.rodata._ZTS39TEST_GROUP_CppUTestGrouphsm_handleEvent,"aG",@progbits,_ZTS39TEST_GROUP_Cpp
 1450              		.align 32
 1453              	_ZTS39TEST_GROUP_CppUTestGrouphsm_handleEvent:
 1454 0000 33395445 		.string	"39TEST_GROUP_CppUTestGrouphsm_handleEvent"
 1454      53545F47 
 1454      524F5550 
 1454      5F437070 
 1454      55546573 
 1455              		.section	.rodata
 1456 002b 00000000 		.align 8
 1456      00
 1457              	.LC1:
 1458 0030 53686F75 		.string	"Should_GiveError_When_InvalidHandleAndNoEvent"
 1458      6C645F47 
 1458      69766545 
 1458      72726F72 
 1458      5F576865 
 1459              	.LC2:
 1460 005e 68736D5F 		.string	"hsm_handleEvent"
 1460      68616E64 
 1460      6C654576 
 1460      656E7400 
 1461 006e 0000     		.align 8
 1462              	.LC3:
 1463 0070 53686F75 		.string	"Should_Know_When_NoEventProvided"
 1463      6C645F4B 
 1463      6E6F775F 
 1463      5768656E 
 1463      5F4E6F45 
GAS LISTING /tmp/ccFKddKf.s 			page 31


 1464              		.text
 1466              	_Z41__static_initialization_and_destruction_0ii:
 1467              	.LFB733:
 1468              		.cfi_startproc
 1469 038b 55       		pushq	%rbp
 1470              		.cfi_def_cfa_offset 16
 1471              		.cfi_offset 6, -16
 1472 038c 4889E5   		movq	%rsp, %rbp
 1473              		.cfi_def_cfa_register 6
 1474 038f 4883EC10 		subq	$16, %rsp
 1475 0393 897DFC   		movl	%edi, -4(%rbp)
 1476 0396 8975F8   		movl	%esi, -8(%rbp)
 1477 0399 837DFC01 		cmpl	$1, -4(%rbp)
 1478 039d 0F85BB00 		jne	.L62
 1478      0000
 1479 03a3 817DF8FF 		cmpl	$65535, -8(%rbp)
 1479      FF0000
 1480 03aa 0F85AE00 		jne	.L62
 1480      0000
 1481 03b0 BF000000 		movl	$TEST_hsm_handleEvent_Should_GiveError_When_InvalidHandleAndNoEvent_TestShell_instance, %edi
 1481      00
 1482 03b5 E8000000 		call	_ZN76TEST_hsm_handleEvent_Should_GiveError_When_InvalidHandleAndNoEvent_TestShellC1Ev
 1482      00
 1483 03ba BA000000 		movl	$__dso_handle, %edx
 1483      00
 1484 03bf BE000000 		movl	$TEST_hsm_handleEvent_Should_GiveError_When_InvalidHandleAndNoEvent_TestShell_instance, %esi
 1484      00
 1485 03c4 BF000000 		movl	$_ZN76TEST_hsm_handleEvent_Should_GiveError_When_InvalidHandleAndNoEvent_TestShellD1Ev, %edi
 1485      00
 1486 03c9 E8000000 		call	__cxa_atexit
 1486      00
 1487 03ce 41B94000 		movl	$64, %r9d
 1487      0000
 1488 03d4 41B80000 		movl	$.LC0, %r8d
 1488      0000
 1489 03da B9000000 		movl	$.LC1, %ecx
 1489      00
 1490 03df BA000000 		movl	$.LC2, %edx
 1490      00
 1491 03e4 BE000000 		movl	$TEST_hsm_handleEvent_Should_GiveError_When_InvalidHandleAndNoEvent_TestShell_instance, %esi
 1491      00
 1492 03e9 BF000000 		movl	$_ZL76TEST_hsm_handleEvent_Should_GiveError_When_InvalidHandleAndNoEvent_Installer, %edi
 1492      00
 1493 03ee E8000000 		call	_ZN13TestInstallerC1ER10UtestShellPKcS3_S3_i
 1493      00
 1494 03f3 BA000000 		movl	$__dso_handle, %edx
 1494      00
 1495 03f8 BE000000 		movl	$_ZL76TEST_hsm_handleEvent_Should_GiveError_When_InvalidHandleAndNoEvent_Installer, %esi
 1495      00
 1496 03fd BF000000 		movl	$_ZN13TestInstallerD1Ev, %edi
 1496      00
 1497 0402 E8000000 		call	__cxa_atexit
 1497      00
 1498 0407 BF000000 		movl	$TEST_hsm_handleEvent_Should_Know_When_NoEventProvided_TestShell_instance, %edi
 1498      00
 1499 040c E8000000 		call	_ZN63TEST_hsm_handleEvent_Should_Know_When_NoEventProvided_TestShellC1Ev
 1499      00
GAS LISTING /tmp/ccFKddKf.s 			page 32


 1500 0411 BA000000 		movl	$__dso_handle, %edx
 1500      00
 1501 0416 BE000000 		movl	$TEST_hsm_handleEvent_Should_Know_When_NoEventProvided_TestShell_instance, %esi
 1501      00
 1502 041b BF000000 		movl	$_ZN63TEST_hsm_handleEvent_Should_Know_When_NoEventProvided_TestShellD1Ev, %edi
 1502      00
 1503 0420 E8000000 		call	__cxa_atexit
 1503      00
 1504 0425 41B94900 		movl	$73, %r9d
 1504      0000
 1505 042b 41B80000 		movl	$.LC0, %r8d
 1505      0000
 1506 0431 B9000000 		movl	$.LC3, %ecx
 1506      00
 1507 0436 BA000000 		movl	$.LC2, %edx
 1507      00
 1508 043b BE000000 		movl	$TEST_hsm_handleEvent_Should_Know_When_NoEventProvided_TestShell_instance, %esi
 1508      00
 1509 0440 BF000000 		movl	$_ZL63TEST_hsm_handleEvent_Should_Know_When_NoEventProvided_Installer, %edi
 1509      00
 1510 0445 E8000000 		call	_ZN13TestInstallerC1ER10UtestShellPKcS3_S3_i
 1510      00
 1511 044a BA000000 		movl	$__dso_handle, %edx
 1511      00
 1512 044f BE000000 		movl	$_ZL63TEST_hsm_handleEvent_Should_Know_When_NoEventProvided_Installer, %esi
 1512      00
 1513 0454 BF000000 		movl	$_ZN13TestInstallerD1Ev, %edi
 1513      00
 1514 0459 E8000000 		call	__cxa_atexit
 1514      00
 1515              	.L62:
 1516 045e 90       		nop
 1517 045f C9       		leave
 1518              		.cfi_def_cfa 7, 8
 1519 0460 C3       		ret
 1520              		.cfi_endproc
 1521              	.LFE733:
 1523              		.data
 1524              		.align 16
 1527              	._79:
 1528 00c0 00000000 		.quad	0
 1528      00000000 
 1529 00c8 00000000 		.quad	0
 1529      00000000 
 1530 00d0 00000000 		.quad	secondState
 1530      00000000 
 1531 00d8 00000000 		.align 16
 1531      00000000 
 1534              	._80:
 1535 00e0 00000000 		.quad	0
 1535      00000000 
 1536 00e8 00000000 		.quad	0
 1536      00000000 
 1537 00f0 00000000 		.quad	firstState
 1537      00000000 
 1538              		.text
 1540              	_GLOBAL__sub_I_firstState:
GAS LISTING /tmp/ccFKddKf.s 			page 33


 1541              	.LFB734:
 1542              		.cfi_startproc
 1543 0461 55       		pushq	%rbp
 1544              		.cfi_def_cfa_offset 16
 1545              		.cfi_offset 6, -16
 1546 0462 4889E5   		movq	%rsp, %rbp
 1547              		.cfi_def_cfa_register 6
 1548 0465 BEFFFF00 		movl	$65535, %esi
 1548      00
 1549 046a BF010000 		movl	$1, %edi
 1549      00
 1550 046f E817FFFF 		call	_Z41__static_initialization_and_destruction_0ii
 1550      FF
 1551 0474 5D       		popq	%rbp
 1552              		.cfi_def_cfa 7, 8
 1553 0475 C3       		ret
 1554              		.cfi_endproc
 1555              	.LFE734:
 1557              		.section	.init_array,"aw"
 1558              		.align 8
 1559 0000 00000000 		.quad	_GLOBAL__sub_I_firstState
 1559      00000000 
 1560              		.hidden	__dso_handle
 1561              		.ident	"GCC: (Ubuntu 5.4.0-6ubuntu1~16.04.5) 5.4.0 20160609"
 1562              		.section	.note.GNU-stack,"",@progbits
GAS LISTING /tmp/ccFKddKf.s 			page 34

