GAS LISTING /tmp/ccL6xP0D.s 			page 1


   1              		.file	"hsm_1_layer_noEvents_test.cpp"
   2              		.section	.text._ZN14TestTerminatorC2Ev,"axG",@progbits,_ZN14TestTerminatorC5Ev,comdat
   3              		.align 2
   4              		.weak	_ZN14TestTerminatorC2Ev
   6              	_ZN14TestTerminatorC2Ev:
   7              	.LFB611:
   8              		.cfi_startproc
   9 0000 55       		pushq	%rbp
  10              		.cfi_def_cfa_offset 16
  11              		.cfi_offset 6, -16
  12 0001 4889E5   		movq	%rsp, %rbp
  13              		.cfi_def_cfa_register 6
  14 0004 48897DF8 		movq	%rdi, -8(%rbp)
  15 0008 BA000000 		movl	$_ZTV14TestTerminator+16, %edx
  15      00
  16 000d 488B45F8 		movq	-8(%rbp), %rax
  17 0011 488910   		movq	%rdx, (%rax)
  18 0014 90       		nop
  19 0015 5D       		popq	%rbp
  20              		.cfi_def_cfa 7, 8
  21 0016 C3       		ret
  22              		.cfi_endproc
  23              	.LFE611:
  25              		.weak	_ZN14TestTerminatorC1Ev
  26              		.set	_ZN14TestTerminatorC1Ev,_ZN14TestTerminatorC2Ev
  27              		.section	.text._ZN20NormalTestTerminatorC2Ev,"axG",@progbits,_ZN20NormalTestTerminatorC5Ev,comdat
  28              		.align 2
  29              		.weak	_ZN20NormalTestTerminatorC2Ev
  31              	_ZN20NormalTestTerminatorC2Ev:
  32              	.LFB613:
  33              		.cfi_startproc
  34 0000 55       		pushq	%rbp
  35              		.cfi_def_cfa_offset 16
  36              		.cfi_offset 6, -16
  37 0001 4889E5   		movq	%rsp, %rbp
  38              		.cfi_def_cfa_register 6
  39 0004 4883EC10 		subq	$16, %rsp
  40 0008 48897DF8 		movq	%rdi, -8(%rbp)
  41 000c 488B45F8 		movq	-8(%rbp), %rax
  42 0010 4889C7   		movq	%rax, %rdi
  43 0013 E8000000 		call	_ZN14TestTerminatorC2Ev
  43      00
  44 0018 BA000000 		movl	$_ZTV20NormalTestTerminator+16, %edx
  44      00
  45 001d 488B45F8 		movq	-8(%rbp), %rax
  46 0021 488910   		movq	%rdx, (%rax)
  47 0024 90       		nop
  48 0025 C9       		leave
  49              		.cfi_def_cfa 7, 8
  50 0026 C3       		ret
  51              		.cfi_endproc
  52              	.LFE613:
  54              		.weak	_ZN20NormalTestTerminatorC1Ev
  55              		.set	_ZN20NormalTestTerminatorC1Ev,_ZN20NormalTestTerminatorC2Ev
  56              		.globl	onState
  57              		.data
  58              		.align 32
GAS LISTING /tmp/ccL6xP0D.s 			page 2


  61              	onState:
  62 0000 00000000 		.quad	0
  62      00000000 
  63 0008 00000000 		.quad	0
  63      00000000 
  64 0010 00000000 		.quad	0
  64      00000000 
  65 0018 00000000 		.quad	0
  65      00000000 
  66 0020 00000000 		.quad	0
  66      00000000 
  67 0028 00000000 		.quad	._79
  67      00000000 
  68 0030 01000000 		.long	1
  69 0034 00000000 		.zero	20
  69      00000000 
  69      00000000 
  69      00000000 
  69      00000000 
  70              		.globl	offState
  71 0048 00000000 		.align 32
  71      00000000 
  71      00000000 
  71      00000000 
  71      00000000 
  74              	offState:
  75 0060 00000000 		.quad	0
  75      00000000 
  76 0068 00000000 		.quad	0
  76      00000000 
  77 0070 00000000 		.quad	0
  77      00000000 
  78 0078 00000000 		.quad	0
  78      00000000 
  79 0080 00000000 		.quad	0
  79      00000000 
  80 0088 00000000 		.quad	._80
  80      00000000 
  81 0090 01000000 		.long	1
  82 0094 00000000 		.zero	20
  82      00000000 
  82      00000000 
  82      00000000 
  82      00000000 
  83 00a8 00000000 		.align 16
  83      00000000 
  86              	_ZL9stateList:
  87 00b0 00000000 		.quad	onState
  87      00000000 
  88 00b8 00000000 		.quad	offState
  88      00000000 
  89              		.globl	externTestGrouphsm_1_layer_simple
  90              		.bss
  91              		.align 4
  94              	externTestGrouphsm_1_layer_simple:
  95 0000 00000000 		.zero	4
  96              		.section	.rodata
GAS LISTING /tmp/ccL6xP0D.s 			page 3


  97              		.align 8
  98              	.LC0:
  99 0000 74657374 		.string	"tests/fsm/use_case/hsm_1_layer_noEvents_test.cpp"
  99      732F6673 
  99      6D2F7573 
  99      655F6361 
  99      73652F68 
 100              		.section	.text._ZN42TEST_GROUP_CppUTestGrouphsm_1_layer_simple5setupEv,"axG",@progbits,_ZN42TEST_G
 101              		.align 2
 102              		.weak	_ZN42TEST_GROUP_CppUTestGrouphsm_1_layer_simple5setupEv
 104              	_ZN42TEST_GROUP_CppUTestGrouphsm_1_layer_simple5setupEv:
 105              	.LFB692:
 106              		.cfi_startproc
 107              		.cfi_personality 0x3,__gxx_personality_v0
 108              		.cfi_lsda 0x3,.LLSDA692
 109 0000 55       		pushq	%rbp
 110              		.cfi_def_cfa_offset 16
 111              		.cfi_offset 6, -16
 112 0001 4889E5   		movq	%rsp, %rbp
 113              		.cfi_def_cfa_register 6
 114 0004 4154     		pushq	%r12
 115 0006 53       		pushq	%rbx
 116 0007 4883EC40 		subq	$64, %rsp
 117              		.cfi_offset 12, -24
 118              		.cfi_offset 3, -32
 119 000b 48897DD8 		movq	%rdi, -40(%rbp)
 120 000f 64488B04 		movq	%fs:40, %rax
 120      25280000 
 120      00
 121 0018 488945E8 		movq	%rax, -24(%rbp)
 122 001c 31C0     		xorl	%eax, %eax
 123 001e B8020000 		movl	$2, %eax
 123      00
 124 0023 89C2     		movl	%eax, %edx
 125 0025 488B5DD8 		movq	-40(%rbp), %rbx
 126 0029 488D45B0 		leaq	-80(%rbp), %rax
 127 002d 89D1     		movl	%edx, %ecx
 128 002f BA000000 		movl	$_ZL9stateList, %edx
 128      00
 129 0034 BE000000 		movl	$onState, %esi
 129      00
 130 0039 4889C7   		movq	%rax, %rdi
 131              	.LEHB0:
 132 003c E8000000 		call	_Z10_hsm_buildPK5statePPS_j
 132      00
 133 0041 488B45B0 		movq	-80(%rbp), %rax
 134 0045 48894308 		movq	%rax, 8(%rbx)
 135 0049 488B45B8 		movq	-72(%rbp), %rax
 136 004d 48894310 		movq	%rax, 16(%rbx)
 137 0051 488B45C0 		movq	-64(%rbp), %rax
 138 0055 48894318 		movq	%rax, 24(%rbx)
 139 0059 488B45C8 		movq	-56(%rbp), %rax
 140 005d 48894320 		movq	%rax, 32(%rbx)
 141 0061 E8000000 		call	_ZN10UtestShell10getCurrentEv
 141      00
 142 0066 488B10   		movq	(%rax), %rdx
 143 0069 4881C288 		addq	$136, %rdx
GAS LISTING /tmp/ccL6xP0D.s 			page 4


 143      000000
 144 0070 4C8B0A   		movq	(%rdx), %r9
 145 0073 488B55D8 		movq	-40(%rbp), %rdx
 146 0077 488B5208 		movq	8(%rdx), %rdx
 147 007b 41B85200 		movl	$82, %r8d
 147      0000
 148 0081 B9000000 		movl	$.LC0, %ecx
 148      00
 149 0086 BE000000 		movl	$onState, %esi
 149      00
 150 008b 4889C7   		movq	%rax, %rdi
 151 008e 41FFD1   		call	*%r9
 152 0091 E8000000 		call	_ZN10UtestShell10getCurrentEv
 152      00
 153 0096 488B10   		movq	(%rax), %rdx
 154 0099 4881C288 		addq	$136, %rdx
 154      000000
 155 00a0 4C8B0A   		movq	(%rdx), %r9
 156 00a3 488B55D8 		movq	-40(%rbp), %rdx
 157 00a7 488B5210 		movq	16(%rdx), %rdx
 158 00ab 41B85300 		movl	$83, %r8d
 158      0000
 159 00b1 B9000000 		movl	$.LC0, %ecx
 159      00
 160 00b6 BE000000 		movl	$onState, %esi
 160      00
 161 00bb 4889C7   		movq	%rax, %rdi
 162 00be 41FFD1   		call	*%r9
 163 00c1 E8000000 		call	_ZN10UtestShell10getCurrentEv
 163      00
 164              	.LEHE0:
 165 00c6 4889C3   		movq	%rax, %rbx
 166 00c9 488B03   		movq	(%rbx), %rax
 167 00cc 4883C078 		addq	$120, %rax
 168 00d0 4C8B20   		movq	(%rax), %r12
 169 00d3 48C745E0 		movq	$0, -32(%rbp)
 169      00000000 
 170 00db 488D45E0 		leaq	-32(%rbp), %rax
 171 00df 4889C7   		movq	%rax, %rdi
 172 00e2 E8000000 		call	_ZN20NormalTestTerminatorC1Ev
 172      00
 173 00e7 488B45D8 		movq	-40(%rbp), %rax
 174 00eb 488B4010 		movq	16(%rax), %rax
 175 00ef 8B4034   		movl	52(%rax), %eax
 176 00f2 89C2     		movl	%eax, %edx
 177 00f4 488D45E0 		leaq	-32(%rbp), %rax
 178 00f8 4989C1   		movq	%rax, %r9
 179 00fb 41B85400 		movl	$84, %r8d
 179      0000
 180 0101 B9000000 		movl	$.LC0, %ecx
 180      00
 181 0106 BE000000 		movl	$0, %esi
 181      00
 182 010b 4889DF   		movq	%rbx, %rdi
 183              	.LEHB1:
 184 010e 41FFD4   		call	*%r12
 185              	.LEHE1:
GAS LISTING /tmp/ccL6xP0D.s 			page 5


 186 0111 488D45E0 		leaq	-32(%rbp), %rax
 187 0115 4889C7   		movq	%rax, %rdi
 188              	.LEHB2:
 189 0118 E8000000 		call	_ZN20NormalTestTerminatorD1Ev
 189      00
 190              	.LEHE2:
 191 011d 90       		nop
 192 011e 488B45E8 		movq	-24(%rbp), %rax
 193 0122 64483304 		xorq	%fs:40, %rax
 193      25280000 
 193      00
 194 012b 7421     		je	.L5
 195 012d EB1A     		jmp	.L7
 196              	.L6:
 197 012f 4889C3   		movq	%rax, %rbx
 198 0132 488D45E0 		leaq	-32(%rbp), %rax
 199 0136 4889C7   		movq	%rax, %rdi
 200 0139 E8000000 		call	_ZN20NormalTestTerminatorD1Ev
 200      00
 201 013e 4889D8   		movq	%rbx, %rax
 202 0141 4889C7   		movq	%rax, %rdi
 203              	.LEHB3:
 204 0144 E8000000 		call	_Unwind_Resume
 204      00
 205              	.LEHE3:
 206              	.L7:
 207 0149 E8000000 		call	__stack_chk_fail
 207      00
 208              	.L5:
 209 014e 4883C440 		addq	$64, %rsp
 210 0152 5B       		popq	%rbx
 211 0153 415C     		popq	%r12
 212 0155 5D       		popq	%rbp
 213              		.cfi_def_cfa 7, 8
 214 0156 C3       		ret
 215              		.cfi_endproc
 216              	.LFE692:
 217              		.globl	__gxx_personality_v0
 218              		.section	.gcc_except_table._ZN42TEST_GROUP_CppUTestGrouphsm_1_layer_simple5setupEv,"aG",@progbits,
 219              	.LLSDA692:
 220 0000 FF       		.byte	0xff
 221 0001 FF       		.byte	0xff
 222 0002 01       		.byte	0x1
 223 0003 15       		.uleb128 .LLSDACSE692-.LLSDACSB692
 224              	.LLSDACSB692:
 225 0004 3C       		.uleb128 .LEHB0-.LFB692
 226 0005 8A01     		.uleb128 .LEHE0-.LEHB0
 227 0007 00       		.uleb128 0
 228 0008 00       		.uleb128 0
 229 0009 8E02     		.uleb128 .LEHB1-.LFB692
 230 000b 03       		.uleb128 .LEHE1-.LEHB1
 231 000c AF02     		.uleb128 .L6-.LFB692
 232 000e 00       		.uleb128 0
 233 000f 9802     		.uleb128 .LEHB2-.LFB692
 234 0011 05       		.uleb128 .LEHE2-.LEHB2
 235 0012 00       		.uleb128 0
 236 0013 00       		.uleb128 0
GAS LISTING /tmp/ccL6xP0D.s 			page 6


 237 0014 C402     		.uleb128 .LEHB3-.LFB692
 238 0016 05       		.uleb128 .LEHE3-.LEHB3
 239 0017 00       		.uleb128 0
 240 0018 00       		.uleb128 0
 241              	.LLSDACSE692:
 242              		.section	.text._ZN42TEST_GROUP_CppUTestGrouphsm_1_layer_simple5setupEv,"axG",@progbits,_ZN42TEST_G
 244              		.section	.text._ZN42TEST_GROUP_CppUTestGrouphsm_1_layer_simple8teardownEv,"axG",@progbits,_ZN42TES
 245              		.align 2
 246              		.weak	_ZN42TEST_GROUP_CppUTestGrouphsm_1_layer_simple8teardownEv
 248              	_ZN42TEST_GROUP_CppUTestGrouphsm_1_layer_simple8teardownEv:
 249              	.LFB693:
 250              		.cfi_startproc
 251 0000 55       		pushq	%rbp
 252              		.cfi_def_cfa_offset 16
 253              		.cfi_offset 6, -16
 254 0001 4889E5   		movq	%rsp, %rbp
 255              		.cfi_def_cfa_register 6
 256 0004 48897DF8 		movq	%rdi, -8(%rbp)
 257 0008 90       		nop
 258 0009 5D       		popq	%rbp
 259              		.cfi_def_cfa 7, 8
 260 000a C3       		ret
 261              		.cfi_endproc
 262              	.LFE693:
 264              		.text
 266              	_ZL18CHECK_HSM_NO_EVENTP5hsm_tP5state13hsm_st_mode_tS2_S3_:
 267              	.LFB694:
 268              		.cfi_startproc
 269              		.cfi_personality 0x3,__gxx_personality_v0
 270              		.cfi_lsda 0x3,.LLSDA694
 271 0000 55       		pushq	%rbp
 272              		.cfi_def_cfa_offset 16
 273              		.cfi_offset 6, -16
 274 0001 4889E5   		movq	%rsp, %rbp
 275              		.cfi_def_cfa_register 6
 276 0004 4155     		pushq	%r13
 277 0006 4154     		pushq	%r12
 278 0008 53       		pushq	%rbx
 279 0009 4883EC68 		subq	$104, %rsp
 280              		.cfi_offset 13, -24
 281              		.cfi_offset 12, -32
 282              		.cfi_offset 3, -40
 283 000d 48897D98 		movq	%rdi, -104(%rbp)
 284 0011 48897590 		movq	%rsi, -112(%rbp)
 285 0015 89558C   		movl	%edx, -116(%rbp)
 286 0018 48894D80 		movq	%rcx, -128(%rbp)
 287 001c 44894588 		movl	%r8d, -120(%rbp)
 288 0020 64488B04 		movq	%fs:40, %rax
 288      25280000 
 288      00
 289 0029 488945D8 		movq	%rax, -40(%rbp)
 290 002d 31C0     		xorl	%eax, %eax
 291              	.LEHB4:
 292 002f E8000000 		call	_ZN10UtestShell10getCurrentEv
 292      00
 293 0034 488B10   		movq	(%rax), %rdx
 294 0037 4881C288 		addq	$136, %rdx
GAS LISTING /tmp/ccL6xP0D.s 			page 7


 294      000000
 295 003e 4C8B0A   		movq	(%rdx), %r9
 296 0041 488B5598 		movq	-104(%rbp), %rdx
 297 0045 488B5208 		movq	8(%rdx), %rdx
 298 0049 488B7590 		movq	-112(%rbp), %rsi
 299 004d 41B86100 		movl	$97, %r8d
 299      0000
 300 0053 B9000000 		movl	$.LC0, %ecx
 300      00
 301 0058 4889C7   		movq	%rax, %rdi
 302 005b 41FFD1   		call	*%r9
 303 005e E8000000 		call	_ZN10UtestShell10getCurrentEv
 303      00
 304              	.LEHE4:
 305 0063 4889C3   		movq	%rax, %rbx
 306 0066 488B03   		movq	(%rbx), %rax
 307 0069 4883C078 		addq	$120, %rax
 308 006d 4C8B20   		movq	(%rax), %r12
 309 0070 48C745D0 		movq	$0, -48(%rbp)
 309      00000000 
 310 0078 488D45D0 		leaq	-48(%rbp), %rax
 311 007c 4889C7   		movq	%rax, %rdi
 312 007f E8000000 		call	_ZN20NormalTestTerminatorC1Ev
 312      00
 313 0084 488B4598 		movq	-104(%rbp), %rax
 314 0088 488B4008 		movq	8(%rax), %rax
 315 008c 8B4034   		movl	52(%rax), %eax
 316 008f 89C6     		movl	%eax, %esi
 317 0091 8B458C   		movl	-116(%rbp), %eax
 318 0094 488D55D0 		leaq	-48(%rbp), %rdx
 319 0098 4989D1   		movq	%rdx, %r9
 320 009b 41B86200 		movl	$98, %r8d
 320      0000
 321 00a1 B9000000 		movl	$.LC0, %ecx
 321      00
 322 00a6 4889F2   		movq	%rsi, %rdx
 323 00a9 4889C6   		movq	%rax, %rsi
 324 00ac 4889DF   		movq	%rbx, %rdi
 325              	.LEHB5:
 326 00af 41FFD4   		call	*%r12
 327              	.LEHE5:
 328 00b2 488D45D0 		leaq	-48(%rbp), %rax
 329 00b6 4889C7   		movq	%rax, %rdi
 330              	.LEHB6:
 331 00b9 E8000000 		call	_ZN20NormalTestTerminatorD1Ev
 331      00
 332 00be 488B4598 		movq	-104(%rbp), %rax
 333 00c2 BE000000 		movl	$0, %esi
 333      00
 334 00c7 4889C7   		movq	%rax, %rdi
 335 00ca E8000000 		call	_Z15hsm_handleEventP5hsm_tPK11hsm_event_t
 335      00
 336 00cf 8945AC   		movl	%eax, -84(%rbp)
 337 00d2 837DAC01 		cmpl	$1, -84(%rbp)
 338 00d6 0F84B500 		je	.L10
 338      0000
 339 00dc E8000000 		call	_ZN10UtestShell10getCurrentEv
GAS LISTING /tmp/ccL6xP0D.s 			page 8


 339      00
 340              	.LEHE6:
 341 00e1 4889C3   		movq	%rax, %rbx
 342 00e4 488B03   		movq	(%rbx), %rax
 343 00e7 48059800 		addq	$152, %rax
 343      0000
 344 00ed 4C8B20   		movq	(%rax), %r12
 345 00f0 48C745D0 		movq	$0, -48(%rbp)
 345      00000000 
 346 00f8 488D45D0 		leaq	-48(%rbp), %rax
 347 00fc 4889C7   		movq	%rax, %rdi
 348 00ff E8000000 		call	_ZN20NormalTestTerminatorC1Ev
 348      00
 349 0104 488D45C0 		leaq	-64(%rbp), %rax
 350 0108 8B55AC   		movl	-84(%rbp), %edx
 351 010b 89D6     		movl	%edx, %esi
 352 010d 4889C7   		movq	%rax, %rdi
 353              	.LEHB7:
 354 0110 E8000000 		call	_Z10StringFromi
 354      00
 355              	.LEHE7:
 356 0115 488D45C0 		leaq	-64(%rbp), %rax
 357 0119 4889C7   		movq	%rax, %rdi
 358              	.LEHB8:
 359 011c E8000000 		call	_ZNK12SimpleString12asCharStringEv
 359      00
 360 0121 4989C5   		movq	%rax, %r13
 361 0124 488D45B0 		leaq	-80(%rbp), %rax
 362 0128 BE010000 		movl	$1, %esi
 362      00
 363 012d 4889C7   		movq	%rax, %rdi
 364 0130 E8000000 		call	_Z10StringFromi
 364      00
 365              	.LEHE8:
 366 0135 488D45B0 		leaq	-80(%rbp), %rax
 367 0139 4889C7   		movq	%rax, %rdi
 368              	.LEHB9:
 369 013c E8000000 		call	_ZNK12SimpleString12asCharStringEv
 369      00
 370 0141 4889C2   		movq	%rax, %rdx
 371 0144 4883EC08 		subq	$8, %rsp
 372 0148 488D45D0 		leaq	-48(%rbp), %rax
 373 014c 50       		pushq	%rax
 374 014d 41B96500 		movl	$101, %r9d
 374      0000
 375 0153 41B80000 		movl	$.LC0, %r8d
 375      0000
 376 0159 4C89E9   		movq	%r13, %rcx
 377 015c BE010000 		movl	$1, %esi
 377      00
 378 0161 4889DF   		movq	%rbx, %rdi
 379              		.cfi_escape 0x2e,0x10
 380 0164 41FFD4   		call	*%r12
 381              	.LEHE9:
 382 0167 4883C410 		addq	$16, %rsp
 383 016b 488D45B0 		leaq	-80(%rbp), %rax
 384 016f 4889C7   		movq	%rax, %rdi
GAS LISTING /tmp/ccL6xP0D.s 			page 9


 385              	.LEHB10:
 386              		.cfi_escape 0x2e,0
 387 0172 E8000000 		call	_ZN12SimpleStringD1Ev
 387      00
 388              	.LEHE10:
 389 0177 488D45C0 		leaq	-64(%rbp), %rax
 390 017b 4889C7   		movq	%rax, %rdi
 391              	.LEHB11:
 392 017e E8000000 		call	_ZN12SimpleStringD1Ev
 392      00
 393              	.LEHE11:
 394 0183 488D45D0 		leaq	-48(%rbp), %rax
 395 0187 4889C7   		movq	%rax, %rdi
 396              	.LEHB12:
 397 018a E8000000 		call	_ZN20NormalTestTerminatorD1Ev
 397      00
 398 018f EB54     		jmp	.L11
 399              	.L10:
 400 0191 E8000000 		call	_ZN10UtestShell10getCurrentEv
 400      00
 401              	.LEHE12:
 402 0196 4889C3   		movq	%rax, %rbx
 403 0199 488B03   		movq	(%rbx), %rax
 404 019c 4883C078 		addq	$120, %rax
 405 01a0 4C8B20   		movq	(%rax), %r12
 406 01a3 48C745D0 		movq	$0, -48(%rbp)
 406      00000000 
 407 01ab 488D45D0 		leaq	-48(%rbp), %rax
 408 01af 4889C7   		movq	%rax, %rdi
 409 01b2 E8000000 		call	_ZN20NormalTestTerminatorC1Ev
 409      00
 410 01b7 488D45D0 		leaq	-48(%rbp), %rax
 411 01bb 4989C1   		movq	%rax, %r9
 412 01be 41B86500 		movl	$101, %r8d
 412      0000
 413 01c4 B9000000 		movl	$.LC0, %ecx
 413      00
 414 01c9 BA000000 		movl	$0, %edx
 414      00
 415 01ce BE000000 		movl	$0, %esi
 415      00
 416 01d3 4889DF   		movq	%rbx, %rdi
 417              	.LEHB13:
 418 01d6 41FFD4   		call	*%r12
 419              	.LEHE13:
 420 01d9 488D45D0 		leaq	-48(%rbp), %rax
 421 01dd 4889C7   		movq	%rax, %rdi
 422              	.LEHB14:
 423 01e0 E8000000 		call	_ZN20NormalTestTerminatorD1Ev
 423      00
 424              	.L11:
 425 01e5 E8000000 		call	_ZN10UtestShell10getCurrentEv
 425      00
 426 01ea 488B10   		movq	(%rax), %rdx
 427 01ed 4881C288 		addq	$136, %rdx
 427      000000
 428 01f4 4C8B0A   		movq	(%rdx), %r9
GAS LISTING /tmp/ccL6xP0D.s 			page 10


 429 01f7 488B5598 		movq	-104(%rbp), %rdx
 430 01fb 488B5208 		movq	8(%rdx), %rdx
 431 01ff 488B7580 		movq	-128(%rbp), %rsi
 432 0203 41B86800 		movl	$104, %r8d
 432      0000
 433 0209 B9000000 		movl	$.LC0, %ecx
 433      00
 434 020e 4889C7   		movq	%rax, %rdi
 435 0211 41FFD1   		call	*%r9
 436 0214 E8000000 		call	_ZN10UtestShell10getCurrentEv
 436      00
 437              	.LEHE14:
 438 0219 4889C3   		movq	%rax, %rbx
 439 021c 488B03   		movq	(%rbx), %rax
 440 021f 4883C078 		addq	$120, %rax
 441 0223 4C8B20   		movq	(%rax), %r12
 442 0226 48C745D0 		movq	$0, -48(%rbp)
 442      00000000 
 443 022e 488D45D0 		leaq	-48(%rbp), %rax
 444 0232 4889C7   		movq	%rax, %rdi
 445 0235 E8000000 		call	_ZN20NormalTestTerminatorC1Ev
 445      00
 446 023a 488B4598 		movq	-104(%rbp), %rax
 447 023e 488B4008 		movq	8(%rax), %rax
 448 0242 8B4034   		movl	52(%rax), %eax
 449 0245 89C6     		movl	%eax, %esi
 450 0247 8B4588   		movl	-120(%rbp), %eax
 451 024a 488D55D0 		leaq	-48(%rbp), %rdx
 452 024e 4989D1   		movq	%rdx, %r9
 453 0251 41B86900 		movl	$105, %r8d
 453      0000
 454 0257 B9000000 		movl	$.LC0, %ecx
 454      00
 455 025c 4889F2   		movq	%rsi, %rdx
 456 025f 4889C6   		movq	%rax, %rsi
 457 0262 4889DF   		movq	%rbx, %rdi
 458              	.LEHB15:
 459 0265 41FFD4   		call	*%r12
 460              	.LEHE15:
 461 0268 488D45D0 		leaq	-48(%rbp), %rax
 462 026c 4889C7   		movq	%rax, %rdi
 463              	.LEHB16:
 464 026f E8000000 		call	_ZN20NormalTestTerminatorD1Ev
 464      00
 465              	.LEHE16:
 466 0274 90       		nop
 467 0275 488B45D8 		movq	-40(%rbp), %rax
 468 0279 64483304 		xorq	%fs:40, %rax
 468      25280000 
 468      00
 469 0282 0F849400 		je	.L18
 469      0000
 470 0288 E98A0000 		jmp	.L25
 470      00
 471              	.L19:
 472 028d 4889C3   		movq	%rax, %rbx
 473 0290 488D45D0 		leaq	-48(%rbp), %rax
GAS LISTING /tmp/ccL6xP0D.s 			page 11


 474 0294 4889C7   		movq	%rax, %rdi
 475 0297 E8000000 		call	_ZN20NormalTestTerminatorD1Ev
 475      00
 476 029c 4889D8   		movq	%rbx, %rax
 477 029f 4889C7   		movq	%rax, %rdi
 478              	.LEHB17:
 479 02a2 E8000000 		call	_Unwind_Resume
 479      00
 480              	.LEHE17:
 481              	.L22:
 482 02a7 4889C3   		movq	%rax, %rbx
 483 02aa 488D45B0 		leaq	-80(%rbp), %rax
 484 02ae 4889C7   		movq	%rax, %rdi
 485 02b1 E8000000 		call	_ZN12SimpleStringD1Ev
 485      00
 486 02b6 EB03     		jmp	.L14
 487              	.L21:
 488 02b8 4889C3   		movq	%rax, %rbx
 489              	.L14:
 490 02bb 488D45C0 		leaq	-64(%rbp), %rax
 491 02bf 4889C7   		movq	%rax, %rdi
 492 02c2 E8000000 		call	_ZN12SimpleStringD1Ev
 492      00
 493 02c7 EB03     		jmp	.L15
 494              	.L20:
 495 02c9 4889C3   		movq	%rax, %rbx
 496              	.L15:
 497 02cc 488D45D0 		leaq	-48(%rbp), %rax
 498 02d0 4889C7   		movq	%rax, %rdi
 499 02d3 E8000000 		call	_ZN20NormalTestTerminatorD1Ev
 499      00
 500 02d8 4889D8   		movq	%rbx, %rax
 501 02db 4889C7   		movq	%rax, %rdi
 502              	.LEHB18:
 503 02de E8000000 		call	_Unwind_Resume
 503      00
 504              	.LEHE18:
 505              	.L23:
 506 02e3 4889C3   		movq	%rax, %rbx
 507 02e6 488D45D0 		leaq	-48(%rbp), %rax
 508 02ea 4889C7   		movq	%rax, %rdi
 509 02ed E8000000 		call	_ZN20NormalTestTerminatorD1Ev
 509      00
 510 02f2 4889D8   		movq	%rbx, %rax
 511 02f5 4889C7   		movq	%rax, %rdi
 512              	.LEHB19:
 513 02f8 E8000000 		call	_Unwind_Resume
 513      00
 514              	.LEHE19:
 515              	.L24:
 516 02fd 4889C3   		movq	%rax, %rbx
 517 0300 488D45D0 		leaq	-48(%rbp), %rax
 518 0304 4889C7   		movq	%rax, %rdi
 519 0307 E8000000 		call	_ZN20NormalTestTerminatorD1Ev
 519      00
 520 030c 4889D8   		movq	%rbx, %rax
 521 030f 4889C7   		movq	%rax, %rdi
GAS LISTING /tmp/ccL6xP0D.s 			page 12


 522              	.LEHB20:
 523 0312 E8000000 		call	_Unwind_Resume
 523      00
 524              	.LEHE20:
 525              	.L25:
 526 0317 E8000000 		call	__stack_chk_fail
 526      00
 527              	.L18:
 528 031c 488D65E8 		leaq	-24(%rbp), %rsp
 529 0320 5B       		popq	%rbx
 530 0321 415C     		popq	%r12
 531 0323 415D     		popq	%r13
 532 0325 5D       		popq	%rbp
 533              		.cfi_def_cfa 7, 8
 534 0326 C3       		ret
 535              		.cfi_endproc
 536              	.LFE694:
 537              		.section	.gcc_except_table,"a",@progbits
 538              	.LLSDA694:
 539 0000 FF       		.byte	0xff
 540 0001 FF       		.byte	0xff
 541 0002 01       		.byte	0x1
 542 0003 5C       		.uleb128 .LLSDACSE694-.LLSDACSB694
 543              	.LLSDACSB694:
 544 0004 2F       		.uleb128 .LEHB4-.LFB694
 545 0005 34       		.uleb128 .LEHE4-.LEHB4
 546 0006 00       		.uleb128 0
 547 0007 00       		.uleb128 0
 548 0008 AF01     		.uleb128 .LEHB5-.LFB694
 549 000a 03       		.uleb128 .LEHE5-.LEHB5
 550 000b 8D05     		.uleb128 .L19-.LFB694
 551 000d 00       		.uleb128 0
 552 000e B901     		.uleb128 .LEHB6-.LFB694
 553 0010 28       		.uleb128 .LEHE6-.LEHB6
 554 0011 00       		.uleb128 0
 555 0012 00       		.uleb128 0
 556 0013 9002     		.uleb128 .LEHB7-.LFB694
 557 0015 05       		.uleb128 .LEHE7-.LEHB7
 558 0016 C905     		.uleb128 .L20-.LFB694
 559 0018 00       		.uleb128 0
 560 0019 9C02     		.uleb128 .LEHB8-.LFB694
 561 001b 19       		.uleb128 .LEHE8-.LEHB8
 562 001c B805     		.uleb128 .L21-.LFB694
 563 001e 00       		.uleb128 0
 564 001f BC02     		.uleb128 .LEHB9-.LFB694
 565 0021 2B       		.uleb128 .LEHE9-.LEHB9
 566 0022 A705     		.uleb128 .L22-.LFB694
 567 0024 00       		.uleb128 0
 568 0025 F202     		.uleb128 .LEHB10-.LFB694
 569 0027 05       		.uleb128 .LEHE10-.LEHB10
 570 0028 B805     		.uleb128 .L21-.LFB694
 571 002a 00       		.uleb128 0
 572 002b FE02     		.uleb128 .LEHB11-.LFB694
 573 002d 05       		.uleb128 .LEHE11-.LEHB11
 574 002e C905     		.uleb128 .L20-.LFB694
 575 0030 00       		.uleb128 0
 576 0031 8A03     		.uleb128 .LEHB12-.LFB694
GAS LISTING /tmp/ccL6xP0D.s 			page 13


 577 0033 0C       		.uleb128 .LEHE12-.LEHB12
 578 0034 00       		.uleb128 0
 579 0035 00       		.uleb128 0
 580 0036 D603     		.uleb128 .LEHB13-.LFB694
 581 0038 03       		.uleb128 .LEHE13-.LEHB13
 582 0039 E305     		.uleb128 .L23-.LFB694
 583 003b 00       		.uleb128 0
 584 003c E003     		.uleb128 .LEHB14-.LFB694
 585 003e 39       		.uleb128 .LEHE14-.LEHB14
 586 003f 00       		.uleb128 0
 587 0040 00       		.uleb128 0
 588 0041 E504     		.uleb128 .LEHB15-.LFB694
 589 0043 03       		.uleb128 .LEHE15-.LEHB15
 590 0044 FD05     		.uleb128 .L24-.LFB694
 591 0046 00       		.uleb128 0
 592 0047 EF04     		.uleb128 .LEHB16-.LFB694
 593 0049 05       		.uleb128 .LEHE16-.LEHB16
 594 004a 00       		.uleb128 0
 595 004b 00       		.uleb128 0
 596 004c A205     		.uleb128 .LEHB17-.LFB694
 597 004e 05       		.uleb128 .LEHE17-.LEHB17
 598 004f 00       		.uleb128 0
 599 0050 00       		.uleb128 0
 600 0051 DE05     		.uleb128 .LEHB18-.LFB694
 601 0053 05       		.uleb128 .LEHE18-.LEHB18
 602 0054 00       		.uleb128 0
 603 0055 00       		.uleb128 0
 604 0056 F805     		.uleb128 .LEHB19-.LFB694
 605 0058 05       		.uleb128 .LEHE19-.LEHB19
 606 0059 00       		.uleb128 0
 607 005a 00       		.uleb128 0
 608 005b 9206     		.uleb128 .LEHB20-.LFB694
 609 005d 05       		.uleb128 .LEHE20-.LEHB20
 610 005e 00       		.uleb128 0
 611 005f 00       		.uleb128 0
 612              	.LLSDACSE694:
 613              		.text
 615              		.section	.text._ZN42TEST_GROUP_CppUTestGrouphsm_1_layer_simpleC2Ev,"axG",@progbits,_ZN42TEST_GROUP
 616              		.align 2
 617              		.weak	_ZN42TEST_GROUP_CppUTestGrouphsm_1_layer_simpleC2Ev
 619              	_ZN42TEST_GROUP_CppUTestGrouphsm_1_layer_simpleC2Ev:
 620              	.LFB697:
 621              		.cfi_startproc
 622 0000 55       		pushq	%rbp
 623              		.cfi_def_cfa_offset 16
 624              		.cfi_offset 6, -16
 625 0001 4889E5   		movq	%rsp, %rbp
 626              		.cfi_def_cfa_register 6
 627 0004 4883EC10 		subq	$16, %rsp
 628 0008 48897DF8 		movq	%rdi, -8(%rbp)
 629 000c 488B45F8 		movq	-8(%rbp), %rax
 630 0010 4889C7   		movq	%rax, %rdi
 631 0013 E8000000 		call	_ZN5UtestC2Ev
 631      00
 632 0018 BA000000 		movl	$_ZTV42TEST_GROUP_CppUTestGrouphsm_1_layer_simple+16, %edx
 632      00
 633 001d 488B45F8 		movq	-8(%rbp), %rax
GAS LISTING /tmp/ccL6xP0D.s 			page 14


 634 0021 488910   		movq	%rdx, (%rax)
 635 0024 90       		nop
 636 0025 C9       		leave
 637              		.cfi_def_cfa 7, 8
 638 0026 C3       		ret
 639              		.cfi_endproc
 640              	.LFE697:
 642              		.weak	_ZN42TEST_GROUP_CppUTestGrouphsm_1_layer_simpleC1Ev
 643              		.set	_ZN42TEST_GROUP_CppUTestGrouphsm_1_layer_simpleC1Ev,_ZN42TEST_GROUP_CppUTestGrouphsm_1_layer_
 644              		.section	.text._ZN42TEST_GROUP_CppUTestGrouphsm_1_layer_simpleD2Ev,"axG",@progbits,_ZN42TEST_GROUP
 645              		.align 2
 646              		.weak	_ZN42TEST_GROUP_CppUTestGrouphsm_1_layer_simpleD2Ev
 648              	_ZN42TEST_GROUP_CppUTestGrouphsm_1_layer_simpleD2Ev:
 649              	.LFB700:
 650              		.cfi_startproc
 651 0000 55       		pushq	%rbp
 652              		.cfi_def_cfa_offset 16
 653              		.cfi_offset 6, -16
 654 0001 4889E5   		movq	%rsp, %rbp
 655              		.cfi_def_cfa_register 6
 656 0004 4883EC10 		subq	$16, %rsp
 657 0008 48897DF8 		movq	%rdi, -8(%rbp)
 658 000c BA000000 		movl	$_ZTV42TEST_GROUP_CppUTestGrouphsm_1_layer_simple+16, %edx
 658      00
 659 0011 488B45F8 		movq	-8(%rbp), %rax
 660 0015 488910   		movq	%rdx, (%rax)
 661 0018 488B45F8 		movq	-8(%rbp), %rax
 662 001c 4889C7   		movq	%rax, %rdi
 663 001f E8000000 		call	_ZN5UtestD2Ev
 663      00
 664 0024 B8000000 		movl	$0, %eax
 664      00
 665 0029 85C0     		testl	%eax, %eax
 666 002b 740C     		je	.L27
 667 002d 488B45F8 		movq	-8(%rbp), %rax
 668 0031 4889C7   		movq	%rax, %rdi
 669 0034 E8000000 		call	_ZdlPv
 669      00
 670              	.L27:
 671 0039 C9       		leave
 672              		.cfi_def_cfa 7, 8
 673 003a C3       		ret
 674              		.cfi_endproc
 675              	.LFE700:
 677              		.weak	_ZN42TEST_GROUP_CppUTestGrouphsm_1_layer_simpleD1Ev
 678              		.set	_ZN42TEST_GROUP_CppUTestGrouphsm_1_layer_simpleD1Ev,_ZN42TEST_GROUP_CppUTestGrouphsm_1_layer_
 679              		.section	.text._ZN42TEST_GROUP_CppUTestGrouphsm_1_layer_simpleD0Ev,"axG",@progbits,_ZN42TEST_GROUP
 680              		.align 2
 681              		.weak	_ZN42TEST_GROUP_CppUTestGrouphsm_1_layer_simpleD0Ev
 683              	_ZN42TEST_GROUP_CppUTestGrouphsm_1_layer_simpleD0Ev:
 684              	.LFB702:
 685              		.cfi_startproc
 686 0000 55       		pushq	%rbp
 687              		.cfi_def_cfa_offset 16
 688              		.cfi_offset 6, -16
 689 0001 4889E5   		movq	%rsp, %rbp
 690              		.cfi_def_cfa_register 6
GAS LISTING /tmp/ccL6xP0D.s 			page 15


 691 0004 4883EC10 		subq	$16, %rsp
 692 0008 48897DF8 		movq	%rdi, -8(%rbp)
 693 000c 488B45F8 		movq	-8(%rbp), %rax
 694 0010 4889C7   		movq	%rax, %rdi
 695 0013 E8000000 		call	_ZN42TEST_GROUP_CppUTestGrouphsm_1_layer_simpleD1Ev
 695      00
 696 0018 488B45F8 		movq	-8(%rbp), %rax
 697 001c 4889C7   		movq	%rax, %rdi
 698 001f E8000000 		call	_ZdlPv
 698      00
 699 0024 C9       		leave
 700              		.cfi_def_cfa 7, 8
 701 0025 C3       		ret
 702              		.cfi_endproc
 703              	.LFE702:
 705              		.section	.text._ZN68TEST_hsm_1_layer_simple_Should_HandleSimpleOnOffHSMWithNoEvents_TestC2Ev,"axG"
 706              		.align 2
 707              		.weak	_ZN68TEST_hsm_1_layer_simple_Should_HandleSimpleOnOffHSMWithNoEvents_TestC2Ev
 709              	_ZN68TEST_hsm_1_layer_simple_Should_HandleSimpleOnOffHSMWithNoEvents_TestC2Ev:
 710              	.LFB703:
 711              		.cfi_startproc
 712 0000 55       		pushq	%rbp
 713              		.cfi_def_cfa_offset 16
 714              		.cfi_offset 6, -16
 715 0001 4889E5   		movq	%rsp, %rbp
 716              		.cfi_def_cfa_register 6
 717 0004 4883EC10 		subq	$16, %rsp
 718 0008 48897DF8 		movq	%rdi, -8(%rbp)
 719 000c 488B45F8 		movq	-8(%rbp), %rax
 720 0010 4889C6   		movq	%rax, %rsi
 721 0013 B8000000 		movl	$0, %eax
 721      00
 722 0018 BA070000 		movl	$7, %edx
 722      00
 723 001d 4889F7   		movq	%rsi, %rdi
 724 0020 4889D1   		movq	%rdx, %rcx
 725 0023 F348AB   		rep stosq
 726 0026 488B45F8 		movq	-8(%rbp), %rax
 727 002a 4889C7   		movq	%rax, %rdi
 728 002d E8000000 		call	_ZN42TEST_GROUP_CppUTestGrouphsm_1_layer_simpleC2Ev
 728      00
 729 0032 BA000000 		movl	$_ZTV68TEST_hsm_1_layer_simple_Should_HandleSimpleOnOffHSMWithNoEvents_Test+16, %edx
 729      00
 730 0037 488B45F8 		movq	-8(%rbp), %rax
 731 003b 488910   		movq	%rdx, (%rax)
 732 003e 90       		nop
 733 003f C9       		leave
 734              		.cfi_def_cfa 7, 8
 735 0040 C3       		ret
 736              		.cfi_endproc
 737              	.LFE703:
 739              		.weak	_ZN68TEST_hsm_1_layer_simple_Should_HandleSimpleOnOffHSMWithNoEvents_TestC1Ev
 740              		.set	_ZN68TEST_hsm_1_layer_simple_Should_HandleSimpleOnOffHSMWithNoEvents_TestC1Ev,_ZN68TEST_hsm_1
 741              		.section	.text._ZN73TEST_hsm_1_layer_simple_Should_HandleSimpleOnOffHSMWithNoEvents_TestShell10cre
 742              		.align 2
 743              		.weak	_ZN73TEST_hsm_1_layer_simple_Should_HandleSimpleOnOffHSMWithNoEvents_TestShell10createTestEv
 745              	_ZN73TEST_hsm_1_layer_simple_Should_HandleSimpleOnOffHSMWithNoEvents_TestShell10createTestEv:
GAS LISTING /tmp/ccL6xP0D.s 			page 16


 746              	.LFB705:
 747              		.cfi_startproc
 748              		.cfi_personality 0x3,__gxx_personality_v0
 749              		.cfi_lsda 0x3,.LLSDA705
 750 0000 55       		pushq	%rbp
 751              		.cfi_def_cfa_offset 16
 752              		.cfi_offset 6, -16
 753 0001 4889E5   		movq	%rsp, %rbp
 754              		.cfi_def_cfa_register 6
 755 0004 4154     		pushq	%r12
 756 0006 53       		pushq	%rbx
 757 0007 4883EC10 		subq	$16, %rsp
 758              		.cfi_offset 12, -24
 759              		.cfi_offset 3, -32
 760 000b 48897DE8 		movq	%rdi, -24(%rbp)
 761 000f BA6C0000 		movl	$108, %edx
 761      00
 762 0014 BE000000 		movl	$.LC0, %esi
 762      00
 763 0019 BF380000 		movl	$56, %edi
 763      00
 764              	.LEHB21:
 765 001e E8000000 		call	_ZnwmPKci
 765      00
 766              	.LEHE21:
 767 0023 4889C3   		movq	%rax, %rbx
 768 0026 4889DF   		movq	%rbx, %rdi
 769              	.LEHB22:
 770 0029 E8000000 		call	_ZN68TEST_hsm_1_layer_simple_Should_HandleSimpleOnOffHSMWithNoEvents_TestC1Ev
 770      00
 771              	.LEHE22:
 772 002e 4889D8   		movq	%rbx, %rax
 773 0031 EB20     		jmp	.L35
 774              	.L34:
 775 0033 4989C4   		movq	%rax, %r12
 776 0036 BA6C0000 		movl	$108, %edx
 776      00
 777 003b BE000000 		movl	$.LC0, %esi
 777      00
 778 0040 4889DF   		movq	%rbx, %rdi
 779 0043 E8000000 		call	_ZdlPvPKci
 779      00
 780 0048 4C89E0   		movq	%r12, %rax
 781 004b 4889C7   		movq	%rax, %rdi
 782              	.LEHB23:
 783 004e E8000000 		call	_Unwind_Resume
 783      00
 784              	.LEHE23:
 785              	.L35:
 786 0053 4883C410 		addq	$16, %rsp
 787 0057 5B       		popq	%rbx
 788 0058 415C     		popq	%r12
 789 005a 5D       		popq	%rbp
 790              		.cfi_def_cfa 7, 8
 791 005b C3       		ret
 792              		.cfi_endproc
 793              	.LFE705:
GAS LISTING /tmp/ccL6xP0D.s 			page 17


 794              		.section	.gcc_except_table
 795              	.LLSDA705:
 796 0060 FF       		.byte	0xff
 797 0061 FF       		.byte	0xff
 798 0062 01       		.byte	0x1
 799 0063 0C       		.uleb128 .LLSDACSE705-.LLSDACSB705
 800              	.LLSDACSB705:
 801 0064 1E       		.uleb128 .LEHB21-.LFB705
 802 0065 05       		.uleb128 .LEHE21-.LEHB21
 803 0066 00       		.uleb128 0
 804 0067 00       		.uleb128 0
 805 0068 29       		.uleb128 .LEHB22-.LFB705
 806 0069 05       		.uleb128 .LEHE22-.LEHB22
 807 006a 33       		.uleb128 .L34-.LFB705
 808 006b 00       		.uleb128 0
 809 006c 4E       		.uleb128 .LEHB23-.LFB705
 810 006d 05       		.uleb128 .LEHE23-.LEHB23
 811 006e 00       		.uleb128 0
 812 006f 00       		.uleb128 0
 813              	.LLSDACSE705:
 814              		.section	.text._ZN73TEST_hsm_1_layer_simple_Should_HandleSimpleOnOffHSMWithNoEvents_TestShell10cre
 816              		.section	.text._ZN73TEST_hsm_1_layer_simple_Should_HandleSimpleOnOffHSMWithNoEvents_TestShellC2Ev,
 817              		.align 2
 818              		.weak	_ZN73TEST_hsm_1_layer_simple_Should_HandleSimpleOnOffHSMWithNoEvents_TestShellC2Ev
 820              	_ZN73TEST_hsm_1_layer_simple_Should_HandleSimpleOnOffHSMWithNoEvents_TestShellC2Ev:
 821              	.LFB707:
 822              		.cfi_startproc
 823 0000 55       		pushq	%rbp
 824              		.cfi_def_cfa_offset 16
 825              		.cfi_offset 6, -16
 826 0001 4889E5   		movq	%rsp, %rbp
 827              		.cfi_def_cfa_register 6
 828 0004 4883EC10 		subq	$16, %rsp
 829 0008 48897DF8 		movq	%rdi, -8(%rbp)
 830 000c 488B45F8 		movq	-8(%rbp), %rax
 831 0010 4889C7   		movq	%rax, %rdi
 832 0013 E8000000 		call	_ZN10UtestShellC2Ev
 832      00
 833 0018 BA000000 		movl	$_ZTV73TEST_hsm_1_layer_simple_Should_HandleSimpleOnOffHSMWithNoEvents_TestShell+16, %edx
 833      00
 834 001d 488B45F8 		movq	-8(%rbp), %rax
 835 0021 488910   		movq	%rdx, (%rax)
 836 0024 90       		nop
 837 0025 C9       		leave
 838              		.cfi_def_cfa 7, 8
 839 0026 C3       		ret
 840              		.cfi_endproc
 841              	.LFE707:
 843              		.weak	_ZN73TEST_hsm_1_layer_simple_Should_HandleSimpleOnOffHSMWithNoEvents_TestShellC1Ev
 844              		.set	_ZN73TEST_hsm_1_layer_simple_Should_HandleSimpleOnOffHSMWithNoEvents_TestShellC1Ev,_ZN73TEST_
 845              		.globl	TEST_hsm_1_layer_simple_Should_HandleSimpleOnOffHSMWithNoEvents_TestShell_instance
 846              		.bss
 847 0004 00000000 		.align 32
 847      00000000 
 847      00000000 
 847      00000000 
 847      00000000 
GAS LISTING /tmp/ccL6xP0D.s 			page 18


 850              	TEST_hsm_1_layer_simple_Should_HandleSimpleOnOffHSMWithNoEvents_TestShell_instance:
 851 0020 00000000 		.zero	56
 851      00000000 
 851      00000000 
 851      00000000 
 851      00000000 
 852              		.local	_ZL73TEST_hsm_1_layer_simple_Should_HandleSimpleOnOffHSMWithNoEvents_Installer
 853              		.comm	_ZL73TEST_hsm_1_layer_simple_Should_HandleSimpleOnOffHSMWithNoEvents_Installer,8,8
 854              		.text
 855 0327 90       		.align 2
 856              		.globl	_ZN68TEST_hsm_1_layer_simple_Should_HandleSimpleOnOffHSMWithNoEvents_Test8testBodyEv
 858              	_ZN68TEST_hsm_1_layer_simple_Should_HandleSimpleOnOffHSMWithNoEvents_Test8testBodyEv:
 859              	.LFB709:
 860              		.cfi_startproc
 861              		.cfi_personality 0x3,__gxx_personality_v0
 862              		.cfi_lsda 0x3,.LLSDA709
 863 0328 55       		pushq	%rbp
 864              		.cfi_def_cfa_offset 16
 865              		.cfi_offset 6, -16
 866 0329 4889E5   		movq	%rsp, %rbp
 867              		.cfi_def_cfa_register 6
 868 032c 4154     		pushq	%r12
 869 032e 53       		pushq	%rbx
 870 032f 4883EC20 		subq	$32, %rsp
 871              		.cfi_offset 12, -24
 872              		.cfi_offset 3, -32
 873 0333 48897DD8 		movq	%rdi, -40(%rbp)
 874 0337 64488B04 		movq	%fs:40, %rax
 874      25280000 
 874      00
 875 0340 488945E8 		movq	%rax, -24(%rbp)
 876 0344 31C0     		xorl	%eax, %eax
 877 0346 488B45D8 		movq	-40(%rbp), %rax
 878 034a 4883C008 		addq	$8, %rax
 879 034e 41B80100 		movl	$1, %r8d
 879      0000
 880 0354 B9000000 		movl	$onState, %ecx
 880      00
 881 0359 BA000000 		movl	$0, %edx
 881      00
 882 035e BE000000 		movl	$onState, %esi
 882      00
 883 0363 4889C7   		movq	%rax, %rdi
 884              	.LEHB24:
 885 0366 E895FCFF 		call	_ZL18CHECK_HSM_NO_EVENTP5hsm_tP5state13hsm_st_mode_tS2_S3_
 885      FF
 886 036b 488B45D8 		movq	-40(%rbp), %rax
 887 036f 4883C008 		addq	$8, %rax
 888 0373 41B80200 		movl	$2, %r8d
 888      0000
 889 0379 B9000000 		movl	$onState, %ecx
 889      00
 890 037e BA010000 		movl	$1, %edx
 890      00
 891 0383 BE000000 		movl	$onState, %esi
 891      00
 892 0388 4889C7   		movq	%rax, %rdi
GAS LISTING /tmp/ccL6xP0D.s 			page 19


 893 038b E870FCFF 		call	_ZL18CHECK_HSM_NO_EVENTP5hsm_tP5state13hsm_st_mode_tS2_S3_
 893      FF
 894 0390 488B45D8 		movq	-40(%rbp), %rax
 895 0394 4883C008 		addq	$8, %rax
 896 0398 41B80400 		movl	$4, %r8d
 896      0000
 897 039e B9000000 		movl	$onState, %ecx
 897      00
 898 03a3 BA020000 		movl	$2, %edx
 898      00
 899 03a8 BE000000 		movl	$onState, %esi
 899      00
 900 03ad 4889C7   		movq	%rax, %rdi
 901 03b0 E84BFCFF 		call	_ZL18CHECK_HSM_NO_EVENTP5hsm_tP5state13hsm_st_mode_tS2_S3_
 901      FF
 902 03b5 488B45D8 		movq	-40(%rbp), %rax
 903 03b9 4883C008 		addq	$8, %rax
 904 03bd 41B80000 		movl	$0, %r8d
 904      0000
 905 03c3 B9000000 		movl	$offState, %ecx
 905      00
 906 03c8 BA040000 		movl	$4, %edx
 906      00
 907 03cd BE000000 		movl	$onState, %esi
 907      00
 908 03d2 4889C7   		movq	%rax, %rdi
 909 03d5 E826FCFF 		call	_ZL18CHECK_HSM_NO_EVENTP5hsm_tP5state13hsm_st_mode_tS2_S3_
 909      FF
 910 03da E8000000 		call	_ZN10UtestShell10getCurrentEv
 910      00
 911              	.LEHE24:
 912 03df 4889C3   		movq	%rax, %rbx
 913 03e2 488B03   		movq	(%rbx), %rax
 914 03e5 4883C078 		addq	$120, %rax
 915 03e9 4C8B20   		movq	(%rax), %r12
 916 03ec 48C745E0 		movq	$0, -32(%rbp)
 916      00000000 
 917 03f4 488D45E0 		leaq	-32(%rbp), %rax
 918 03f8 4889C7   		movq	%rax, %rdi
 919 03fb E8000000 		call	_ZN20NormalTestTerminatorC1Ev
 919      00
 920 0400 8B050000 		movl	onState+52(%rip), %eax
 920      0000
 921 0406 89C2     		movl	%eax, %edx
 922 0408 488D45E0 		leaq	-32(%rbp), %rax
 923 040c 4989C1   		movq	%rax, %r9
 924 040f 41B87900 		movl	$121, %r8d
 924      0000
 925 0415 B9000000 		movl	$.LC0, %ecx
 925      00
 926 041a BE000000 		movl	$0, %esi
 926      00
 927 041f 4889DF   		movq	%rbx, %rdi
 928              	.LEHB25:
 929 0422 41FFD4   		call	*%r12
 930              	.LEHE25:
 931 0425 488D45E0 		leaq	-32(%rbp), %rax
GAS LISTING /tmp/ccL6xP0D.s 			page 20


 932 0429 4889C7   		movq	%rax, %rdi
 933              	.LEHB26:
 934 042c E8000000 		call	_ZN20NormalTestTerminatorD1Ev
 934      00
 935 0431 488B45D8 		movq	-40(%rbp), %rax
 936 0435 4883C008 		addq	$8, %rax
 937 0439 41B80100 		movl	$1, %r8d
 937      0000
 938 043f B9000000 		movl	$offState, %ecx
 938      00
 939 0444 BA000000 		movl	$0, %edx
 939      00
 940 0449 BE000000 		movl	$offState, %esi
 940      00
 941 044e 4889C7   		movq	%rax, %rdi
 942 0451 E8AAFBFF 		call	_ZL18CHECK_HSM_NO_EVENTP5hsm_tP5state13hsm_st_mode_tS2_S3_
 942      FF
 943 0456 488B45D8 		movq	-40(%rbp), %rax
 944 045a 4883C008 		addq	$8, %rax
 945 045e 41B80200 		movl	$2, %r8d
 945      0000
 946 0464 B9000000 		movl	$offState, %ecx
 946      00
 947 0469 BA010000 		movl	$1, %edx
 947      00
 948 046e BE000000 		movl	$offState, %esi
 948      00
 949 0473 4889C7   		movq	%rax, %rdi
 950 0476 E885FBFF 		call	_ZL18CHECK_HSM_NO_EVENTP5hsm_tP5state13hsm_st_mode_tS2_S3_
 950      FF
 951 047b 488B45D8 		movq	-40(%rbp), %rax
 952 047f 4883C008 		addq	$8, %rax
 953 0483 41B80400 		movl	$4, %r8d
 953      0000
 954 0489 B9000000 		movl	$offState, %ecx
 954      00
 955 048e BA020000 		movl	$2, %edx
 955      00
 956 0493 BE000000 		movl	$offState, %esi
 956      00
 957 0498 4889C7   		movq	%rax, %rdi
 958 049b E860FBFF 		call	_ZL18CHECK_HSM_NO_EVENTP5hsm_tP5state13hsm_st_mode_tS2_S3_
 958      FF
 959 04a0 488B45D8 		movq	-40(%rbp), %rax
 960 04a4 4883C008 		addq	$8, %rax
 961 04a8 41B80000 		movl	$0, %r8d
 961      0000
 962 04ae B9000000 		movl	$onState, %ecx
 962      00
 963 04b3 BA040000 		movl	$4, %edx
 963      00
 964 04b8 BE000000 		movl	$offState, %esi
 964      00
 965 04bd 4889C7   		movq	%rax, %rdi
 966 04c0 E83BFBFF 		call	_ZL18CHECK_HSM_NO_EVENTP5hsm_tP5state13hsm_st_mode_tS2_S3_
 966      FF
 967 04c5 E8000000 		call	_ZN10UtestShell10getCurrentEv
GAS LISTING /tmp/ccL6xP0D.s 			page 21


 967      00
 968              	.LEHE26:
 969 04ca 4889C3   		movq	%rax, %rbx
 970 04cd 488B03   		movq	(%rbx), %rax
 971 04d0 4883C078 		addq	$120, %rax
 972 04d4 4C8B20   		movq	(%rax), %r12
 973 04d7 48C745E0 		movq	$0, -32(%rbp)
 973      00000000 
 974 04df 488D45E0 		leaq	-32(%rbp), %rax
 975 04e3 4889C7   		movq	%rax, %rdi
 976 04e6 E8000000 		call	_ZN20NormalTestTerminatorC1Ev
 976      00
 977 04eb 8B050000 		movl	offState+52(%rip), %eax
 977      0000
 978 04f1 89C2     		movl	%eax, %edx
 979 04f3 488D45E0 		leaq	-32(%rbp), %rax
 980 04f7 4989C1   		movq	%rax, %r9
 981 04fa 41B88600 		movl	$134, %r8d
 981      0000
 982 0500 B9000000 		movl	$.LC0, %ecx
 982      00
 983 0505 BE000000 		movl	$0, %esi
 983      00
 984 050a 4889DF   		movq	%rbx, %rdi
 985              	.LEHB27:
 986 050d 41FFD4   		call	*%r12
 987              	.LEHE27:
 988 0510 488D45E0 		leaq	-32(%rbp), %rax
 989 0514 4889C7   		movq	%rax, %rdi
 990              	.LEHB28:
 991 0517 E8000000 		call	_ZN20NormalTestTerminatorD1Ev
 991      00
 992              	.LEHE28:
 993 051c 90       		nop
 994 051d 488B45E8 		movq	-24(%rbp), %rax
 995 0521 64483304 		xorq	%fs:40, %rax
 995      25280000 
 995      00
 996 052a 743B     		je	.L40
 997 052c EB34     		jmp	.L43
 998              	.L41:
 999 052e 4889C3   		movq	%rax, %rbx
 1000 0531 488D45E0 		leaq	-32(%rbp), %rax
 1001 0535 4889C7   		movq	%rax, %rdi
 1002 0538 E8000000 		call	_ZN20NormalTestTerminatorD1Ev
 1002      00
 1003 053d 4889D8   		movq	%rbx, %rax
 1004 0540 4889C7   		movq	%rax, %rdi
 1005              	.LEHB29:
 1006 0543 E8000000 		call	_Unwind_Resume
 1006      00
 1007              	.LEHE29:
 1008              	.L42:
 1009 0548 4889C3   		movq	%rax, %rbx
 1010 054b 488D45E0 		leaq	-32(%rbp), %rax
 1011 054f 4889C7   		movq	%rax, %rdi
 1012 0552 E8000000 		call	_ZN20NormalTestTerminatorD1Ev
GAS LISTING /tmp/ccL6xP0D.s 			page 22


 1012      00
 1013 0557 4889D8   		movq	%rbx, %rax
 1014 055a 4889C7   		movq	%rax, %rdi
 1015              	.LEHB30:
 1016 055d E8000000 		call	_Unwind_Resume
 1016      00
 1017              	.LEHE30:
 1018              	.L43:
 1019 0562 E8000000 		call	__stack_chk_fail
 1019      00
 1020              	.L40:
 1021 0567 4883C420 		addq	$32, %rsp
 1022 056b 5B       		popq	%rbx
 1023 056c 415C     		popq	%r12
 1024 056e 5D       		popq	%rbp
 1025              		.cfi_def_cfa 7, 8
 1026 056f C3       		ret
 1027              		.cfi_endproc
 1028              	.LFE709:
 1029              		.section	.gcc_except_table
 1030              	.LLSDA709:
 1031 0070 FF       		.byte	0xff
 1032 0071 FF       		.byte	0xff
 1033 0072 01       		.byte	0x1
 1034 0073 25       		.uleb128 .LLSDACSE709-.LLSDACSB709
 1035              	.LLSDACSB709:
 1036 0074 3E       		.uleb128 .LEHB24-.LFB709
 1037 0075 79       		.uleb128 .LEHE24-.LEHB24
 1038 0076 00       		.uleb128 0
 1039 0077 00       		.uleb128 0
 1040 0078 FA01     		.uleb128 .LEHB25-.LFB709
 1041 007a 03       		.uleb128 .LEHE25-.LEHB25
 1042 007b 8604     		.uleb128 .L41-.LFB709
 1043 007d 00       		.uleb128 0
 1044 007e 8402     		.uleb128 .LEHB26-.LFB709
 1045 0080 9E01     		.uleb128 .LEHE26-.LEHB26
 1046 0082 00       		.uleb128 0
 1047 0083 00       		.uleb128 0
 1048 0084 E503     		.uleb128 .LEHB27-.LFB709
 1049 0086 03       		.uleb128 .LEHE27-.LEHB27
 1050 0087 A004     		.uleb128 .L42-.LFB709
 1051 0089 00       		.uleb128 0
 1052 008a EF03     		.uleb128 .LEHB28-.LFB709
 1053 008c 05       		.uleb128 .LEHE28-.LEHB28
 1054 008d 00       		.uleb128 0
 1055 008e 00       		.uleb128 0
 1056 008f 9B04     		.uleb128 .LEHB29-.LFB709
 1057 0091 05       		.uleb128 .LEHE29-.LEHB29
 1058 0092 00       		.uleb128 0
 1059 0093 00       		.uleb128 0
 1060 0094 B504     		.uleb128 .LEHB30-.LFB709
 1061 0096 05       		.uleb128 .LEHE30-.LEHB30
 1062 0097 00       		.uleb128 0
 1063 0098 00       		.uleb128 0
 1064              	.LLSDACSE709:
 1065              		.text
 1067              		.section	.text._ZN72TEST_hsm_1_layer_simple_Should_HandleSimpleOnOffHSMWithNoEvents_old_TestC2Ev,"
GAS LISTING /tmp/ccL6xP0D.s 			page 23


 1068              		.align 2
 1069              		.weak	_ZN72TEST_hsm_1_layer_simple_Should_HandleSimpleOnOffHSMWithNoEvents_old_TestC2Ev
 1071              	_ZN72TEST_hsm_1_layer_simple_Should_HandleSimpleOnOffHSMWithNoEvents_old_TestC2Ev:
 1072              	.LFB711:
 1073              		.cfi_startproc
 1074 0000 55       		pushq	%rbp
 1075              		.cfi_def_cfa_offset 16
 1076              		.cfi_offset 6, -16
 1077 0001 4889E5   		movq	%rsp, %rbp
 1078              		.cfi_def_cfa_register 6
 1079 0004 4883EC10 		subq	$16, %rsp
 1080 0008 48897DF8 		movq	%rdi, -8(%rbp)
 1081 000c 488B45F8 		movq	-8(%rbp), %rax
 1082 0010 4889C6   		movq	%rax, %rsi
 1083 0013 B8000000 		movl	$0, %eax
 1083      00
 1084 0018 BA070000 		movl	$7, %edx
 1084      00
 1085 001d 4889F7   		movq	%rsi, %rdi
 1086 0020 4889D1   		movq	%rdx, %rcx
 1087 0023 F348AB   		rep stosq
 1088 0026 488B45F8 		movq	-8(%rbp), %rax
 1089 002a 4889C7   		movq	%rax, %rdi
 1090 002d E8000000 		call	_ZN42TEST_GROUP_CppUTestGrouphsm_1_layer_simpleC2Ev
 1090      00
 1091 0032 BA000000 		movl	$_ZTV72TEST_hsm_1_layer_simple_Should_HandleSimpleOnOffHSMWithNoEvents_old_Test+16, %edx
 1091      00
 1092 0037 488B45F8 		movq	-8(%rbp), %rax
 1093 003b 488910   		movq	%rdx, (%rax)
 1094 003e 90       		nop
 1095 003f C9       		leave
 1096              		.cfi_def_cfa 7, 8
 1097 0040 C3       		ret
 1098              		.cfi_endproc
 1099              	.LFE711:
 1101              		.weak	_ZN72TEST_hsm_1_layer_simple_Should_HandleSimpleOnOffHSMWithNoEvents_old_TestC1Ev
 1102              		.set	_ZN72TEST_hsm_1_layer_simple_Should_HandleSimpleOnOffHSMWithNoEvents_old_TestC1Ev,_ZN72TEST_h
 1103              		.section	.text._ZN77TEST_hsm_1_layer_simple_Should_HandleSimpleOnOffHSMWithNoEvents_old_TestShell1
 1104              		.align 2
 1105              		.weak	_ZN77TEST_hsm_1_layer_simple_Should_HandleSimpleOnOffHSMWithNoEvents_old_TestShell10createTe
 1107              	_ZN77TEST_hsm_1_layer_simple_Should_HandleSimpleOnOffHSMWithNoEvents_old_TestShell10createTestEv:
 1108              	.LFB713:
 1109              		.cfi_startproc
 1110              		.cfi_personality 0x3,__gxx_personality_v0
 1111              		.cfi_lsda 0x3,.LLSDA713
 1112 0000 55       		pushq	%rbp
 1113              		.cfi_def_cfa_offset 16
 1114              		.cfi_offset 6, -16
 1115 0001 4889E5   		movq	%rsp, %rbp
 1116              		.cfi_def_cfa_register 6
 1117 0004 4154     		pushq	%r12
 1118 0006 53       		pushq	%rbx
 1119 0007 4883EC10 		subq	$16, %rsp
 1120              		.cfi_offset 12, -24
 1121              		.cfi_offset 3, -32
 1122 000b 48897DE8 		movq	%rdi, -24(%rbp)
 1123 000f BA890000 		movl	$137, %edx
GAS LISTING /tmp/ccL6xP0D.s 			page 24


 1123      00
 1124 0014 BE000000 		movl	$.LC0, %esi
 1124      00
 1125 0019 BF380000 		movl	$56, %edi
 1125      00
 1126              	.LEHB31:
 1127 001e E8000000 		call	_ZnwmPKci
 1127      00
 1128              	.LEHE31:
 1129 0023 4889C3   		movq	%rax, %rbx
 1130 0026 4889DF   		movq	%rbx, %rdi
 1131              	.LEHB32:
 1132 0029 E8000000 		call	_ZN72TEST_hsm_1_layer_simple_Should_HandleSimpleOnOffHSMWithNoEvents_old_TestC1Ev
 1132      00
 1133              	.LEHE32:
 1134 002e 4889D8   		movq	%rbx, %rax
 1135 0031 EB20     		jmp	.L49
 1136              	.L48:
 1137 0033 4989C4   		movq	%rax, %r12
 1138 0036 BA890000 		movl	$137, %edx
 1138      00
 1139 003b BE000000 		movl	$.LC0, %esi
 1139      00
 1140 0040 4889DF   		movq	%rbx, %rdi
 1141 0043 E8000000 		call	_ZdlPvPKci
 1141      00
 1142 0048 4C89E0   		movq	%r12, %rax
 1143 004b 4889C7   		movq	%rax, %rdi
 1144              	.LEHB33:
 1145 004e E8000000 		call	_Unwind_Resume
 1145      00
 1146              	.LEHE33:
 1147              	.L49:
 1148 0053 4883C410 		addq	$16, %rsp
 1149 0057 5B       		popq	%rbx
 1150 0058 415C     		popq	%r12
 1151 005a 5D       		popq	%rbp
 1152              		.cfi_def_cfa 7, 8
 1153 005b C3       		ret
 1154              		.cfi_endproc
 1155              	.LFE713:
 1156              		.section	.gcc_except_table
 1157              	.LLSDA713:
 1158 0099 FF       		.byte	0xff
 1159 009a FF       		.byte	0xff
 1160 009b 01       		.byte	0x1
 1161 009c 0C       		.uleb128 .LLSDACSE713-.LLSDACSB713
 1162              	.LLSDACSB713:
 1163 009d 1E       		.uleb128 .LEHB31-.LFB713
 1164 009e 05       		.uleb128 .LEHE31-.LEHB31
 1165 009f 00       		.uleb128 0
 1166 00a0 00       		.uleb128 0
 1167 00a1 29       		.uleb128 .LEHB32-.LFB713
 1168 00a2 05       		.uleb128 .LEHE32-.LEHB32
 1169 00a3 33       		.uleb128 .L48-.LFB713
 1170 00a4 00       		.uleb128 0
 1171 00a5 4E       		.uleb128 .LEHB33-.LFB713
GAS LISTING /tmp/ccL6xP0D.s 			page 25


 1172 00a6 05       		.uleb128 .LEHE33-.LEHB33
 1173 00a7 00       		.uleb128 0
 1174 00a8 00       		.uleb128 0
 1175              	.LLSDACSE713:
 1176              		.section	.text._ZN77TEST_hsm_1_layer_simple_Should_HandleSimpleOnOffHSMWithNoEvents_old_TestShell1
 1178              		.section	.text._ZN77TEST_hsm_1_layer_simple_Should_HandleSimpleOnOffHSMWithNoEvents_old_TestShellC
 1179              		.align 2
 1180              		.weak	_ZN77TEST_hsm_1_layer_simple_Should_HandleSimpleOnOffHSMWithNoEvents_old_TestShellC2Ev
 1182              	_ZN77TEST_hsm_1_layer_simple_Should_HandleSimpleOnOffHSMWithNoEvents_old_TestShellC2Ev:
 1183              	.LFB715:
 1184              		.cfi_startproc
 1185 0000 55       		pushq	%rbp
 1186              		.cfi_def_cfa_offset 16
 1187              		.cfi_offset 6, -16
 1188 0001 4889E5   		movq	%rsp, %rbp
 1189              		.cfi_def_cfa_register 6
 1190 0004 4883EC10 		subq	$16, %rsp
 1191 0008 48897DF8 		movq	%rdi, -8(%rbp)
 1192 000c 488B45F8 		movq	-8(%rbp), %rax
 1193 0010 4889C7   		movq	%rax, %rdi
 1194 0013 E8000000 		call	_ZN10UtestShellC2Ev
 1194      00
 1195 0018 BA000000 		movl	$_ZTV77TEST_hsm_1_layer_simple_Should_HandleSimpleOnOffHSMWithNoEvents_old_TestShell+16, %edx
 1195      00
 1196 001d 488B45F8 		movq	-8(%rbp), %rax
 1197 0021 488910   		movq	%rdx, (%rax)
 1198 0024 90       		nop
 1199 0025 C9       		leave
 1200              		.cfi_def_cfa 7, 8
 1201 0026 C3       		ret
 1202              		.cfi_endproc
 1203              	.LFE715:
 1205              		.weak	_ZN77TEST_hsm_1_layer_simple_Should_HandleSimpleOnOffHSMWithNoEvents_old_TestShellC1Ev
 1206              		.set	_ZN77TEST_hsm_1_layer_simple_Should_HandleSimpleOnOffHSMWithNoEvents_old_TestShellC1Ev,_ZN77T
 1207              		.globl	TEST_hsm_1_layer_simple_Should_HandleSimpleOnOffHSMWithNoEvents_old_TestShell_instance
 1208              		.bss
 1209 0058 00000000 		.align 32
 1209      00000000 
 1212              	TEST_hsm_1_layer_simple_Should_HandleSimpleOnOffHSMWithNoEvents_old_TestShell_instance:
 1213 0060 00000000 		.zero	56
 1213      00000000 
 1213      00000000 
 1213      00000000 
 1213      00000000 
 1214              		.local	_ZL77TEST_hsm_1_layer_simple_Should_HandleSimpleOnOffHSMWithNoEvents_old_Installer
 1215              		.comm	_ZL77TEST_hsm_1_layer_simple_Should_HandleSimpleOnOffHSMWithNoEvents_old_Installer,8,8
 1216              		.text
 1217              		.align 2
 1218              		.globl	_ZN72TEST_hsm_1_layer_simple_Should_HandleSimpleOnOffHSMWithNoEvents_old_Test8testBodyEv
 1220              	_ZN72TEST_hsm_1_layer_simple_Should_HandleSimpleOnOffHSMWithNoEvents_old_Test8testBodyEv:
 1221              	.LFB717:
 1222              		.cfi_startproc
 1223              		.cfi_personality 0x3,__gxx_personality_v0
 1224              		.cfi_lsda 0x3,.LLSDA717
 1225 0570 55       		pushq	%rbp
 1226              		.cfi_def_cfa_offset 16
 1227              		.cfi_offset 6, -16
GAS LISTING /tmp/ccL6xP0D.s 			page 26


 1228 0571 4889E5   		movq	%rsp, %rbp
 1229              		.cfi_def_cfa_register 6
 1230 0574 4155     		pushq	%r13
 1231 0576 4154     		pushq	%r12
 1232 0578 53       		pushq	%rbx
 1233 0579 4883EC68 		subq	$104, %rsp
 1234              		.cfi_offset 13, -24
 1235              		.cfi_offset 12, -32
 1236              		.cfi_offset 3, -40
 1237 057d 48897D88 		movq	%rdi, -120(%rbp)
 1238 0581 64488B04 		movq	%fs:40, %rax
 1238      25280000 
 1238      00
 1239 058a 488945D8 		movq	%rax, -40(%rbp)
 1240 058e 31C0     		xorl	%eax, %eax
 1241 0590 488B4588 		movq	-120(%rbp), %rax
 1242 0594 4883C008 		addq	$8, %rax
 1243 0598 BE000000 		movl	$0, %esi
 1243      00
 1244 059d 4889C7   		movq	%rax, %rdi
 1245              	.LEHB34:
 1246 05a0 E8000000 		call	_Z15hsm_handleEventP5hsm_tPK11hsm_event_t
 1246      00
 1247 05a5 894590   		movl	%eax, -112(%rbp)
 1248 05a8 E8000000 		call	_ZN10UtestShell10getCurrentEv
 1248      00
 1249 05ad 488B10   		movq	(%rax), %rdx
 1250 05b0 4881C288 		addq	$136, %rdx
 1250      000000
 1251 05b7 4C8B0A   		movq	(%rdx), %r9
 1252 05ba 488B5588 		movq	-120(%rbp), %rdx
 1253 05be 488B5210 		movq	16(%rdx), %rdx
 1254 05c2 41B88F00 		movl	$143, %r8d
 1254      0000
 1255 05c8 B9000000 		movl	$.LC0, %ecx
 1255      00
 1256 05cd BE000000 		movl	$onState, %esi
 1256      00
 1257 05d2 4889C7   		movq	%rax, %rdi
 1258 05d5 41FFD1   		call	*%r9
 1259 05d8 E8000000 		call	_ZN10UtestShell10getCurrentEv
 1259      00
 1260              	.LEHE34:
 1261 05dd 4889C3   		movq	%rax, %rbx
 1262 05e0 488B03   		movq	(%rbx), %rax
 1263 05e3 4883C078 		addq	$120, %rax
 1264 05e7 4C8B20   		movq	(%rax), %r12
 1265 05ea 48C745D0 		movq	$0, -48(%rbp)
 1265      00000000 
 1266 05f2 488D45D0 		leaq	-48(%rbp), %rax
 1267 05f6 4889C7   		movq	%rax, %rdi
 1268 05f9 E8000000 		call	_ZN20NormalTestTerminatorC1Ev
 1268      00
 1269 05fe 488B4588 		movq	-120(%rbp), %rax
 1270 0602 488B4010 		movq	16(%rax), %rax
 1271 0606 8B4034   		movl	52(%rax), %eax
 1272 0609 89C2     		movl	%eax, %edx
GAS LISTING /tmp/ccL6xP0D.s 			page 27


 1273 060b 488D45D0 		leaq	-48(%rbp), %rax
 1274 060f 4989C1   		movq	%rax, %r9
 1275 0612 41B89000 		movl	$144, %r8d
 1275      0000
 1276 0618 B9000000 		movl	$.LC0, %ecx
 1276      00
 1277 061d BE010000 		movl	$1, %esi
 1277      00
 1278 0622 4889DF   		movq	%rbx, %rdi
 1279              	.LEHB35:
 1280 0625 41FFD4   		call	*%r12
 1281              	.LEHE35:
 1282 0628 488D45D0 		leaq	-48(%rbp), %rax
 1283 062c 4889C7   		movq	%rax, %rdi
 1284              	.LEHB36:
 1285 062f E8000000 		call	_ZN20NormalTestTerminatorD1Ev
 1285      00
 1286 0634 837D9001 		cmpl	$1, -112(%rbp)
 1287 0638 0F84B500 		je	.L52
 1287      0000
 1288 063e E8000000 		call	_ZN10UtestShell10getCurrentEv
 1288      00
 1289              	.LEHE36:
 1290 0643 4889C3   		movq	%rax, %rbx
 1291 0646 488B03   		movq	(%rbx), %rax
 1292 0649 48059800 		addq	$152, %rax
 1292      0000
 1293 064f 4C8B20   		movq	(%rax), %r12
 1294 0652 48C745D0 		movq	$0, -48(%rbp)
 1294      00000000 
 1295 065a 488D45D0 		leaq	-48(%rbp), %rax
 1296 065e 4889C7   		movq	%rax, %rdi
 1297 0661 E8000000 		call	_ZN20NormalTestTerminatorC1Ev
 1297      00
 1298 0666 488D45C0 		leaq	-64(%rbp), %rax
 1299 066a 8B5590   		movl	-112(%rbp), %edx
 1300 066d 89D6     		movl	%edx, %esi
 1301 066f 4889C7   		movq	%rax, %rdi
 1302              	.LEHB37:
 1303 0672 E8000000 		call	_Z10StringFromi
 1303      00
 1304              	.LEHE37:
 1305 0677 488D45C0 		leaq	-64(%rbp), %rax
 1306 067b 4889C7   		movq	%rax, %rdi
 1307              	.LEHB38:
 1308 067e E8000000 		call	_ZNK12SimpleString12asCharStringEv
 1308      00
 1309 0683 4989C5   		movq	%rax, %r13
 1310 0686 488D45B0 		leaq	-80(%rbp), %rax
 1311 068a BE010000 		movl	$1, %esi
 1311      00
 1312 068f 4889C7   		movq	%rax, %rdi
 1313 0692 E8000000 		call	_Z10StringFromi
 1313      00
 1314              	.LEHE38:
 1315 0697 488D45B0 		leaq	-80(%rbp), %rax
 1316 069b 4889C7   		movq	%rax, %rdi
GAS LISTING /tmp/ccL6xP0D.s 			page 28


 1317              	.LEHB39:
 1318 069e E8000000 		call	_ZNK12SimpleString12asCharStringEv
 1318      00
 1319 06a3 4889C2   		movq	%rax, %rdx
 1320 06a6 4883EC08 		subq	$8, %rsp
 1321 06aa 488D45D0 		leaq	-48(%rbp), %rax
 1322 06ae 50       		pushq	%rax
 1323 06af 41B99100 		movl	$145, %r9d
 1323      0000
 1324 06b5 41B80000 		movl	$.LC0, %r8d
 1324      0000
 1325 06bb 4C89E9   		movq	%r13, %rcx
 1326 06be BE010000 		movl	$1, %esi
 1326      00
 1327 06c3 4889DF   		movq	%rbx, %rdi
 1328              		.cfi_escape 0x2e,0x10
 1329 06c6 41FFD4   		call	*%r12
 1330              	.LEHE39:
 1331 06c9 4883C410 		addq	$16, %rsp
 1332 06cd 488D45B0 		leaq	-80(%rbp), %rax
 1333 06d1 4889C7   		movq	%rax, %rdi
 1334              	.LEHB40:
 1335              		.cfi_escape 0x2e,0
 1336 06d4 E8000000 		call	_ZN12SimpleStringD1Ev
 1336      00
 1337              	.LEHE40:
 1338 06d9 488D45C0 		leaq	-64(%rbp), %rax
 1339 06dd 4889C7   		movq	%rax, %rdi
 1340              	.LEHB41:
 1341 06e0 E8000000 		call	_ZN12SimpleStringD1Ev
 1341      00
 1342              	.LEHE41:
 1343 06e5 488D45D0 		leaq	-48(%rbp), %rax
 1344 06e9 4889C7   		movq	%rax, %rdi
 1345              	.LEHB42:
 1346 06ec E8000000 		call	_ZN20NormalTestTerminatorD1Ev
 1346      00
 1347 06f1 EB54     		jmp	.L53
 1348              	.L52:
 1349 06f3 E8000000 		call	_ZN10UtestShell10getCurrentEv
 1349      00
 1350              	.LEHE42:
 1351 06f8 4889C3   		movq	%rax, %rbx
 1352 06fb 488B03   		movq	(%rbx), %rax
 1353 06fe 4883C078 		addq	$120, %rax
 1354 0702 4C8B20   		movq	(%rax), %r12
 1355 0705 48C745D0 		movq	$0, -48(%rbp)
 1355      00000000 
 1356 070d 488D45D0 		leaq	-48(%rbp), %rax
 1357 0711 4889C7   		movq	%rax, %rdi
 1358 0714 E8000000 		call	_ZN20NormalTestTerminatorC1Ev
 1358      00
 1359 0719 488D45D0 		leaq	-48(%rbp), %rax
 1360 071d 4989C1   		movq	%rax, %r9
 1361 0720 41B89100 		movl	$145, %r8d
 1361      0000
 1362 0726 B9000000 		movl	$.LC0, %ecx
GAS LISTING /tmp/ccL6xP0D.s 			page 29


 1362      00
 1363 072b BA000000 		movl	$0, %edx
 1363      00
 1364 0730 BE000000 		movl	$0, %esi
 1364      00
 1365 0735 4889DF   		movq	%rbx, %rdi
 1366              	.LEHB43:
 1367 0738 41FFD4   		call	*%r12
 1368              	.LEHE43:
 1369 073b 488D45D0 		leaq	-48(%rbp), %rax
 1370 073f 4889C7   		movq	%rax, %rdi
 1371              	.LEHB44:
 1372 0742 E8000000 		call	_ZN20NormalTestTerminatorD1Ev
 1372      00
 1373              	.L53:
 1374 0747 488B4588 		movq	-120(%rbp), %rax
 1375 074b 4883C008 		addq	$8, %rax
 1376 074f BE000000 		movl	$0, %esi
 1376      00
 1377 0754 4889C7   		movq	%rax, %rdi
 1378 0757 E8000000 		call	_Z15hsm_handleEventP5hsm_tPK11hsm_event_t
 1378      00
 1379 075c 894594   		movl	%eax, -108(%rbp)
 1380 075f E8000000 		call	_ZN10UtestShell10getCurrentEv
 1380      00
 1381 0764 488B10   		movq	(%rax), %rdx
 1382 0767 4881C288 		addq	$136, %rdx
 1382      000000
 1383 076e 4C8B0A   		movq	(%rdx), %r9
 1384 0771 488B5588 		movq	-120(%rbp), %rdx
 1385 0775 488B5210 		movq	16(%rdx), %rdx
 1386 0779 41B89700 		movl	$151, %r8d
 1386      0000
 1387 077f B9000000 		movl	$.LC0, %ecx
 1387      00
 1388 0784 BE000000 		movl	$onState, %esi
 1388      00
 1389 0789 4889C7   		movq	%rax, %rdi
 1390 078c 41FFD1   		call	*%r9
 1391 078f E8000000 		call	_ZN10UtestShell10getCurrentEv
 1391      00
 1392              	.LEHE44:
 1393 0794 4889C3   		movq	%rax, %rbx
 1394 0797 488B03   		movq	(%rbx), %rax
 1395 079a 4883C078 		addq	$120, %rax
 1396 079e 4C8B20   		movq	(%rax), %r12
 1397 07a1 48C745D0 		movq	$0, -48(%rbp)
 1397      00000000 
 1398 07a9 488D45D0 		leaq	-48(%rbp), %rax
 1399 07ad 4889C7   		movq	%rax, %rdi
 1400 07b0 E8000000 		call	_ZN20NormalTestTerminatorC1Ev
 1400      00
 1401 07b5 488B4588 		movq	-120(%rbp), %rax
 1402 07b9 488B4010 		movq	16(%rax), %rax
 1403 07bd 8B4034   		movl	52(%rax), %eax
 1404 07c0 89C2     		movl	%eax, %edx
 1405 07c2 488D45D0 		leaq	-48(%rbp), %rax
GAS LISTING /tmp/ccL6xP0D.s 			page 30


 1406 07c6 4989C1   		movq	%rax, %r9
 1407 07c9 41B89800 		movl	$152, %r8d
 1407      0000
 1408 07cf B9000000 		movl	$.LC0, %ecx
 1408      00
 1409 07d4 BE020000 		movl	$2, %esi
 1409      00
 1410 07d9 4889DF   		movq	%rbx, %rdi
 1411              	.LEHB45:
 1412 07dc 41FFD4   		call	*%r12
 1413              	.LEHE45:
 1414 07df 488D45D0 		leaq	-48(%rbp), %rax
 1415 07e3 4889C7   		movq	%rax, %rdi
 1416              	.LEHB46:
 1417 07e6 E8000000 		call	_ZN20NormalTestTerminatorD1Ev
 1417      00
 1418 07eb 837D9401 		cmpl	$1, -108(%rbp)
 1419 07ef 0F84B500 		je	.L54
 1419      0000
 1420 07f5 E8000000 		call	_ZN10UtestShell10getCurrentEv
 1420      00
 1421              	.LEHE46:
 1422 07fa 4889C3   		movq	%rax, %rbx
 1423 07fd 488B03   		movq	(%rbx), %rax
 1424 0800 48059800 		addq	$152, %rax
 1424      0000
 1425 0806 4C8B20   		movq	(%rax), %r12
 1426 0809 48C745D0 		movq	$0, -48(%rbp)
 1426      00000000 
 1427 0811 488D45D0 		leaq	-48(%rbp), %rax
 1428 0815 4889C7   		movq	%rax, %rdi
 1429 0818 E8000000 		call	_ZN20NormalTestTerminatorC1Ev
 1429      00
 1430 081d 488D45C0 		leaq	-64(%rbp), %rax
 1431 0821 8B5594   		movl	-108(%rbp), %edx
 1432 0824 89D6     		movl	%edx, %esi
 1433 0826 4889C7   		movq	%rax, %rdi
 1434              	.LEHB47:
 1435 0829 E8000000 		call	_Z10StringFromi
 1435      00
 1436              	.LEHE47:
 1437 082e 488D45C0 		leaq	-64(%rbp), %rax
 1438 0832 4889C7   		movq	%rax, %rdi
 1439              	.LEHB48:
 1440 0835 E8000000 		call	_ZNK12SimpleString12asCharStringEv
 1440      00
 1441 083a 4989C5   		movq	%rax, %r13
 1442 083d 488D45B0 		leaq	-80(%rbp), %rax
 1443 0841 BE010000 		movl	$1, %esi
 1443      00
 1444 0846 4889C7   		movq	%rax, %rdi
 1445 0849 E8000000 		call	_Z10StringFromi
 1445      00
 1446              	.LEHE48:
 1447 084e 488D45B0 		leaq	-80(%rbp), %rax
 1448 0852 4889C7   		movq	%rax, %rdi
 1449              	.LEHB49:
GAS LISTING /tmp/ccL6xP0D.s 			page 31


 1450 0855 E8000000 		call	_ZNK12SimpleString12asCharStringEv
 1450      00
 1451 085a 4889C2   		movq	%rax, %rdx
 1452 085d 4883EC08 		subq	$8, %rsp
 1453 0861 488D45D0 		leaq	-48(%rbp), %rax
 1454 0865 50       		pushq	%rax
 1455 0866 41B99900 		movl	$153, %r9d
 1455      0000
 1456 086c 41B80000 		movl	$.LC0, %r8d
 1456      0000
 1457 0872 4C89E9   		movq	%r13, %rcx
 1458 0875 BE010000 		movl	$1, %esi
 1458      00
 1459 087a 4889DF   		movq	%rbx, %rdi
 1460              		.cfi_escape 0x2e,0x10
 1461 087d 41FFD4   		call	*%r12
 1462              	.LEHE49:
 1463 0880 4883C410 		addq	$16, %rsp
 1464 0884 488D45B0 		leaq	-80(%rbp), %rax
 1465 0888 4889C7   		movq	%rax, %rdi
 1466              	.LEHB50:
 1467              		.cfi_escape 0x2e,0
 1468 088b E8000000 		call	_ZN12SimpleStringD1Ev
 1468      00
 1469              	.LEHE50:
 1470 0890 488D45C0 		leaq	-64(%rbp), %rax
 1471 0894 4889C7   		movq	%rax, %rdi
 1472              	.LEHB51:
 1473 0897 E8000000 		call	_ZN12SimpleStringD1Ev
 1473      00
 1474              	.LEHE51:
 1475 089c 488D45D0 		leaq	-48(%rbp), %rax
 1476 08a0 4889C7   		movq	%rax, %rdi
 1477              	.LEHB52:
 1478 08a3 E8000000 		call	_ZN20NormalTestTerminatorD1Ev
 1478      00
 1479 08a8 EB54     		jmp	.L55
 1480              	.L54:
 1481 08aa E8000000 		call	_ZN10UtestShell10getCurrentEv
 1481      00
 1482              	.LEHE52:
 1483 08af 4889C3   		movq	%rax, %rbx
 1484 08b2 488B03   		movq	(%rbx), %rax
 1485 08b5 4883C078 		addq	$120, %rax
 1486 08b9 4C8B20   		movq	(%rax), %r12
 1487 08bc 48C745D0 		movq	$0, -48(%rbp)
 1487      00000000 
 1488 08c4 488D45D0 		leaq	-48(%rbp), %rax
 1489 08c8 4889C7   		movq	%rax, %rdi
 1490 08cb E8000000 		call	_ZN20NormalTestTerminatorC1Ev
 1490      00
 1491 08d0 488D45D0 		leaq	-48(%rbp), %rax
 1492 08d4 4989C1   		movq	%rax, %r9
 1493 08d7 41B89900 		movl	$153, %r8d
 1493      0000
 1494 08dd B9000000 		movl	$.LC0, %ecx
 1494      00
GAS LISTING /tmp/ccL6xP0D.s 			page 32


 1495 08e2 BA000000 		movl	$0, %edx
 1495      00
 1496 08e7 BE000000 		movl	$0, %esi
 1496      00
 1497 08ec 4889DF   		movq	%rbx, %rdi
 1498              	.LEHB53:
 1499 08ef 41FFD4   		call	*%r12
 1500              	.LEHE53:
 1501 08f2 488D45D0 		leaq	-48(%rbp), %rax
 1502 08f6 4889C7   		movq	%rax, %rdi
 1503              	.LEHB54:
 1504 08f9 E8000000 		call	_ZN20NormalTestTerminatorD1Ev
 1504      00
 1505              	.L55:
 1506 08fe 488B4588 		movq	-120(%rbp), %rax
 1507 0902 4883C008 		addq	$8, %rax
 1508 0906 BE000000 		movl	$0, %esi
 1508      00
 1509 090b 4889C7   		movq	%rax, %rdi
 1510 090e E8000000 		call	_Z15hsm_handleEventP5hsm_tPK11hsm_event_t
 1510      00
 1511 0913 894598   		movl	%eax, -104(%rbp)
 1512 0916 E8000000 		call	_ZN10UtestShell10getCurrentEv
 1512      00
 1513 091b 488B10   		movq	(%rax), %rdx
 1514 091e 4881C288 		addq	$136, %rdx
 1514      000000
 1515 0925 4C8B0A   		movq	(%rdx), %r9
 1516 0928 488B5588 		movq	-120(%rbp), %rdx
 1517 092c 488B5210 		movq	16(%rdx), %rdx
 1518 0930 41B89F00 		movl	$159, %r8d
 1518      0000
 1519 0936 B9000000 		movl	$.LC0, %ecx
 1519      00
 1520 093b BE000000 		movl	$onState, %esi
 1520      00
 1521 0940 4889C7   		movq	%rax, %rdi
 1522 0943 41FFD1   		call	*%r9
 1523 0946 E8000000 		call	_ZN10UtestShell10getCurrentEv
 1523      00
 1524              	.LEHE54:
 1525 094b 4889C3   		movq	%rax, %rbx
 1526 094e 488B03   		movq	(%rbx), %rax
 1527 0951 4883C078 		addq	$120, %rax
 1528 0955 4C8B20   		movq	(%rax), %r12
 1529 0958 48C745D0 		movq	$0, -48(%rbp)
 1529      00000000 
 1530 0960 488D45D0 		leaq	-48(%rbp), %rax
 1531 0964 4889C7   		movq	%rax, %rdi
 1532 0967 E8000000 		call	_ZN20NormalTestTerminatorC1Ev
 1532      00
 1533 096c 488B4588 		movq	-120(%rbp), %rax
 1534 0970 488B4010 		movq	16(%rax), %rax
 1535 0974 8B4034   		movl	52(%rax), %eax
 1536 0977 89C2     		movl	%eax, %edx
 1537 0979 488D45D0 		leaq	-48(%rbp), %rax
 1538 097d 4989C1   		movq	%rax, %r9
GAS LISTING /tmp/ccL6xP0D.s 			page 33


 1539 0980 41B8A000 		movl	$160, %r8d
 1539      0000
 1540 0986 B9000000 		movl	$.LC0, %ecx
 1540      00
 1541 098b BE040000 		movl	$4, %esi
 1541      00
 1542 0990 4889DF   		movq	%rbx, %rdi
 1543              	.LEHB55:
 1544 0993 41FFD4   		call	*%r12
 1545              	.LEHE55:
 1546 0996 488D45D0 		leaq	-48(%rbp), %rax
 1547 099a 4889C7   		movq	%rax, %rdi
 1548              	.LEHB56:
 1549 099d E8000000 		call	_ZN20NormalTestTerminatorD1Ev
 1549      00
 1550 09a2 837D9801 		cmpl	$1, -104(%rbp)
 1551 09a6 0F84B500 		je	.L56
 1551      0000
 1552 09ac E8000000 		call	_ZN10UtestShell10getCurrentEv
 1552      00
 1553              	.LEHE56:
 1554 09b1 4889C3   		movq	%rax, %rbx
 1555 09b4 488B03   		movq	(%rbx), %rax
 1556 09b7 48059800 		addq	$152, %rax
 1556      0000
 1557 09bd 4C8B20   		movq	(%rax), %r12
 1558 09c0 48C745D0 		movq	$0, -48(%rbp)
 1558      00000000 
 1559 09c8 488D45D0 		leaq	-48(%rbp), %rax
 1560 09cc 4889C7   		movq	%rax, %rdi
 1561 09cf E8000000 		call	_ZN20NormalTestTerminatorC1Ev
 1561      00
 1562 09d4 488D45C0 		leaq	-64(%rbp), %rax
 1563 09d8 8B5598   		movl	-104(%rbp), %edx
 1564 09db 89D6     		movl	%edx, %esi
 1565 09dd 4889C7   		movq	%rax, %rdi
 1566              	.LEHB57:
 1567 09e0 E8000000 		call	_Z10StringFromi
 1567      00
 1568              	.LEHE57:
 1569 09e5 488D45C0 		leaq	-64(%rbp), %rax
 1570 09e9 4889C7   		movq	%rax, %rdi
 1571              	.LEHB58:
 1572 09ec E8000000 		call	_ZNK12SimpleString12asCharStringEv
 1572      00
 1573 09f1 4989C5   		movq	%rax, %r13
 1574 09f4 488D45B0 		leaq	-80(%rbp), %rax
 1575 09f8 BE010000 		movl	$1, %esi
 1575      00
 1576 09fd 4889C7   		movq	%rax, %rdi
 1577 0a00 E8000000 		call	_Z10StringFromi
 1577      00
 1578              	.LEHE58:
 1579 0a05 488D45B0 		leaq	-80(%rbp), %rax
 1580 0a09 4889C7   		movq	%rax, %rdi
 1581              	.LEHB59:
 1582 0a0c E8000000 		call	_ZNK12SimpleString12asCharStringEv
GAS LISTING /tmp/ccL6xP0D.s 			page 34


 1582      00
 1583 0a11 4889C2   		movq	%rax, %rdx
 1584 0a14 4883EC08 		subq	$8, %rsp
 1585 0a18 488D45D0 		leaq	-48(%rbp), %rax
 1586 0a1c 50       		pushq	%rax
 1587 0a1d 41B9A100 		movl	$161, %r9d
 1587      0000
 1588 0a23 41B80000 		movl	$.LC0, %r8d
 1588      0000
 1589 0a29 4C89E9   		movq	%r13, %rcx
 1590 0a2c BE010000 		movl	$1, %esi
 1590      00
 1591 0a31 4889DF   		movq	%rbx, %rdi
 1592              		.cfi_escape 0x2e,0x10
 1593 0a34 41FFD4   		call	*%r12
 1594              	.LEHE59:
 1595 0a37 4883C410 		addq	$16, %rsp
 1596 0a3b 488D45B0 		leaq	-80(%rbp), %rax
 1597 0a3f 4889C7   		movq	%rax, %rdi
 1598              	.LEHB60:
 1599              		.cfi_escape 0x2e,0
 1600 0a42 E8000000 		call	_ZN12SimpleStringD1Ev
 1600      00
 1601              	.LEHE60:
 1602 0a47 488D45C0 		leaq	-64(%rbp), %rax
 1603 0a4b 4889C7   		movq	%rax, %rdi
 1604              	.LEHB61:
 1605 0a4e E8000000 		call	_ZN12SimpleStringD1Ev
 1605      00
 1606              	.LEHE61:
 1607 0a53 488D45D0 		leaq	-48(%rbp), %rax
 1608 0a57 4889C7   		movq	%rax, %rdi
 1609              	.LEHB62:
 1610 0a5a E8000000 		call	_ZN20NormalTestTerminatorD1Ev
 1610      00
 1611 0a5f EB54     		jmp	.L57
 1612              	.L56:
 1613 0a61 E8000000 		call	_ZN10UtestShell10getCurrentEv
 1613      00
 1614              	.LEHE62:
 1615 0a66 4889C3   		movq	%rax, %rbx
 1616 0a69 488B03   		movq	(%rbx), %rax
 1617 0a6c 4883C078 		addq	$120, %rax
 1618 0a70 4C8B20   		movq	(%rax), %r12
 1619 0a73 48C745D0 		movq	$0, -48(%rbp)
 1619      00000000 
 1620 0a7b 488D45D0 		leaq	-48(%rbp), %rax
 1621 0a7f 4889C7   		movq	%rax, %rdi
 1622 0a82 E8000000 		call	_ZN20NormalTestTerminatorC1Ev
 1622      00
 1623 0a87 488D45D0 		leaq	-48(%rbp), %rax
 1624 0a8b 4989C1   		movq	%rax, %r9
 1625 0a8e 41B8A100 		movl	$161, %r8d
 1625      0000
 1626 0a94 B9000000 		movl	$.LC0, %ecx
 1626      00
 1627 0a99 BA000000 		movl	$0, %edx
GAS LISTING /tmp/ccL6xP0D.s 			page 35


 1627      00
 1628 0a9e BE000000 		movl	$0, %esi
 1628      00
 1629 0aa3 4889DF   		movq	%rbx, %rdi
 1630              	.LEHB63:
 1631 0aa6 41FFD4   		call	*%r12
 1632              	.LEHE63:
 1633 0aa9 488D45D0 		leaq	-48(%rbp), %rax
 1634 0aad 4889C7   		movq	%rax, %rdi
 1635              	.LEHB64:
 1636 0ab0 E8000000 		call	_ZN20NormalTestTerminatorD1Ev
 1636      00
 1637              	.L57:
 1638 0ab5 488B4588 		movq	-120(%rbp), %rax
 1639 0ab9 4883C008 		addq	$8, %rax
 1640 0abd BE000000 		movl	$0, %esi
 1640      00
 1641 0ac2 4889C7   		movq	%rax, %rdi
 1642 0ac5 E8000000 		call	_Z15hsm_handleEventP5hsm_tPK11hsm_event_t
 1642      00
 1643 0aca 89459C   		movl	%eax, -100(%rbp)
 1644 0acd E8000000 		call	_ZN10UtestShell10getCurrentEv
 1644      00
 1645              	.LEHE64:
 1646 0ad2 4889C3   		movq	%rax, %rbx
 1647 0ad5 488B03   		movq	(%rbx), %rax
 1648 0ad8 4883C078 		addq	$120, %rax
 1649 0adc 4C8B20   		movq	(%rax), %r12
 1650 0adf 48C745D0 		movq	$0, -48(%rbp)
 1650      00000000 
 1651 0ae7 488D45D0 		leaq	-48(%rbp), %rax
 1652 0aeb 4889C7   		movq	%rax, %rdi
 1653 0aee E8000000 		call	_ZN20NormalTestTerminatorC1Ev
 1653      00
 1654 0af3 8B050000 		movl	onState+52(%rip), %eax
 1654      0000
 1655 0af9 89C2     		movl	%eax, %edx
 1656 0afb 488D45D0 		leaq	-48(%rbp), %rax
 1657 0aff 4989C1   		movq	%rax, %r9
 1658 0b02 41B8A700 		movl	$167, %r8d
 1658      0000
 1659 0b08 B9000000 		movl	$.LC0, %ecx
 1659      00
 1660 0b0d BE000000 		movl	$0, %esi
 1660      00
 1661 0b12 4889DF   		movq	%rbx, %rdi
 1662              	.LEHB65:
 1663 0b15 41FFD4   		call	*%r12
 1664              	.LEHE65:
 1665 0b18 488D45D0 		leaq	-48(%rbp), %rax
 1666 0b1c 4889C7   		movq	%rax, %rdi
 1667              	.LEHB66:
 1668 0b1f E8000000 		call	_ZN20NormalTestTerminatorD1Ev
 1668      00
 1669 0b24 E8000000 		call	_ZN10UtestShell10getCurrentEv
 1669      00
 1670 0b29 488B10   		movq	(%rax), %rdx
GAS LISTING /tmp/ccL6xP0D.s 			page 36


 1671 0b2c 4881C288 		addq	$136, %rdx
 1671      000000
 1672 0b33 4C8B0A   		movq	(%rdx), %r9
 1673 0b36 488B5588 		movq	-120(%rbp), %rdx
 1674 0b3a 488B5210 		movq	16(%rdx), %rdx
 1675 0b3e 41B8A800 		movl	$168, %r8d
 1675      0000
 1676 0b44 B9000000 		movl	$.LC0, %ecx
 1676      00
 1677 0b49 BE000000 		movl	$offState, %esi
 1677      00
 1678 0b4e 4889C7   		movq	%rax, %rdi
 1679 0b51 41FFD1   		call	*%r9
 1680 0b54 E8000000 		call	_ZN10UtestShell10getCurrentEv
 1680      00
 1681              	.LEHE66:
 1682 0b59 4889C3   		movq	%rax, %rbx
 1683 0b5c 488B03   		movq	(%rbx), %rax
 1684 0b5f 4883C078 		addq	$120, %rax
 1685 0b63 4C8B20   		movq	(%rax), %r12
 1686 0b66 48C745D0 		movq	$0, -48(%rbp)
 1686      00000000 
 1687 0b6e 488D45D0 		leaq	-48(%rbp), %rax
 1688 0b72 4889C7   		movq	%rax, %rdi
 1689 0b75 E8000000 		call	_ZN20NormalTestTerminatorC1Ev
 1689      00
 1690 0b7a 488B4588 		movq	-120(%rbp), %rax
 1691 0b7e 488B4010 		movq	16(%rax), %rax
 1692 0b82 8B4034   		movl	52(%rax), %eax
 1693 0b85 89C2     		movl	%eax, %edx
 1694 0b87 488D45D0 		leaq	-48(%rbp), %rax
 1695 0b8b 4989C1   		movq	%rax, %r9
 1696 0b8e 41B8A900 		movl	$169, %r8d
 1696      0000
 1697 0b94 B9000000 		movl	$.LC0, %ecx
 1697      00
 1698 0b99 BE000000 		movl	$0, %esi
 1698      00
 1699 0b9e 4889DF   		movq	%rbx, %rdi
 1700              	.LEHB67:
 1701 0ba1 41FFD4   		call	*%r12
 1702              	.LEHE67:
 1703 0ba4 488D45D0 		leaq	-48(%rbp), %rax
 1704 0ba8 4889C7   		movq	%rax, %rdi
 1705              	.LEHB68:
 1706 0bab E8000000 		call	_ZN20NormalTestTerminatorD1Ev
 1706      00
 1707 0bb0 837D9C01 		cmpl	$1, -100(%rbp)
 1708 0bb4 0F84B500 		je	.L58
 1708      0000
 1709 0bba E8000000 		call	_ZN10UtestShell10getCurrentEv
 1709      00
 1710              	.LEHE68:
 1711 0bbf 4889C3   		movq	%rax, %rbx
 1712 0bc2 488B03   		movq	(%rbx), %rax
 1713 0bc5 48059800 		addq	$152, %rax
 1713      0000
GAS LISTING /tmp/ccL6xP0D.s 			page 37


 1714 0bcb 4C8B20   		movq	(%rax), %r12
 1715 0bce 48C745D0 		movq	$0, -48(%rbp)
 1715      00000000 
 1716 0bd6 488D45D0 		leaq	-48(%rbp), %rax
 1717 0bda 4889C7   		movq	%rax, %rdi
 1718 0bdd E8000000 		call	_ZN20NormalTestTerminatorC1Ev
 1718      00
 1719 0be2 488D45C0 		leaq	-64(%rbp), %rax
 1720 0be6 8B559C   		movl	-100(%rbp), %edx
 1721 0be9 89D6     		movl	%edx, %esi
 1722 0beb 4889C7   		movq	%rax, %rdi
 1723              	.LEHB69:
 1724 0bee E8000000 		call	_Z10StringFromi
 1724      00
 1725              	.LEHE69:
 1726 0bf3 488D45C0 		leaq	-64(%rbp), %rax
 1727 0bf7 4889C7   		movq	%rax, %rdi
 1728              	.LEHB70:
 1729 0bfa E8000000 		call	_ZNK12SimpleString12asCharStringEv
 1729      00
 1730 0bff 4989C5   		movq	%rax, %r13
 1731 0c02 488D45B0 		leaq	-80(%rbp), %rax
 1732 0c06 BE010000 		movl	$1, %esi
 1732      00
 1733 0c0b 4889C7   		movq	%rax, %rdi
 1734 0c0e E8000000 		call	_Z10StringFromi
 1734      00
 1735              	.LEHE70:
 1736 0c13 488D45B0 		leaq	-80(%rbp), %rax
 1737 0c17 4889C7   		movq	%rax, %rdi
 1738              	.LEHB71:
 1739 0c1a E8000000 		call	_ZNK12SimpleString12asCharStringEv
 1739      00
 1740 0c1f 4889C2   		movq	%rax, %rdx
 1741 0c22 4883EC08 		subq	$8, %rsp
 1742 0c26 488D45D0 		leaq	-48(%rbp), %rax
 1743 0c2a 50       		pushq	%rax
 1744 0c2b 41B9AA00 		movl	$170, %r9d
 1744      0000
 1745 0c31 41B80000 		movl	$.LC0, %r8d
 1745      0000
 1746 0c37 4C89E9   		movq	%r13, %rcx
 1747 0c3a BE010000 		movl	$1, %esi
 1747      00
 1748 0c3f 4889DF   		movq	%rbx, %rdi
 1749              		.cfi_escape 0x2e,0x10
 1750 0c42 41FFD4   		call	*%r12
 1751              	.LEHE71:
 1752 0c45 4883C410 		addq	$16, %rsp
 1753 0c49 488D45B0 		leaq	-80(%rbp), %rax
 1754 0c4d 4889C7   		movq	%rax, %rdi
 1755              	.LEHB72:
 1756              		.cfi_escape 0x2e,0
 1757 0c50 E8000000 		call	_ZN12SimpleStringD1Ev
 1757      00
 1758              	.LEHE72:
 1759 0c55 488D45C0 		leaq	-64(%rbp), %rax
GAS LISTING /tmp/ccL6xP0D.s 			page 38


 1760 0c59 4889C7   		movq	%rax, %rdi
 1761              	.LEHB73:
 1762 0c5c E8000000 		call	_ZN12SimpleStringD1Ev
 1762      00
 1763              	.LEHE73:
 1764 0c61 488D45D0 		leaq	-48(%rbp), %rax
 1765 0c65 4889C7   		movq	%rax, %rdi
 1766              	.LEHB74:
 1767 0c68 E8000000 		call	_ZN20NormalTestTerminatorD1Ev
 1767      00
 1768 0c6d EB54     		jmp	.L59
 1769              	.L58:
 1770 0c6f E8000000 		call	_ZN10UtestShell10getCurrentEv
 1770      00
 1771              	.LEHE74:
 1772 0c74 4889C3   		movq	%rax, %rbx
 1773 0c77 488B03   		movq	(%rbx), %rax
 1774 0c7a 4883C078 		addq	$120, %rax
 1775 0c7e 4C8B20   		movq	(%rax), %r12
 1776 0c81 48C745D0 		movq	$0, -48(%rbp)
 1776      00000000 
 1777 0c89 488D45D0 		leaq	-48(%rbp), %rax
 1778 0c8d 4889C7   		movq	%rax, %rdi
 1779 0c90 E8000000 		call	_ZN20NormalTestTerminatorC1Ev
 1779      00
 1780 0c95 488D45D0 		leaq	-48(%rbp), %rax
 1781 0c99 4989C1   		movq	%rax, %r9
 1782 0c9c 41B8AA00 		movl	$170, %r8d
 1782      0000
 1783 0ca2 B9000000 		movl	$.LC0, %ecx
 1783      00
 1784 0ca7 BA000000 		movl	$0, %edx
 1784      00
 1785 0cac BE000000 		movl	$0, %esi
 1785      00
 1786 0cb1 4889DF   		movq	%rbx, %rdi
 1787              	.LEHB75:
 1788 0cb4 41FFD4   		call	*%r12
 1789              	.LEHE75:
 1790 0cb7 488D45D0 		leaq	-48(%rbp), %rax
 1791 0cbb 4889C7   		movq	%rax, %rdi
 1792              	.LEHB76:
 1793 0cbe E8000000 		call	_ZN20NormalTestTerminatorD1Ev
 1793      00
 1794              	.L59:
 1795 0cc3 488B4588 		movq	-120(%rbp), %rax
 1796 0cc7 4883C008 		addq	$8, %rax
 1797 0ccb BE000000 		movl	$0, %esi
 1797      00
 1798 0cd0 4889C7   		movq	%rax, %rdi
 1799 0cd3 E8000000 		call	_Z15hsm_handleEventP5hsm_tPK11hsm_event_t
 1799      00
 1800 0cd8 8945A0   		movl	%eax, -96(%rbp)
 1801 0cdb E8000000 		call	_ZN10UtestShell10getCurrentEv
 1801      00
 1802 0ce0 488B10   		movq	(%rax), %rdx
 1803 0ce3 4881C288 		addq	$136, %rdx
GAS LISTING /tmp/ccL6xP0D.s 			page 39


 1803      000000
 1804 0cea 4C8B0A   		movq	(%rdx), %r9
 1805 0ced 488B5588 		movq	-120(%rbp), %rdx
 1806 0cf1 488B5210 		movq	16(%rdx), %rdx
 1807 0cf5 41B8B000 		movl	$176, %r8d
 1807      0000
 1808 0cfb B9000000 		movl	$.LC0, %ecx
 1808      00
 1809 0d00 BE000000 		movl	$offState, %esi
 1809      00
 1810 0d05 4889C7   		movq	%rax, %rdi
 1811 0d08 41FFD1   		call	*%r9
 1812 0d0b E8000000 		call	_ZN10UtestShell10getCurrentEv
 1812      00
 1813              	.LEHE76:
 1814 0d10 4889C3   		movq	%rax, %rbx
 1815 0d13 488B03   		movq	(%rbx), %rax
 1816 0d16 4883C078 		addq	$120, %rax
 1817 0d1a 4C8B20   		movq	(%rax), %r12
 1818 0d1d 48C745D0 		movq	$0, -48(%rbp)
 1818      00000000 
 1819 0d25 488D45D0 		leaq	-48(%rbp), %rax
 1820 0d29 4889C7   		movq	%rax, %rdi
 1821 0d2c E8000000 		call	_ZN20NormalTestTerminatorC1Ev
 1821      00
 1822 0d31 488B4588 		movq	-120(%rbp), %rax
 1823 0d35 488B4010 		movq	16(%rax), %rax
 1824 0d39 8B4034   		movl	52(%rax), %eax
 1825 0d3c 89C2     		movl	%eax, %edx
 1826 0d3e 488D45D0 		leaq	-48(%rbp), %rax
 1827 0d42 4989C1   		movq	%rax, %r9
 1828 0d45 41B8B100 		movl	$177, %r8d
 1828      0000
 1829 0d4b B9000000 		movl	$.LC0, %ecx
 1829      00
 1830 0d50 BE010000 		movl	$1, %esi
 1830      00
 1831 0d55 4889DF   		movq	%rbx, %rdi
 1832              	.LEHB77:
 1833 0d58 41FFD4   		call	*%r12
 1834              	.LEHE77:
 1835 0d5b 488D45D0 		leaq	-48(%rbp), %rax
 1836 0d5f 4889C7   		movq	%rax, %rdi
 1837              	.LEHB78:
 1838 0d62 E8000000 		call	_ZN20NormalTestTerminatorD1Ev
 1838      00
 1839 0d67 837DA001 		cmpl	$1, -96(%rbp)
 1840 0d6b 0F84B500 		je	.L60
 1840      0000
 1841 0d71 E8000000 		call	_ZN10UtestShell10getCurrentEv
 1841      00
 1842              	.LEHE78:
 1843 0d76 4889C3   		movq	%rax, %rbx
 1844 0d79 488B03   		movq	(%rbx), %rax
 1845 0d7c 48059800 		addq	$152, %rax
 1845      0000
 1846 0d82 4C8B20   		movq	(%rax), %r12
GAS LISTING /tmp/ccL6xP0D.s 			page 40


 1847 0d85 48C745D0 		movq	$0, -48(%rbp)
 1847      00000000 
 1848 0d8d 488D45D0 		leaq	-48(%rbp), %rax
 1849 0d91 4889C7   		movq	%rax, %rdi
 1850 0d94 E8000000 		call	_ZN20NormalTestTerminatorC1Ev
 1850      00
 1851 0d99 488D45C0 		leaq	-64(%rbp), %rax
 1852 0d9d 8B55A0   		movl	-96(%rbp), %edx
 1853 0da0 89D6     		movl	%edx, %esi
 1854 0da2 4889C7   		movq	%rax, %rdi
 1855              	.LEHB79:
 1856 0da5 E8000000 		call	_Z10StringFromi
 1856      00
 1857              	.LEHE79:
 1858 0daa 488D45C0 		leaq	-64(%rbp), %rax
 1859 0dae 4889C7   		movq	%rax, %rdi
 1860              	.LEHB80:
 1861 0db1 E8000000 		call	_ZNK12SimpleString12asCharStringEv
 1861      00
 1862 0db6 4989C5   		movq	%rax, %r13
 1863 0db9 488D45B0 		leaq	-80(%rbp), %rax
 1864 0dbd BE010000 		movl	$1, %esi
 1864      00
 1865 0dc2 4889C7   		movq	%rax, %rdi
 1866 0dc5 E8000000 		call	_Z10StringFromi
 1866      00
 1867              	.LEHE80:
 1868 0dca 488D45B0 		leaq	-80(%rbp), %rax
 1869 0dce 4889C7   		movq	%rax, %rdi
 1870              	.LEHB81:
 1871 0dd1 E8000000 		call	_ZNK12SimpleString12asCharStringEv
 1871      00
 1872 0dd6 4889C2   		movq	%rax, %rdx
 1873 0dd9 4883EC08 		subq	$8, %rsp
 1874 0ddd 488D45D0 		leaq	-48(%rbp), %rax
 1875 0de1 50       		pushq	%rax
 1876 0de2 41B9B200 		movl	$178, %r9d
 1876      0000
 1877 0de8 41B80000 		movl	$.LC0, %r8d
 1877      0000
 1878 0dee 4C89E9   		movq	%r13, %rcx
 1879 0df1 BE010000 		movl	$1, %esi
 1879      00
 1880 0df6 4889DF   		movq	%rbx, %rdi
 1881              		.cfi_escape 0x2e,0x10
 1882 0df9 41FFD4   		call	*%r12
 1883              	.LEHE81:
 1884 0dfc 4883C410 		addq	$16, %rsp
 1885 0e00 488D45B0 		leaq	-80(%rbp), %rax
 1886 0e04 4889C7   		movq	%rax, %rdi
 1887              	.LEHB82:
 1888              		.cfi_escape 0x2e,0
 1889 0e07 E8000000 		call	_ZN12SimpleStringD1Ev
 1889      00
 1890              	.LEHE82:
 1891 0e0c 488D45C0 		leaq	-64(%rbp), %rax
 1892 0e10 4889C7   		movq	%rax, %rdi
GAS LISTING /tmp/ccL6xP0D.s 			page 41


 1893              	.LEHB83:
 1894 0e13 E8000000 		call	_ZN12SimpleStringD1Ev
 1894      00
 1895              	.LEHE83:
 1896 0e18 488D45D0 		leaq	-48(%rbp), %rax
 1897 0e1c 4889C7   		movq	%rax, %rdi
 1898              	.LEHB84:
 1899 0e1f E8000000 		call	_ZN20NormalTestTerminatorD1Ev
 1899      00
 1900 0e24 EB54     		jmp	.L61
 1901              	.L60:
 1902 0e26 E8000000 		call	_ZN10UtestShell10getCurrentEv
 1902      00
 1903              	.LEHE84:
 1904 0e2b 4889C3   		movq	%rax, %rbx
 1905 0e2e 488B03   		movq	(%rbx), %rax
 1906 0e31 4883C078 		addq	$120, %rax
 1907 0e35 4C8B20   		movq	(%rax), %r12
 1908 0e38 48C745D0 		movq	$0, -48(%rbp)
 1908      00000000 
 1909 0e40 488D45D0 		leaq	-48(%rbp), %rax
 1910 0e44 4889C7   		movq	%rax, %rdi
 1911 0e47 E8000000 		call	_ZN20NormalTestTerminatorC1Ev
 1911      00
 1912 0e4c 488D45D0 		leaq	-48(%rbp), %rax
 1913 0e50 4989C1   		movq	%rax, %r9
 1914 0e53 41B8B200 		movl	$178, %r8d
 1914      0000
 1915 0e59 B9000000 		movl	$.LC0, %ecx
 1915      00
 1916 0e5e BA000000 		movl	$0, %edx
 1916      00
 1917 0e63 BE000000 		movl	$0, %esi
 1917      00
 1918 0e68 4889DF   		movq	%rbx, %rdi
 1919              	.LEHB85:
 1920 0e6b 41FFD4   		call	*%r12
 1921              	.LEHE85:
 1922 0e6e 488D45D0 		leaq	-48(%rbp), %rax
 1923 0e72 4889C7   		movq	%rax, %rdi
 1924              	.LEHB86:
 1925 0e75 E8000000 		call	_ZN20NormalTestTerminatorD1Ev
 1925      00
 1926              	.L61:
 1927 0e7a 488B4588 		movq	-120(%rbp), %rax
 1928 0e7e 4883C008 		addq	$8, %rax
 1929 0e82 BE000000 		movl	$0, %esi
 1929      00
 1930 0e87 4889C7   		movq	%rax, %rdi
 1931 0e8a E8000000 		call	_Z15hsm_handleEventP5hsm_tPK11hsm_event_t
 1931      00
 1932 0e8f 8945A4   		movl	%eax, -92(%rbp)
 1933 0e92 E8000000 		call	_ZN10UtestShell10getCurrentEv
 1933      00
 1934 0e97 488B10   		movq	(%rax), %rdx
 1935 0e9a 4881C288 		addq	$136, %rdx
 1935      000000
GAS LISTING /tmp/ccL6xP0D.s 			page 42


 1936 0ea1 4C8B0A   		movq	(%rdx), %r9
 1937 0ea4 488B5588 		movq	-120(%rbp), %rdx
 1938 0ea8 488B5210 		movq	16(%rdx), %rdx
 1939 0eac 41B8B800 		movl	$184, %r8d
 1939      0000
 1940 0eb2 B9000000 		movl	$.LC0, %ecx
 1940      00
 1941 0eb7 BE000000 		movl	$offState, %esi
 1941      00
 1942 0ebc 4889C7   		movq	%rax, %rdi
 1943 0ebf 41FFD1   		call	*%r9
 1944 0ec2 E8000000 		call	_ZN10UtestShell10getCurrentEv
 1944      00
 1945              	.LEHE86:
 1946 0ec7 4889C3   		movq	%rax, %rbx
 1947 0eca 488B03   		movq	(%rbx), %rax
 1948 0ecd 4883C078 		addq	$120, %rax
 1949 0ed1 4C8B20   		movq	(%rax), %r12
 1950 0ed4 48C745D0 		movq	$0, -48(%rbp)
 1950      00000000 
 1951 0edc 488D45D0 		leaq	-48(%rbp), %rax
 1952 0ee0 4889C7   		movq	%rax, %rdi
 1953 0ee3 E8000000 		call	_ZN20NormalTestTerminatorC1Ev
 1953      00
 1954 0ee8 488B4588 		movq	-120(%rbp), %rax
 1955 0eec 488B4010 		movq	16(%rax), %rax
 1956 0ef0 8B4034   		movl	52(%rax), %eax
 1957 0ef3 89C2     		movl	%eax, %edx
 1958 0ef5 488D45D0 		leaq	-48(%rbp), %rax
 1959 0ef9 4989C1   		movq	%rax, %r9
 1960 0efc 41B8B900 		movl	$185, %r8d
 1960      0000
 1961 0f02 B9000000 		movl	$.LC0, %ecx
 1961      00
 1962 0f07 BE020000 		movl	$2, %esi
 1962      00
 1963 0f0c 4889DF   		movq	%rbx, %rdi
 1964              	.LEHB87:
 1965 0f0f 41FFD4   		call	*%r12
 1966              	.LEHE87:
 1967 0f12 488D45D0 		leaq	-48(%rbp), %rax
 1968 0f16 4889C7   		movq	%rax, %rdi
 1969              	.LEHB88:
 1970 0f19 E8000000 		call	_ZN20NormalTestTerminatorD1Ev
 1970      00
 1971 0f1e 837DA401 		cmpl	$1, -92(%rbp)
 1972 0f22 0F84B500 		je	.L62
 1972      0000
 1973 0f28 E8000000 		call	_ZN10UtestShell10getCurrentEv
 1973      00
 1974              	.LEHE88:
 1975 0f2d 4889C3   		movq	%rax, %rbx
 1976 0f30 488B03   		movq	(%rbx), %rax
 1977 0f33 48059800 		addq	$152, %rax
 1977      0000
 1978 0f39 4C8B20   		movq	(%rax), %r12
 1979 0f3c 48C745D0 		movq	$0, -48(%rbp)
GAS LISTING /tmp/ccL6xP0D.s 			page 43


 1979      00000000 
 1980 0f44 488D45D0 		leaq	-48(%rbp), %rax
 1981 0f48 4889C7   		movq	%rax, %rdi
 1982 0f4b E8000000 		call	_ZN20NormalTestTerminatorC1Ev
 1982      00
 1983 0f50 488D45C0 		leaq	-64(%rbp), %rax
 1984 0f54 8B55A4   		movl	-92(%rbp), %edx
 1985 0f57 89D6     		movl	%edx, %esi
 1986 0f59 4889C7   		movq	%rax, %rdi
 1987              	.LEHB89:
 1988 0f5c E8000000 		call	_Z10StringFromi
 1988      00
 1989              	.LEHE89:
 1990 0f61 488D45C0 		leaq	-64(%rbp), %rax
 1991 0f65 4889C7   		movq	%rax, %rdi
 1992              	.LEHB90:
 1993 0f68 E8000000 		call	_ZNK12SimpleString12asCharStringEv
 1993      00
 1994 0f6d 4989C5   		movq	%rax, %r13
 1995 0f70 488D45B0 		leaq	-80(%rbp), %rax
 1996 0f74 BE010000 		movl	$1, %esi
 1996      00
 1997 0f79 4889C7   		movq	%rax, %rdi
 1998 0f7c E8000000 		call	_Z10StringFromi
 1998      00
 1999              	.LEHE90:
 2000 0f81 488D45B0 		leaq	-80(%rbp), %rax
 2001 0f85 4889C7   		movq	%rax, %rdi
 2002              	.LEHB91:
 2003 0f88 E8000000 		call	_ZNK12SimpleString12asCharStringEv
 2003      00
 2004 0f8d 4889C2   		movq	%rax, %rdx
 2005 0f90 4883EC08 		subq	$8, %rsp
 2006 0f94 488D45D0 		leaq	-48(%rbp), %rax
 2007 0f98 50       		pushq	%rax
 2008 0f99 41B9BA00 		movl	$186, %r9d
 2008      0000
 2009 0f9f 41B80000 		movl	$.LC0, %r8d
 2009      0000
 2010 0fa5 4C89E9   		movq	%r13, %rcx
 2011 0fa8 BE010000 		movl	$1, %esi
 2011      00
 2012 0fad 4889DF   		movq	%rbx, %rdi
 2013              		.cfi_escape 0x2e,0x10
 2014 0fb0 41FFD4   		call	*%r12
 2015              	.LEHE91:
 2016 0fb3 4883C410 		addq	$16, %rsp
 2017 0fb7 488D45B0 		leaq	-80(%rbp), %rax
 2018 0fbb 4889C7   		movq	%rax, %rdi
 2019              	.LEHB92:
 2020              		.cfi_escape 0x2e,0
 2021 0fbe E8000000 		call	_ZN12SimpleStringD1Ev
 2021      00
 2022              	.LEHE92:
 2023 0fc3 488D45C0 		leaq	-64(%rbp), %rax
 2024 0fc7 4889C7   		movq	%rax, %rdi
 2025              	.LEHB93:
GAS LISTING /tmp/ccL6xP0D.s 			page 44


 2026 0fca E8000000 		call	_ZN12SimpleStringD1Ev
 2026      00
 2027              	.LEHE93:
 2028 0fcf 488D45D0 		leaq	-48(%rbp), %rax
 2029 0fd3 4889C7   		movq	%rax, %rdi
 2030              	.LEHB94:
 2031 0fd6 E8000000 		call	_ZN20NormalTestTerminatorD1Ev
 2031      00
 2032 0fdb EB54     		jmp	.L63
 2033              	.L62:
 2034 0fdd E8000000 		call	_ZN10UtestShell10getCurrentEv
 2034      00
 2035              	.LEHE94:
 2036 0fe2 4889C3   		movq	%rax, %rbx
 2037 0fe5 488B03   		movq	(%rbx), %rax
 2038 0fe8 4883C078 		addq	$120, %rax
 2039 0fec 4C8B20   		movq	(%rax), %r12
 2040 0fef 48C745D0 		movq	$0, -48(%rbp)
 2040      00000000 
 2041 0ff7 488D45D0 		leaq	-48(%rbp), %rax
 2042 0ffb 4889C7   		movq	%rax, %rdi
 2043 0ffe E8000000 		call	_ZN20NormalTestTerminatorC1Ev
 2043      00
 2044 1003 488D45D0 		leaq	-48(%rbp), %rax
 2045 1007 4989C1   		movq	%rax, %r9
 2046 100a 41B8BA00 		movl	$186, %r8d
 2046      0000
 2047 1010 B9000000 		movl	$.LC0, %ecx
 2047      00
 2048 1015 BA000000 		movl	$0, %edx
 2048      00
 2049 101a BE000000 		movl	$0, %esi
 2049      00
 2050 101f 4889DF   		movq	%rbx, %rdi
 2051              	.LEHB95:
 2052 1022 41FFD4   		call	*%r12
 2053              	.LEHE95:
 2054 1025 488D45D0 		leaq	-48(%rbp), %rax
 2055 1029 4889C7   		movq	%rax, %rdi
 2056              	.LEHB96:
 2057 102c E8000000 		call	_ZN20NormalTestTerminatorD1Ev
 2057      00
 2058              	.L63:
 2059 1031 488B4588 		movq	-120(%rbp), %rax
 2060 1035 4883C008 		addq	$8, %rax
 2061 1039 BE000000 		movl	$0, %esi
 2061      00
 2062 103e 4889C7   		movq	%rax, %rdi
 2063 1041 E8000000 		call	_Z15hsm_handleEventP5hsm_tPK11hsm_event_t
 2063      00
 2064 1046 8945A8   		movl	%eax, -88(%rbp)
 2065 1049 E8000000 		call	_ZN10UtestShell10getCurrentEv
 2065      00
 2066 104e 488B10   		movq	(%rax), %rdx
 2067 1051 4881C288 		addq	$136, %rdx
 2067      000000
 2068 1058 4C8B0A   		movq	(%rdx), %r9
GAS LISTING /tmp/ccL6xP0D.s 			page 45


 2069 105b 488B5588 		movq	-120(%rbp), %rdx
 2070 105f 488B5210 		movq	16(%rdx), %rdx
 2071 1063 41B8C000 		movl	$192, %r8d
 2071      0000
 2072 1069 B9000000 		movl	$.LC0, %ecx
 2072      00
 2073 106e BE000000 		movl	$offState, %esi
 2073      00
 2074 1073 4889C7   		movq	%rax, %rdi
 2075 1076 41FFD1   		call	*%r9
 2076 1079 E8000000 		call	_ZN10UtestShell10getCurrentEv
 2076      00
 2077              	.LEHE96:
 2078 107e 4889C3   		movq	%rax, %rbx
 2079 1081 488B03   		movq	(%rbx), %rax
 2080 1084 4883C078 		addq	$120, %rax
 2081 1088 4C8B20   		movq	(%rax), %r12
 2082 108b 48C745D0 		movq	$0, -48(%rbp)
 2082      00000000 
 2083 1093 488D45D0 		leaq	-48(%rbp), %rax
 2084 1097 4889C7   		movq	%rax, %rdi
 2085 109a E8000000 		call	_ZN20NormalTestTerminatorC1Ev
 2085      00
 2086 109f 488B4588 		movq	-120(%rbp), %rax
 2087 10a3 488B4010 		movq	16(%rax), %rax
 2088 10a7 8B4034   		movl	52(%rax), %eax
 2089 10aa 89C2     		movl	%eax, %edx
 2090 10ac 488D45D0 		leaq	-48(%rbp), %rax
 2091 10b0 4989C1   		movq	%rax, %r9
 2092 10b3 41B8C100 		movl	$193, %r8d
 2092      0000
 2093 10b9 B9000000 		movl	$.LC0, %ecx
 2093      00
 2094 10be BE040000 		movl	$4, %esi
 2094      00
 2095 10c3 4889DF   		movq	%rbx, %rdi
 2096              	.LEHB97:
 2097 10c6 41FFD4   		call	*%r12
 2098              	.LEHE97:
 2099 10c9 488D45D0 		leaq	-48(%rbp), %rax
 2100 10cd 4889C7   		movq	%rax, %rdi
 2101              	.LEHB98:
 2102 10d0 E8000000 		call	_ZN20NormalTestTerminatorD1Ev
 2102      00
 2103 10d5 837DA801 		cmpl	$1, -88(%rbp)
 2104 10d9 0F84B500 		je	.L64
 2104      0000
 2105 10df E8000000 		call	_ZN10UtestShell10getCurrentEv
 2105      00
 2106              	.LEHE98:
 2107 10e4 4889C3   		movq	%rax, %rbx
 2108 10e7 488B03   		movq	(%rbx), %rax
 2109 10ea 48059800 		addq	$152, %rax
 2109      0000
 2110 10f0 4C8B20   		movq	(%rax), %r12
 2111 10f3 48C745D0 		movq	$0, -48(%rbp)
 2111      00000000 
GAS LISTING /tmp/ccL6xP0D.s 			page 46


 2112 10fb 488D45D0 		leaq	-48(%rbp), %rax
 2113 10ff 4889C7   		movq	%rax, %rdi
 2114 1102 E8000000 		call	_ZN20NormalTestTerminatorC1Ev
 2114      00
 2115 1107 488D45C0 		leaq	-64(%rbp), %rax
 2116 110b 8B55A8   		movl	-88(%rbp), %edx
 2117 110e 89D6     		movl	%edx, %esi
 2118 1110 4889C7   		movq	%rax, %rdi
 2119              	.LEHB99:
 2120 1113 E8000000 		call	_Z10StringFromi
 2120      00
 2121              	.LEHE99:
 2122 1118 488D45C0 		leaq	-64(%rbp), %rax
 2123 111c 4889C7   		movq	%rax, %rdi
 2124              	.LEHB100:
 2125 111f E8000000 		call	_ZNK12SimpleString12asCharStringEv
 2125      00
 2126 1124 4989C5   		movq	%rax, %r13
 2127 1127 488D45B0 		leaq	-80(%rbp), %rax
 2128 112b BE010000 		movl	$1, %esi
 2128      00
 2129 1130 4889C7   		movq	%rax, %rdi
 2130 1133 E8000000 		call	_Z10StringFromi
 2130      00
 2131              	.LEHE100:
 2132 1138 488D45B0 		leaq	-80(%rbp), %rax
 2133 113c 4889C7   		movq	%rax, %rdi
 2134              	.LEHB101:
 2135 113f E8000000 		call	_ZNK12SimpleString12asCharStringEv
 2135      00
 2136 1144 4889C2   		movq	%rax, %rdx
 2137 1147 4883EC08 		subq	$8, %rsp
 2138 114b 488D45D0 		leaq	-48(%rbp), %rax
 2139 114f 50       		pushq	%rax
 2140 1150 41B9C200 		movl	$194, %r9d
 2140      0000
 2141 1156 41B80000 		movl	$.LC0, %r8d
 2141      0000
 2142 115c 4C89E9   		movq	%r13, %rcx
 2143 115f BE010000 		movl	$1, %esi
 2143      00
 2144 1164 4889DF   		movq	%rbx, %rdi
 2145              		.cfi_escape 0x2e,0x10
 2146 1167 41FFD4   		call	*%r12
 2147              	.LEHE101:
 2148 116a 4883C410 		addq	$16, %rsp
 2149 116e 488D45B0 		leaq	-80(%rbp), %rax
 2150 1172 4889C7   		movq	%rax, %rdi
 2151              	.LEHB102:
 2152              		.cfi_escape 0x2e,0
 2153 1175 E8000000 		call	_ZN12SimpleStringD1Ev
 2153      00
 2154              	.LEHE102:
 2155 117a 488D45C0 		leaq	-64(%rbp), %rax
 2156 117e 4889C7   		movq	%rax, %rdi
 2157              	.LEHB103:
 2158 1181 E8000000 		call	_ZN12SimpleStringD1Ev
GAS LISTING /tmp/ccL6xP0D.s 			page 47


 2158      00
 2159              	.LEHE103:
 2160 1186 488D45D0 		leaq	-48(%rbp), %rax
 2161 118a 4889C7   		movq	%rax, %rdi
 2162              	.LEHB104:
 2163 118d E8000000 		call	_ZN20NormalTestTerminatorD1Ev
 2163      00
 2164 1192 EB54     		jmp	.L65
 2165              	.L64:
 2166 1194 E8000000 		call	_ZN10UtestShell10getCurrentEv
 2166      00
 2167              	.LEHE104:
 2168 1199 4889C3   		movq	%rax, %rbx
 2169 119c 488B03   		movq	(%rbx), %rax
 2170 119f 4883C078 		addq	$120, %rax
 2171 11a3 4C8B20   		movq	(%rax), %r12
 2172 11a6 48C745D0 		movq	$0, -48(%rbp)
 2172      00000000 
 2173 11ae 488D45D0 		leaq	-48(%rbp), %rax
 2174 11b2 4889C7   		movq	%rax, %rdi
 2175 11b5 E8000000 		call	_ZN20NormalTestTerminatorC1Ev
 2175      00
 2176 11ba 488D45D0 		leaq	-48(%rbp), %rax
 2177 11be 4989C1   		movq	%rax, %r9
 2178 11c1 41B8C200 		movl	$194, %r8d
 2178      0000
 2179 11c7 B9000000 		movl	$.LC0, %ecx
 2179      00
 2180 11cc BA000000 		movl	$0, %edx
 2180      00
 2181 11d1 BE000000 		movl	$0, %esi
 2181      00
 2182 11d6 4889DF   		movq	%rbx, %rdi
 2183              	.LEHB105:
 2184 11d9 41FFD4   		call	*%r12
 2185              	.LEHE105:
 2186 11dc 488D45D0 		leaq	-48(%rbp), %rax
 2187 11e0 4889C7   		movq	%rax, %rdi
 2188              	.LEHB106:
 2189 11e3 E8000000 		call	_ZN20NormalTestTerminatorD1Ev
 2189      00
 2190              	.L65:
 2191 11e8 488B4588 		movq	-120(%rbp), %rax
 2192 11ec 4883C008 		addq	$8, %rax
 2193 11f0 BE000000 		movl	$0, %esi
 2193      00
 2194 11f5 4889C7   		movq	%rax, %rdi
 2195 11f8 E8000000 		call	_Z15hsm_handleEventP5hsm_tPK11hsm_event_t
 2195      00
 2196 11fd 8945AC   		movl	%eax, -84(%rbp)
 2197 1200 E8000000 		call	_ZN10UtestShell10getCurrentEv
 2197      00
 2198              	.LEHE106:
 2199 1205 4889C3   		movq	%rax, %rbx
 2200 1208 488B03   		movq	(%rbx), %rax
 2201 120b 4883C078 		addq	$120, %rax
 2202 120f 4C8B20   		movq	(%rax), %r12
GAS LISTING /tmp/ccL6xP0D.s 			page 48


 2203 1212 48C745D0 		movq	$0, -48(%rbp)
 2203      00000000 
 2204 121a 488D45D0 		leaq	-48(%rbp), %rax
 2205 121e 4889C7   		movq	%rax, %rdi
 2206 1221 E8000000 		call	_ZN20NormalTestTerminatorC1Ev
 2206      00
 2207 1226 8B050000 		movl	offState+52(%rip), %eax
 2207      0000
 2208 122c 89C2     		movl	%eax, %edx
 2209 122e 488D45D0 		leaq	-48(%rbp), %rax
 2210 1232 4989C1   		movq	%rax, %r9
 2211 1235 41B8C800 		movl	$200, %r8d
 2211      0000
 2212 123b B9000000 		movl	$.LC0, %ecx
 2212      00
 2213 1240 BE000000 		movl	$0, %esi
 2213      00
 2214 1245 4889DF   		movq	%rbx, %rdi
 2215              	.LEHB107:
 2216 1248 41FFD4   		call	*%r12
 2217              	.LEHE107:
 2218 124b 488D45D0 		leaq	-48(%rbp), %rax
 2219 124f 4889C7   		movq	%rax, %rdi
 2220              	.LEHB108:
 2221 1252 E8000000 		call	_ZN20NormalTestTerminatorD1Ev
 2221      00
 2222 1257 E8000000 		call	_ZN10UtestShell10getCurrentEv
 2222      00
 2223 125c 488B10   		movq	(%rax), %rdx
 2224 125f 4881C288 		addq	$136, %rdx
 2224      000000
 2225 1266 4C8B0A   		movq	(%rdx), %r9
 2226 1269 488B5588 		movq	-120(%rbp), %rdx
 2227 126d 488B5210 		movq	16(%rdx), %rdx
 2228 1271 41B8C900 		movl	$201, %r8d
 2228      0000
 2229 1277 B9000000 		movl	$.LC0, %ecx
 2229      00
 2230 127c BE000000 		movl	$onState, %esi
 2230      00
 2231 1281 4889C7   		movq	%rax, %rdi
 2232 1284 41FFD1   		call	*%r9
 2233 1287 E8000000 		call	_ZN10UtestShell10getCurrentEv
 2233      00
 2234              	.LEHE108:
 2235 128c 4889C3   		movq	%rax, %rbx
 2236 128f 488B03   		movq	(%rbx), %rax
 2237 1292 4883C078 		addq	$120, %rax
 2238 1296 4C8B20   		movq	(%rax), %r12
 2239 1299 48C745D0 		movq	$0, -48(%rbp)
 2239      00000000 
 2240 12a1 488D45D0 		leaq	-48(%rbp), %rax
 2241 12a5 4889C7   		movq	%rax, %rdi
 2242 12a8 E8000000 		call	_ZN20NormalTestTerminatorC1Ev
 2242      00
 2243 12ad 488B4588 		movq	-120(%rbp), %rax
 2244 12b1 488B4010 		movq	16(%rax), %rax
GAS LISTING /tmp/ccL6xP0D.s 			page 49


 2245 12b5 8B4034   		movl	52(%rax), %eax
 2246 12b8 89C2     		movl	%eax, %edx
 2247 12ba 488D45D0 		leaq	-48(%rbp), %rax
 2248 12be 4989C1   		movq	%rax, %r9
 2249 12c1 41B8CA00 		movl	$202, %r8d
 2249      0000
 2250 12c7 B9000000 		movl	$.LC0, %ecx
 2250      00
 2251 12cc BE000000 		movl	$0, %esi
 2251      00
 2252 12d1 4889DF   		movq	%rbx, %rdi
 2253              	.LEHB109:
 2254 12d4 41FFD4   		call	*%r12
 2255              	.LEHE109:
 2256 12d7 488D45D0 		leaq	-48(%rbp), %rax
 2257 12db 4889C7   		movq	%rax, %rdi
 2258              	.LEHB110:
 2259 12de E8000000 		call	_ZN20NormalTestTerminatorD1Ev
 2259      00
 2260 12e3 837DAC01 		cmpl	$1, -84(%rbp)
 2261 12e7 0F84B800 		je	.L66
 2261      0000
 2262 12ed E8000000 		call	_ZN10UtestShell10getCurrentEv
 2262      00
 2263              	.LEHE110:
 2264 12f2 4889C3   		movq	%rax, %rbx
 2265 12f5 488B03   		movq	(%rbx), %rax
 2266 12f8 48059800 		addq	$152, %rax
 2266      0000
 2267 12fe 4C8B20   		movq	(%rax), %r12
 2268 1301 48C745D0 		movq	$0, -48(%rbp)
 2268      00000000 
 2269 1309 488D45D0 		leaq	-48(%rbp), %rax
 2270 130d 4889C7   		movq	%rax, %rdi
 2271 1310 E8000000 		call	_ZN20NormalTestTerminatorC1Ev
 2271      00
 2272 1315 488D45C0 		leaq	-64(%rbp), %rax
 2273 1319 8B55AC   		movl	-84(%rbp), %edx
 2274 131c 89D6     		movl	%edx, %esi
 2275 131e 4889C7   		movq	%rax, %rdi
 2276              	.LEHB111:
 2277 1321 E8000000 		call	_Z10StringFromi
 2277      00
 2278              	.LEHE111:
 2279 1326 488D45C0 		leaq	-64(%rbp), %rax
 2280 132a 4889C7   		movq	%rax, %rdi
 2281              	.LEHB112:
 2282 132d E8000000 		call	_ZNK12SimpleString12asCharStringEv
 2282      00
 2283 1332 4989C5   		movq	%rax, %r13
 2284 1335 488D45B0 		leaq	-80(%rbp), %rax
 2285 1339 BE010000 		movl	$1, %esi
 2285      00
 2286 133e 4889C7   		movq	%rax, %rdi
 2287 1341 E8000000 		call	_Z10StringFromi
 2287      00
 2288              	.LEHE112:
GAS LISTING /tmp/ccL6xP0D.s 			page 50


 2289 1346 488D45B0 		leaq	-80(%rbp), %rax
 2290 134a 4889C7   		movq	%rax, %rdi
 2291              	.LEHB113:
 2292 134d E8000000 		call	_ZNK12SimpleString12asCharStringEv
 2292      00
 2293 1352 4889C2   		movq	%rax, %rdx
 2294 1355 4883EC08 		subq	$8, %rsp
 2295 1359 488D45D0 		leaq	-48(%rbp), %rax
 2296 135d 50       		pushq	%rax
 2297 135e 41B9CB00 		movl	$203, %r9d
 2297      0000
 2298 1364 41B80000 		movl	$.LC0, %r8d
 2298      0000
 2299 136a 4C89E9   		movq	%r13, %rcx
 2300 136d BE010000 		movl	$1, %esi
 2300      00
 2301 1372 4889DF   		movq	%rbx, %rdi
 2302              		.cfi_escape 0x2e,0x10
 2303 1375 41FFD4   		call	*%r12
 2304              	.LEHE113:
 2305 1378 4883C410 		addq	$16, %rsp
 2306 137c 488D45B0 		leaq	-80(%rbp), %rax
 2307 1380 4889C7   		movq	%rax, %rdi
 2308              	.LEHB114:
 2309              		.cfi_escape 0x2e,0
 2310 1383 E8000000 		call	_ZN12SimpleStringD1Ev
 2310      00
 2311              	.LEHE114:
 2312 1388 488D45C0 		leaq	-64(%rbp), %rax
 2313 138c 4889C7   		movq	%rax, %rdi
 2314              	.LEHB115:
 2315 138f E8000000 		call	_ZN12SimpleStringD1Ev
 2315      00
 2316              	.LEHE115:
 2317 1394 488D45D0 		leaq	-48(%rbp), %rax
 2318 1398 4889C7   		movq	%rax, %rdi
 2319              	.LEHB116:
 2320 139b E8000000 		call	_ZN20NormalTestTerminatorD1Ev
 2320      00
 2321 13a0 E90D0400 		jmp	.L51
 2321      00
 2322              	.L66:
 2323 13a5 E8000000 		call	_ZN10UtestShell10getCurrentEv
 2323      00
 2324              	.LEHE116:
 2325 13aa 4889C3   		movq	%rax, %rbx
 2326 13ad 488B03   		movq	(%rbx), %rax
 2327 13b0 4883C078 		addq	$120, %rax
 2328 13b4 4C8B20   		movq	(%rax), %r12
 2329 13b7 48C745D0 		movq	$0, -48(%rbp)
 2329      00000000 
 2330 13bf 488D45D0 		leaq	-48(%rbp), %rax
 2331 13c3 4889C7   		movq	%rax, %rdi
 2332 13c6 E8000000 		call	_ZN20NormalTestTerminatorC1Ev
 2332      00
 2333 13cb 488D45D0 		leaq	-48(%rbp), %rax
 2334 13cf 4989C1   		movq	%rax, %r9
GAS LISTING /tmp/ccL6xP0D.s 			page 51


 2335 13d2 41B8CB00 		movl	$203, %r8d
 2335      0000
 2336 13d8 B9000000 		movl	$.LC0, %ecx
 2336      00
 2337 13dd BA000000 		movl	$0, %edx
 2337      00
 2338 13e2 BE000000 		movl	$0, %esi
 2338      00
 2339 13e7 4889DF   		movq	%rbx, %rdi
 2340              	.LEHB117:
 2341 13ea 41FFD4   		call	*%r12
 2342              	.LEHE117:
 2343 13ed 488D45D0 		leaq	-48(%rbp), %rax
 2344 13f1 4889C7   		movq	%rax, %rdi
 2345              	.LEHB118:
 2346 13f4 E8000000 		call	_ZN20NormalTestTerminatorD1Ev
 2346      00
 2347              	.LEHE118:
 2348 13f9 E9B40300 		jmp	.L51
 2348      00
 2349              	.L111:
 2350 13fe 4889C3   		movq	%rax, %rbx
 2351 1401 488D45D0 		leaq	-48(%rbp), %rax
 2352 1405 4889C7   		movq	%rax, %rdi
 2353 1408 E8000000 		call	_ZN20NormalTestTerminatorD1Ev
 2353      00
 2354 140d 4889D8   		movq	%rbx, %rax
 2355 1410 4889C7   		movq	%rax, %rdi
 2356              	.LEHB119:
 2357 1413 E8000000 		call	_Unwind_Resume
 2357      00
 2358              	.LEHE119:
 2359              	.L114:
 2360 1418 4889C3   		movq	%rax, %rbx
 2361 141b 488D45B0 		leaq	-80(%rbp), %rax
 2362 141f 4889C7   		movq	%rax, %rdi
 2363 1422 E8000000 		call	_ZN12SimpleStringD1Ev
 2363      00
 2364 1427 EB03     		jmp	.L70
 2365              	.L113:
 2366 1429 4889C3   		movq	%rax, %rbx
 2367              	.L70:
 2368 142c 488D45C0 		leaq	-64(%rbp), %rax
 2369 1430 4889C7   		movq	%rax, %rdi
 2370 1433 E8000000 		call	_ZN12SimpleStringD1Ev
 2370      00
 2371 1438 EB03     		jmp	.L71
 2372              	.L112:
 2373 143a 4889C3   		movq	%rax, %rbx
 2374              	.L71:
 2375 143d 488D45D0 		leaq	-48(%rbp), %rax
 2376 1441 4889C7   		movq	%rax, %rdi
 2377 1444 E8000000 		call	_ZN20NormalTestTerminatorD1Ev
 2377      00
 2378 1449 4889D8   		movq	%rbx, %rax
 2379 144c 4889C7   		movq	%rax, %rdi
 2380              	.LEHB120:
GAS LISTING /tmp/ccL6xP0D.s 			page 52


 2381 144f E8000000 		call	_Unwind_Resume
 2381      00
 2382              	.LEHE120:
 2383              	.L115:
 2384 1454 4889C3   		movq	%rax, %rbx
 2385 1457 488D45D0 		leaq	-48(%rbp), %rax
 2386 145b 4889C7   		movq	%rax, %rdi
 2387 145e E8000000 		call	_ZN20NormalTestTerminatorD1Ev
 2387      00
 2388 1463 4889D8   		movq	%rbx, %rax
 2389 1466 4889C7   		movq	%rax, %rdi
 2390              	.LEHB121:
 2391 1469 E8000000 		call	_Unwind_Resume
 2391      00
 2392              	.LEHE121:
 2393              	.L116:
 2394 146e 4889C3   		movq	%rax, %rbx
 2395 1471 488D45D0 		leaq	-48(%rbp), %rax
 2396 1475 4889C7   		movq	%rax, %rdi
 2397 1478 E8000000 		call	_ZN20NormalTestTerminatorD1Ev
 2397      00
 2398 147d 4889D8   		movq	%rbx, %rax
 2399 1480 4889C7   		movq	%rax, %rdi
 2400              	.LEHB122:
 2401 1483 E8000000 		call	_Unwind_Resume
 2401      00
 2402              	.LEHE122:
 2403              	.L119:
 2404 1488 4889C3   		movq	%rax, %rbx
 2405 148b 488D45B0 		leaq	-80(%rbp), %rax
 2406 148f 4889C7   		movq	%rax, %rdi
 2407 1492 E8000000 		call	_ZN12SimpleStringD1Ev
 2407      00
 2408 1497 EB03     		jmp	.L75
 2409              	.L118:
 2410 1499 4889C3   		movq	%rax, %rbx
 2411              	.L75:
 2412 149c 488D45C0 		leaq	-64(%rbp), %rax
 2413 14a0 4889C7   		movq	%rax, %rdi
 2414 14a3 E8000000 		call	_ZN12SimpleStringD1Ev
 2414      00
 2415 14a8 EB03     		jmp	.L76
 2416              	.L117:
 2417 14aa 4889C3   		movq	%rax, %rbx
 2418              	.L76:
 2419 14ad 488D45D0 		leaq	-48(%rbp), %rax
 2420 14b1 4889C7   		movq	%rax, %rdi
 2421 14b4 E8000000 		call	_ZN20NormalTestTerminatorD1Ev
 2421      00
 2422 14b9 4889D8   		movq	%rbx, %rax
 2423 14bc 4889C7   		movq	%rax, %rdi
 2424              	.LEHB123:
 2425 14bf E8000000 		call	_Unwind_Resume
 2425      00
 2426              	.LEHE123:
 2427              	.L120:
 2428 14c4 4889C3   		movq	%rax, %rbx
GAS LISTING /tmp/ccL6xP0D.s 			page 53


 2429 14c7 488D45D0 		leaq	-48(%rbp), %rax
 2430 14cb 4889C7   		movq	%rax, %rdi
 2431 14ce E8000000 		call	_ZN20NormalTestTerminatorD1Ev
 2431      00
 2432 14d3 4889D8   		movq	%rbx, %rax
 2433 14d6 4889C7   		movq	%rax, %rdi
 2434              	.LEHB124:
 2435 14d9 E8000000 		call	_Unwind_Resume
 2435      00
 2436              	.LEHE124:
 2437              	.L121:
 2438 14de 4889C3   		movq	%rax, %rbx
 2439 14e1 488D45D0 		leaq	-48(%rbp), %rax
 2440 14e5 4889C7   		movq	%rax, %rdi
 2441 14e8 E8000000 		call	_ZN20NormalTestTerminatorD1Ev
 2441      00
 2442 14ed 4889D8   		movq	%rbx, %rax
 2443 14f0 4889C7   		movq	%rax, %rdi
 2444              	.LEHB125:
 2445 14f3 E8000000 		call	_Unwind_Resume
 2445      00
 2446              	.LEHE125:
 2447              	.L124:
 2448 14f8 4889C3   		movq	%rax, %rbx
 2449 14fb 488D45B0 		leaq	-80(%rbp), %rax
 2450 14ff 4889C7   		movq	%rax, %rdi
 2451 1502 E8000000 		call	_ZN12SimpleStringD1Ev
 2451      00
 2452 1507 EB03     		jmp	.L80
 2453              	.L123:
 2454 1509 4889C3   		movq	%rax, %rbx
 2455              	.L80:
 2456 150c 488D45C0 		leaq	-64(%rbp), %rax
 2457 1510 4889C7   		movq	%rax, %rdi
 2458 1513 E8000000 		call	_ZN12SimpleStringD1Ev
 2458      00
 2459 1518 EB03     		jmp	.L81
 2460              	.L122:
 2461 151a 4889C3   		movq	%rax, %rbx
 2462              	.L81:
 2463 151d 488D45D0 		leaq	-48(%rbp), %rax
 2464 1521 4889C7   		movq	%rax, %rdi
 2465 1524 E8000000 		call	_ZN20NormalTestTerminatorD1Ev
 2465      00
 2466 1529 4889D8   		movq	%rbx, %rax
 2467 152c 4889C7   		movq	%rax, %rdi
 2468              	.LEHB126:
 2469 152f E8000000 		call	_Unwind_Resume
 2469      00
 2470              	.LEHE126:
 2471              	.L125:
 2472 1534 4889C3   		movq	%rax, %rbx
 2473 1537 488D45D0 		leaq	-48(%rbp), %rax
 2474 153b 4889C7   		movq	%rax, %rdi
 2475 153e E8000000 		call	_ZN20NormalTestTerminatorD1Ev
 2475      00
 2476 1543 4889D8   		movq	%rbx, %rax
GAS LISTING /tmp/ccL6xP0D.s 			page 54


 2477 1546 4889C7   		movq	%rax, %rdi
 2478              	.LEHB127:
 2479 1549 E8000000 		call	_Unwind_Resume
 2479      00
 2480              	.LEHE127:
 2481              	.L126:
 2482 154e 4889C3   		movq	%rax, %rbx
 2483 1551 488D45D0 		leaq	-48(%rbp), %rax
 2484 1555 4889C7   		movq	%rax, %rdi
 2485 1558 E8000000 		call	_ZN20NormalTestTerminatorD1Ev
 2485      00
 2486 155d 4889D8   		movq	%rbx, %rax
 2487 1560 4889C7   		movq	%rax, %rdi
 2488              	.LEHB128:
 2489 1563 E8000000 		call	_Unwind_Resume
 2489      00
 2490              	.LEHE128:
 2491              	.L127:
 2492 1568 4889C3   		movq	%rax, %rbx
 2493 156b 488D45D0 		leaq	-48(%rbp), %rax
 2494 156f 4889C7   		movq	%rax, %rdi
 2495 1572 E8000000 		call	_ZN20NormalTestTerminatorD1Ev
 2495      00
 2496 1577 4889D8   		movq	%rbx, %rax
 2497 157a 4889C7   		movq	%rax, %rdi
 2498              	.LEHB129:
 2499 157d E8000000 		call	_Unwind_Resume
 2499      00
 2500              	.LEHE129:
 2501              	.L130:
 2502 1582 4889C3   		movq	%rax, %rbx
 2503 1585 488D45B0 		leaq	-80(%rbp), %rax
 2504 1589 4889C7   		movq	%rax, %rdi
 2505 158c E8000000 		call	_ZN12SimpleStringD1Ev
 2505      00
 2506 1591 EB03     		jmp	.L86
 2507              	.L129:
 2508 1593 4889C3   		movq	%rax, %rbx
 2509              	.L86:
 2510 1596 488D45C0 		leaq	-64(%rbp), %rax
 2511 159a 4889C7   		movq	%rax, %rdi
 2512 159d E8000000 		call	_ZN12SimpleStringD1Ev
 2512      00
 2513 15a2 EB03     		jmp	.L87
 2514              	.L128:
 2515 15a4 4889C3   		movq	%rax, %rbx
 2516              	.L87:
 2517 15a7 488D45D0 		leaq	-48(%rbp), %rax
 2518 15ab 4889C7   		movq	%rax, %rdi
 2519 15ae E8000000 		call	_ZN20NormalTestTerminatorD1Ev
 2519      00
 2520 15b3 4889D8   		movq	%rbx, %rax
 2521 15b6 4889C7   		movq	%rax, %rdi
 2522              	.LEHB130:
 2523 15b9 E8000000 		call	_Unwind_Resume
 2523      00
 2524              	.LEHE130:
GAS LISTING /tmp/ccL6xP0D.s 			page 55


 2525              	.L131:
 2526 15be 4889C3   		movq	%rax, %rbx
 2527 15c1 488D45D0 		leaq	-48(%rbp), %rax
 2528 15c5 4889C7   		movq	%rax, %rdi
 2529 15c8 E8000000 		call	_ZN20NormalTestTerminatorD1Ev
 2529      00
 2530 15cd 4889D8   		movq	%rbx, %rax
 2531 15d0 4889C7   		movq	%rax, %rdi
 2532              	.LEHB131:
 2533 15d3 E8000000 		call	_Unwind_Resume
 2533      00
 2534              	.LEHE131:
 2535              	.L132:
 2536 15d8 4889C3   		movq	%rax, %rbx
 2537 15db 488D45D0 		leaq	-48(%rbp), %rax
 2538 15df 4889C7   		movq	%rax, %rdi
 2539 15e2 E8000000 		call	_ZN20NormalTestTerminatorD1Ev
 2539      00
 2540 15e7 4889D8   		movq	%rbx, %rax
 2541 15ea 4889C7   		movq	%rax, %rdi
 2542              	.LEHB132:
 2543 15ed E8000000 		call	_Unwind_Resume
 2543      00
 2544              	.LEHE132:
 2545              	.L135:
 2546 15f2 4889C3   		movq	%rax, %rbx
 2547 15f5 488D45B0 		leaq	-80(%rbp), %rax
 2548 15f9 4889C7   		movq	%rax, %rdi
 2549 15fc E8000000 		call	_ZN12SimpleStringD1Ev
 2549      00
 2550 1601 EB03     		jmp	.L91
 2551              	.L134:
 2552 1603 4889C3   		movq	%rax, %rbx
 2553              	.L91:
 2554 1606 488D45C0 		leaq	-64(%rbp), %rax
 2555 160a 4889C7   		movq	%rax, %rdi
 2556 160d E8000000 		call	_ZN12SimpleStringD1Ev
 2556      00
 2557 1612 EB03     		jmp	.L92
 2558              	.L133:
 2559 1614 4889C3   		movq	%rax, %rbx
 2560              	.L92:
 2561 1617 488D45D0 		leaq	-48(%rbp), %rax
 2562 161b 4889C7   		movq	%rax, %rdi
 2563 161e E8000000 		call	_ZN20NormalTestTerminatorD1Ev
 2563      00
 2564 1623 4889D8   		movq	%rbx, %rax
 2565 1626 4889C7   		movq	%rax, %rdi
 2566              	.LEHB133:
 2567 1629 E8000000 		call	_Unwind_Resume
 2567      00
 2568              	.LEHE133:
 2569              	.L136:
 2570 162e 4889C3   		movq	%rax, %rbx
 2571 1631 488D45D0 		leaq	-48(%rbp), %rax
 2572 1635 4889C7   		movq	%rax, %rdi
 2573 1638 E8000000 		call	_ZN20NormalTestTerminatorD1Ev
GAS LISTING /tmp/ccL6xP0D.s 			page 56


 2573      00
 2574 163d 4889D8   		movq	%rbx, %rax
 2575 1640 4889C7   		movq	%rax, %rdi
 2576              	.LEHB134:
 2577 1643 E8000000 		call	_Unwind_Resume
 2577      00
 2578              	.LEHE134:
 2579              	.L137:
 2580 1648 4889C3   		movq	%rax, %rbx
 2581 164b 488D45D0 		leaq	-48(%rbp), %rax
 2582 164f 4889C7   		movq	%rax, %rdi
 2583 1652 E8000000 		call	_ZN20NormalTestTerminatorD1Ev
 2583      00
 2584 1657 4889D8   		movq	%rbx, %rax
 2585 165a 4889C7   		movq	%rax, %rdi
 2586              	.LEHB135:
 2587 165d E8000000 		call	_Unwind_Resume
 2587      00
 2588              	.LEHE135:
 2589              	.L140:
 2590 1662 4889C3   		movq	%rax, %rbx
 2591 1665 488D45B0 		leaq	-80(%rbp), %rax
 2592 1669 4889C7   		movq	%rax, %rdi
 2593 166c E8000000 		call	_ZN12SimpleStringD1Ev
 2593      00
 2594 1671 EB03     		jmp	.L96
 2595              	.L139:
 2596 1673 4889C3   		movq	%rax, %rbx
 2597              	.L96:
 2598 1676 488D45C0 		leaq	-64(%rbp), %rax
 2599 167a 4889C7   		movq	%rax, %rdi
 2600 167d E8000000 		call	_ZN12SimpleStringD1Ev
 2600      00
 2601 1682 EB03     		jmp	.L97
 2602              	.L138:
 2603 1684 4889C3   		movq	%rax, %rbx
 2604              	.L97:
 2605 1687 488D45D0 		leaq	-48(%rbp), %rax
 2606 168b 4889C7   		movq	%rax, %rdi
 2607 168e E8000000 		call	_ZN20NormalTestTerminatorD1Ev
 2607      00
 2608 1693 4889D8   		movq	%rbx, %rax
 2609 1696 4889C7   		movq	%rax, %rdi
 2610              	.LEHB136:
 2611 1699 E8000000 		call	_Unwind_Resume
 2611      00
 2612              	.LEHE136:
 2613              	.L141:
 2614 169e 4889C3   		movq	%rax, %rbx
 2615 16a1 488D45D0 		leaq	-48(%rbp), %rax
 2616 16a5 4889C7   		movq	%rax, %rdi
 2617 16a8 E8000000 		call	_ZN20NormalTestTerminatorD1Ev
 2617      00
 2618 16ad 4889D8   		movq	%rbx, %rax
 2619 16b0 4889C7   		movq	%rax, %rdi
 2620              	.LEHB137:
 2621 16b3 E8000000 		call	_Unwind_Resume
GAS LISTING /tmp/ccL6xP0D.s 			page 57


 2621      00
 2622              	.LEHE137:
 2623              	.L142:
 2624 16b8 4889C3   		movq	%rax, %rbx
 2625 16bb 488D45D0 		leaq	-48(%rbp), %rax
 2626 16bf 4889C7   		movq	%rax, %rdi
 2627 16c2 E8000000 		call	_ZN20NormalTestTerminatorD1Ev
 2627      00
 2628 16c7 4889D8   		movq	%rbx, %rax
 2629 16ca 4889C7   		movq	%rax, %rdi
 2630              	.LEHB138:
 2631 16cd E8000000 		call	_Unwind_Resume
 2631      00
 2632              	.LEHE138:
 2633              	.L145:
 2634 16d2 4889C3   		movq	%rax, %rbx
 2635 16d5 488D45B0 		leaq	-80(%rbp), %rax
 2636 16d9 4889C7   		movq	%rax, %rdi
 2637 16dc E8000000 		call	_ZN12SimpleStringD1Ev
 2637      00
 2638 16e1 EB03     		jmp	.L101
 2639              	.L144:
 2640 16e3 4889C3   		movq	%rax, %rbx
 2641              	.L101:
 2642 16e6 488D45C0 		leaq	-64(%rbp), %rax
 2643 16ea 4889C7   		movq	%rax, %rdi
 2644 16ed E8000000 		call	_ZN12SimpleStringD1Ev
 2644      00
 2645 16f2 EB03     		jmp	.L102
 2646              	.L143:
 2647 16f4 4889C3   		movq	%rax, %rbx
 2648              	.L102:
 2649 16f7 488D45D0 		leaq	-48(%rbp), %rax
 2650 16fb 4889C7   		movq	%rax, %rdi
 2651 16fe E8000000 		call	_ZN20NormalTestTerminatorD1Ev
 2651      00
 2652 1703 4889D8   		movq	%rbx, %rax
 2653 1706 4889C7   		movq	%rax, %rdi
 2654              	.LEHB139:
 2655 1709 E8000000 		call	_Unwind_Resume
 2655      00
 2656              	.LEHE139:
 2657              	.L146:
 2658 170e 4889C3   		movq	%rax, %rbx
 2659 1711 488D45D0 		leaq	-48(%rbp), %rax
 2660 1715 4889C7   		movq	%rax, %rdi
 2661 1718 E8000000 		call	_ZN20NormalTestTerminatorD1Ev
 2661      00
 2662 171d 4889D8   		movq	%rbx, %rax
 2663 1720 4889C7   		movq	%rax, %rdi
 2664              	.LEHB140:
 2665 1723 E8000000 		call	_Unwind_Resume
 2665      00
 2666              	.LEHE140:
 2667              	.L147:
 2668 1728 4889C3   		movq	%rax, %rbx
 2669 172b 488D45D0 		leaq	-48(%rbp), %rax
GAS LISTING /tmp/ccL6xP0D.s 			page 58


 2670 172f 4889C7   		movq	%rax, %rdi
 2671 1732 E8000000 		call	_ZN20NormalTestTerminatorD1Ev
 2671      00
 2672 1737 4889D8   		movq	%rbx, %rax
 2673 173a 4889C7   		movq	%rax, %rdi
 2674              	.LEHB141:
 2675 173d E8000000 		call	_Unwind_Resume
 2675      00
 2676              	.LEHE141:
 2677              	.L148:
 2678 1742 4889C3   		movq	%rax, %rbx
 2679 1745 488D45D0 		leaq	-48(%rbp), %rax
 2680 1749 4889C7   		movq	%rax, %rdi
 2681 174c E8000000 		call	_ZN20NormalTestTerminatorD1Ev
 2681      00
 2682 1751 4889D8   		movq	%rbx, %rax
 2683 1754 4889C7   		movq	%rax, %rdi
 2684              	.LEHB142:
 2685 1757 E8000000 		call	_Unwind_Resume
 2685      00
 2686              	.LEHE142:
 2687              	.L151:
 2688 175c 4889C3   		movq	%rax, %rbx
 2689 175f 488D45B0 		leaq	-80(%rbp), %rax
 2690 1763 4889C7   		movq	%rax, %rdi
 2691 1766 E8000000 		call	_ZN12SimpleStringD1Ev
 2691      00
 2692 176b EB03     		jmp	.L107
 2693              	.L150:
 2694 176d 4889C3   		movq	%rax, %rbx
 2695              	.L107:
 2696 1770 488D45C0 		leaq	-64(%rbp), %rax
 2697 1774 4889C7   		movq	%rax, %rdi
 2698 1777 E8000000 		call	_ZN12SimpleStringD1Ev
 2698      00
 2699 177c EB03     		jmp	.L108
 2700              	.L149:
 2701 177e 4889C3   		movq	%rax, %rbx
 2702              	.L108:
 2703 1781 488D45D0 		leaq	-48(%rbp), %rax
 2704 1785 4889C7   		movq	%rax, %rdi
 2705 1788 E8000000 		call	_ZN20NormalTestTerminatorD1Ev
 2705      00
 2706 178d 4889D8   		movq	%rbx, %rax
 2707 1790 4889C7   		movq	%rax, %rdi
 2708              	.LEHB143:
 2709 1793 E8000000 		call	_Unwind_Resume
 2709      00
 2710              	.LEHE143:
 2711              	.L152:
 2712 1798 4889C3   		movq	%rax, %rbx
 2713 179b 488D45D0 		leaq	-48(%rbp), %rax
 2714 179f 4889C7   		movq	%rax, %rdi
 2715 17a2 E8000000 		call	_ZN20NormalTestTerminatorD1Ev
 2715      00
 2716 17a7 4889D8   		movq	%rbx, %rax
 2717 17aa 4889C7   		movq	%rax, %rdi
GAS LISTING /tmp/ccL6xP0D.s 			page 59


 2718              	.LEHB144:
 2719 17ad E8000000 		call	_Unwind_Resume
 2719      00
 2720              	.LEHE144:
 2721              	.L51:
 2722 17b2 488B45D8 		movq	-40(%rbp), %rax
 2723 17b6 64483304 		xorq	%fs:40, %rax
 2723      25280000 
 2723      00
 2724 17bf 7405     		je	.L110
 2725 17c1 E8000000 		call	__stack_chk_fail
 2725      00
 2726              	.L110:
 2727 17c6 488D65E8 		leaq	-24(%rbp), %rsp
 2728 17ca 5B       		popq	%rbx
 2729 17cb 415C     		popq	%r12
 2730 17cd 415D     		popq	%r13
 2731 17cf 5D       		popq	%rbp
 2732              		.cfi_def_cfa 7, 8
 2733 17d0 C3       		ret
 2734              		.cfi_endproc
 2735              	.LFE717:
 2736              		.section	.gcc_except_table
 2737              	.LLSDA717:
 2738 00a9 FF       		.byte	0xff
 2739 00aa FF       		.byte	0xff
 2740 00ab 01       		.byte	0x1
 2741 00ac E404     		.uleb128 .LLSDACSE717-.LLSDACSB717
 2742              	.LLSDACSB717:
 2743 00ae 30       		.uleb128 .LEHB34-.LFB717
 2744 00af 3D       		.uleb128 .LEHE34-.LEHB34
 2745 00b0 00       		.uleb128 0
 2746 00b1 00       		.uleb128 0
 2747 00b2 B501     		.uleb128 .LEHB35-.LFB717
 2748 00b4 03       		.uleb128 .LEHE35-.LEHB35
 2749 00b5 8E1D     		.uleb128 .L111-.LFB717
 2750 00b7 00       		.uleb128 0
 2751 00b8 BF01     		.uleb128 .LEHB36-.LFB717
 2752 00ba 14       		.uleb128 .LEHE36-.LEHB36
 2753 00bb 00       		.uleb128 0
 2754 00bc 00       		.uleb128 0
 2755 00bd 8202     		.uleb128 .LEHB37-.LFB717
 2756 00bf 05       		.uleb128 .LEHE37-.LEHB37
 2757 00c0 CA1D     		.uleb128 .L112-.LFB717
 2758 00c2 00       		.uleb128 0
 2759 00c3 8E02     		.uleb128 .LEHB38-.LFB717
 2760 00c5 19       		.uleb128 .LEHE38-.LEHB38
 2761 00c6 B91D     		.uleb128 .L113-.LFB717
 2762 00c8 00       		.uleb128 0
 2763 00c9 AE02     		.uleb128 .LEHB39-.LFB717
 2764 00cb 2B       		.uleb128 .LEHE39-.LEHB39
 2765 00cc A81D     		.uleb128 .L114-.LFB717
 2766 00ce 00       		.uleb128 0
 2767 00cf E402     		.uleb128 .LEHB40-.LFB717
 2768 00d1 05       		.uleb128 .LEHE40-.LEHB40
 2769 00d2 B91D     		.uleb128 .L113-.LFB717
 2770 00d4 00       		.uleb128 0
GAS LISTING /tmp/ccL6xP0D.s 			page 60


 2771 00d5 F002     		.uleb128 .LEHB41-.LFB717
 2772 00d7 05       		.uleb128 .LEHE41-.LEHB41
 2773 00d8 CA1D     		.uleb128 .L112-.LFB717
 2774 00da 00       		.uleb128 0
 2775 00db FC02     		.uleb128 .LEHB42-.LFB717
 2776 00dd 0C       		.uleb128 .LEHE42-.LEHB42
 2777 00de 00       		.uleb128 0
 2778 00df 00       		.uleb128 0
 2779 00e0 C803     		.uleb128 .LEHB43-.LFB717
 2780 00e2 03       		.uleb128 .LEHE43-.LEHB43
 2781 00e3 E41D     		.uleb128 .L115-.LFB717
 2782 00e5 00       		.uleb128 0
 2783 00e6 D203     		.uleb128 .LEHB44-.LFB717
 2784 00e8 52       		.uleb128 .LEHE44-.LEHB44
 2785 00e9 00       		.uleb128 0
 2786 00ea 00       		.uleb128 0
 2787 00eb EC04     		.uleb128 .LEHB45-.LFB717
 2788 00ed 03       		.uleb128 .LEHE45-.LEHB45
 2789 00ee FE1D     		.uleb128 .L116-.LFB717
 2790 00f0 00       		.uleb128 0
 2791 00f1 F604     		.uleb128 .LEHB46-.LFB717
 2792 00f3 14       		.uleb128 .LEHE46-.LEHB46
 2793 00f4 00       		.uleb128 0
 2794 00f5 00       		.uleb128 0
 2795 00f6 B905     		.uleb128 .LEHB47-.LFB717
 2796 00f8 05       		.uleb128 .LEHE47-.LEHB47
 2797 00f9 BA1E     		.uleb128 .L117-.LFB717
 2798 00fb 00       		.uleb128 0
 2799 00fc C505     		.uleb128 .LEHB48-.LFB717
 2800 00fe 19       		.uleb128 .LEHE48-.LEHB48
 2801 00ff A91E     		.uleb128 .L118-.LFB717
 2802 0101 00       		.uleb128 0
 2803 0102 E505     		.uleb128 .LEHB49-.LFB717
 2804 0104 2B       		.uleb128 .LEHE49-.LEHB49
 2805 0105 981E     		.uleb128 .L119-.LFB717
 2806 0107 00       		.uleb128 0
 2807 0108 9B06     		.uleb128 .LEHB50-.LFB717
 2808 010a 05       		.uleb128 .LEHE50-.LEHB50
 2809 010b A91E     		.uleb128 .L118-.LFB717
 2810 010d 00       		.uleb128 0
 2811 010e A706     		.uleb128 .LEHB51-.LFB717
 2812 0110 05       		.uleb128 .LEHE51-.LEHB51
 2813 0111 BA1E     		.uleb128 .L117-.LFB717
 2814 0113 00       		.uleb128 0
 2815 0114 B306     		.uleb128 .LEHB52-.LFB717
 2816 0116 0C       		.uleb128 .LEHE52-.LEHB52
 2817 0117 00       		.uleb128 0
 2818 0118 00       		.uleb128 0
 2819 0119 FF06     		.uleb128 .LEHB53-.LFB717
 2820 011b 03       		.uleb128 .LEHE53-.LEHB53
 2821 011c D41E     		.uleb128 .L120-.LFB717
 2822 011e 00       		.uleb128 0
 2823 011f 8907     		.uleb128 .LEHB54-.LFB717
 2824 0121 52       		.uleb128 .LEHE54-.LEHB54
 2825 0122 00       		.uleb128 0
 2826 0123 00       		.uleb128 0
 2827 0124 A308     		.uleb128 .LEHB55-.LFB717
GAS LISTING /tmp/ccL6xP0D.s 			page 61


 2828 0126 03       		.uleb128 .LEHE55-.LEHB55
 2829 0127 EE1E     		.uleb128 .L121-.LFB717
 2830 0129 00       		.uleb128 0
 2831 012a AD08     		.uleb128 .LEHB56-.LFB717
 2832 012c 14       		.uleb128 .LEHE56-.LEHB56
 2833 012d 00       		.uleb128 0
 2834 012e 00       		.uleb128 0
 2835 012f F008     		.uleb128 .LEHB57-.LFB717
 2836 0131 05       		.uleb128 .LEHE57-.LEHB57
 2837 0132 AA1F     		.uleb128 .L122-.LFB717
 2838 0134 00       		.uleb128 0
 2839 0135 FC08     		.uleb128 .LEHB58-.LFB717
 2840 0137 19       		.uleb128 .LEHE58-.LEHB58
 2841 0138 991F     		.uleb128 .L123-.LFB717
 2842 013a 00       		.uleb128 0
 2843 013b 9C09     		.uleb128 .LEHB59-.LFB717
 2844 013d 2B       		.uleb128 .LEHE59-.LEHB59
 2845 013e 881F     		.uleb128 .L124-.LFB717
 2846 0140 00       		.uleb128 0
 2847 0141 D209     		.uleb128 .LEHB60-.LFB717
 2848 0143 05       		.uleb128 .LEHE60-.LEHB60
 2849 0144 991F     		.uleb128 .L123-.LFB717
 2850 0146 00       		.uleb128 0
 2851 0147 DE09     		.uleb128 .LEHB61-.LFB717
 2852 0149 05       		.uleb128 .LEHE61-.LEHB61
 2853 014a AA1F     		.uleb128 .L122-.LFB717
 2854 014c 00       		.uleb128 0
 2855 014d EA09     		.uleb128 .LEHB62-.LFB717
 2856 014f 0C       		.uleb128 .LEHE62-.LEHB62
 2857 0150 00       		.uleb128 0
 2858 0151 00       		.uleb128 0
 2859 0152 B60A     		.uleb128 .LEHB63-.LFB717
 2860 0154 03       		.uleb128 .LEHE63-.LEHB63
 2861 0155 C41F     		.uleb128 .L125-.LFB717
 2862 0157 00       		.uleb128 0
 2863 0158 C00A     		.uleb128 .LEHB64-.LFB717
 2864 015a 22       		.uleb128 .LEHE64-.LEHB64
 2865 015b 00       		.uleb128 0
 2866 015c 00       		.uleb128 0
 2867 015d A50B     		.uleb128 .LEHB65-.LFB717
 2868 015f 03       		.uleb128 .LEHE65-.LEHB65
 2869 0160 DE1F     		.uleb128 .L126-.LFB717
 2870 0162 00       		.uleb128 0
 2871 0163 AF0B     		.uleb128 .LEHB66-.LFB717
 2872 0165 3A       		.uleb128 .LEHE66-.LEHB66
 2873 0166 00       		.uleb128 0
 2874 0167 00       		.uleb128 0
 2875 0168 B10C     		.uleb128 .LEHB67-.LFB717
 2876 016a 03       		.uleb128 .LEHE67-.LEHB67
 2877 016b F81F     		.uleb128 .L127-.LFB717
 2878 016d 00       		.uleb128 0
 2879 016e BB0C     		.uleb128 .LEHB68-.LFB717
 2880 0170 14       		.uleb128 .LEHE68-.LEHB68
 2881 0171 00       		.uleb128 0
 2882 0172 00       		.uleb128 0
 2883 0173 FE0C     		.uleb128 .LEHB69-.LFB717
 2884 0175 05       		.uleb128 .LEHE69-.LEHB69
GAS LISTING /tmp/ccL6xP0D.s 			page 62


 2885 0176 B420     		.uleb128 .L128-.LFB717
 2886 0178 00       		.uleb128 0
 2887 0179 8A0D     		.uleb128 .LEHB70-.LFB717
 2888 017b 19       		.uleb128 .LEHE70-.LEHB70
 2889 017c A320     		.uleb128 .L129-.LFB717
 2890 017e 00       		.uleb128 0
 2891 017f AA0D     		.uleb128 .LEHB71-.LFB717
 2892 0181 2B       		.uleb128 .LEHE71-.LEHB71
 2893 0182 9220     		.uleb128 .L130-.LFB717
 2894 0184 00       		.uleb128 0
 2895 0185 E00D     		.uleb128 .LEHB72-.LFB717
 2896 0187 05       		.uleb128 .LEHE72-.LEHB72
 2897 0188 A320     		.uleb128 .L129-.LFB717
 2898 018a 00       		.uleb128 0
 2899 018b EC0D     		.uleb128 .LEHB73-.LFB717
 2900 018d 05       		.uleb128 .LEHE73-.LEHB73
 2901 018e B420     		.uleb128 .L128-.LFB717
 2902 0190 00       		.uleb128 0
 2903 0191 F80D     		.uleb128 .LEHB74-.LFB717
 2904 0193 0C       		.uleb128 .LEHE74-.LEHB74
 2905 0194 00       		.uleb128 0
 2906 0195 00       		.uleb128 0
 2907 0196 C40E     		.uleb128 .LEHB75-.LFB717
 2908 0198 03       		.uleb128 .LEHE75-.LEHB75
 2909 0199 CE20     		.uleb128 .L131-.LFB717
 2910 019b 00       		.uleb128 0
 2911 019c CE0E     		.uleb128 .LEHB76-.LFB717
 2912 019e 52       		.uleb128 .LEHE76-.LEHB76
 2913 019f 00       		.uleb128 0
 2914 01a0 00       		.uleb128 0
 2915 01a1 E80F     		.uleb128 .LEHB77-.LFB717
 2916 01a3 03       		.uleb128 .LEHE77-.LEHB77
 2917 01a4 E820     		.uleb128 .L132-.LFB717
 2918 01a6 00       		.uleb128 0
 2919 01a7 F20F     		.uleb128 .LEHB78-.LFB717
 2920 01a9 14       		.uleb128 .LEHE78-.LEHB78
 2921 01aa 00       		.uleb128 0
 2922 01ab 00       		.uleb128 0
 2923 01ac B510     		.uleb128 .LEHB79-.LFB717
 2924 01ae 05       		.uleb128 .LEHE79-.LEHB79
 2925 01af A421     		.uleb128 .L133-.LFB717
 2926 01b1 00       		.uleb128 0
 2927 01b2 C110     		.uleb128 .LEHB80-.LFB717
 2928 01b4 19       		.uleb128 .LEHE80-.LEHB80
 2929 01b5 9321     		.uleb128 .L134-.LFB717
 2930 01b7 00       		.uleb128 0
 2931 01b8 E110     		.uleb128 .LEHB81-.LFB717
 2932 01ba 2B       		.uleb128 .LEHE81-.LEHB81
 2933 01bb 8221     		.uleb128 .L135-.LFB717
 2934 01bd 00       		.uleb128 0
 2935 01be 9711     		.uleb128 .LEHB82-.LFB717
 2936 01c0 05       		.uleb128 .LEHE82-.LEHB82
 2937 01c1 9321     		.uleb128 .L134-.LFB717
 2938 01c3 00       		.uleb128 0
 2939 01c4 A311     		.uleb128 .LEHB83-.LFB717
 2940 01c6 05       		.uleb128 .LEHE83-.LEHB83
 2941 01c7 A421     		.uleb128 .L133-.LFB717
GAS LISTING /tmp/ccL6xP0D.s 			page 63


 2942 01c9 00       		.uleb128 0
 2943 01ca AF11     		.uleb128 .LEHB84-.LFB717
 2944 01cc 0C       		.uleb128 .LEHE84-.LEHB84
 2945 01cd 00       		.uleb128 0
 2946 01ce 00       		.uleb128 0
 2947 01cf FB11     		.uleb128 .LEHB85-.LFB717
 2948 01d1 03       		.uleb128 .LEHE85-.LEHB85
 2949 01d2 BE21     		.uleb128 .L136-.LFB717
 2950 01d4 00       		.uleb128 0
 2951 01d5 8512     		.uleb128 .LEHB86-.LFB717
 2952 01d7 52       		.uleb128 .LEHE86-.LEHB86
 2953 01d8 00       		.uleb128 0
 2954 01d9 00       		.uleb128 0
 2955 01da 9F13     		.uleb128 .LEHB87-.LFB717
 2956 01dc 03       		.uleb128 .LEHE87-.LEHB87
 2957 01dd D821     		.uleb128 .L137-.LFB717
 2958 01df 00       		.uleb128 0
 2959 01e0 A913     		.uleb128 .LEHB88-.LFB717
 2960 01e2 14       		.uleb128 .LEHE88-.LEHB88
 2961 01e3 00       		.uleb128 0
 2962 01e4 00       		.uleb128 0
 2963 01e5 EC13     		.uleb128 .LEHB89-.LFB717
 2964 01e7 05       		.uleb128 .LEHE89-.LEHB89
 2965 01e8 9422     		.uleb128 .L138-.LFB717
 2966 01ea 00       		.uleb128 0
 2967 01eb F813     		.uleb128 .LEHB90-.LFB717
 2968 01ed 19       		.uleb128 .LEHE90-.LEHB90
 2969 01ee 8322     		.uleb128 .L139-.LFB717
 2970 01f0 00       		.uleb128 0
 2971 01f1 9814     		.uleb128 .LEHB91-.LFB717
 2972 01f3 2B       		.uleb128 .LEHE91-.LEHB91
 2973 01f4 F221     		.uleb128 .L140-.LFB717
 2974 01f6 00       		.uleb128 0
 2975 01f7 CE14     		.uleb128 .LEHB92-.LFB717
 2976 01f9 05       		.uleb128 .LEHE92-.LEHB92
 2977 01fa 8322     		.uleb128 .L139-.LFB717
 2978 01fc 00       		.uleb128 0
 2979 01fd DA14     		.uleb128 .LEHB93-.LFB717
 2980 01ff 05       		.uleb128 .LEHE93-.LEHB93
 2981 0200 9422     		.uleb128 .L138-.LFB717
 2982 0202 00       		.uleb128 0
 2983 0203 E614     		.uleb128 .LEHB94-.LFB717
 2984 0205 0C       		.uleb128 .LEHE94-.LEHB94
 2985 0206 00       		.uleb128 0
 2986 0207 00       		.uleb128 0
 2987 0208 B215     		.uleb128 .LEHB95-.LFB717
 2988 020a 03       		.uleb128 .LEHE95-.LEHB95
 2989 020b AE22     		.uleb128 .L141-.LFB717
 2990 020d 00       		.uleb128 0
 2991 020e BC15     		.uleb128 .LEHB96-.LFB717
 2992 0210 52       		.uleb128 .LEHE96-.LEHB96
 2993 0211 00       		.uleb128 0
 2994 0212 00       		.uleb128 0
 2995 0213 D616     		.uleb128 .LEHB97-.LFB717
 2996 0215 03       		.uleb128 .LEHE97-.LEHB97
 2997 0216 C822     		.uleb128 .L142-.LFB717
 2998 0218 00       		.uleb128 0
GAS LISTING /tmp/ccL6xP0D.s 			page 64


 2999 0219 E016     		.uleb128 .LEHB98-.LFB717
 3000 021b 14       		.uleb128 .LEHE98-.LEHB98
 3001 021c 00       		.uleb128 0
 3002 021d 00       		.uleb128 0
 3003 021e A317     		.uleb128 .LEHB99-.LFB717
 3004 0220 05       		.uleb128 .LEHE99-.LEHB99
 3005 0221 8423     		.uleb128 .L143-.LFB717
 3006 0223 00       		.uleb128 0
 3007 0224 AF17     		.uleb128 .LEHB100-.LFB717
 3008 0226 19       		.uleb128 .LEHE100-.LEHB100
 3009 0227 F322     		.uleb128 .L144-.LFB717
 3010 0229 00       		.uleb128 0
 3011 022a CF17     		.uleb128 .LEHB101-.LFB717
 3012 022c 2B       		.uleb128 .LEHE101-.LEHB101
 3013 022d E222     		.uleb128 .L145-.LFB717
 3014 022f 00       		.uleb128 0
 3015 0230 8518     		.uleb128 .LEHB102-.LFB717
 3016 0232 05       		.uleb128 .LEHE102-.LEHB102
 3017 0233 F322     		.uleb128 .L144-.LFB717
 3018 0235 00       		.uleb128 0
 3019 0236 9118     		.uleb128 .LEHB103-.LFB717
 3020 0238 05       		.uleb128 .LEHE103-.LEHB103
 3021 0239 8423     		.uleb128 .L143-.LFB717
 3022 023b 00       		.uleb128 0
 3023 023c 9D18     		.uleb128 .LEHB104-.LFB717
 3024 023e 0C       		.uleb128 .LEHE104-.LEHB104
 3025 023f 00       		.uleb128 0
 3026 0240 00       		.uleb128 0
 3027 0241 E918     		.uleb128 .LEHB105-.LFB717
 3028 0243 03       		.uleb128 .LEHE105-.LEHB105
 3029 0244 9E23     		.uleb128 .L146-.LFB717
 3030 0246 00       		.uleb128 0
 3031 0247 F318     		.uleb128 .LEHB106-.LFB717
 3032 0249 22       		.uleb128 .LEHE106-.LEHB106
 3033 024a 00       		.uleb128 0
 3034 024b 00       		.uleb128 0
 3035 024c D819     		.uleb128 .LEHB107-.LFB717
 3036 024e 03       		.uleb128 .LEHE107-.LEHB107
 3037 024f B823     		.uleb128 .L147-.LFB717
 3038 0251 00       		.uleb128 0
 3039 0252 E219     		.uleb128 .LEHB108-.LFB717
 3040 0254 3A       		.uleb128 .LEHE108-.LEHB108
 3041 0255 00       		.uleb128 0
 3042 0256 00       		.uleb128 0
 3043 0257 E41A     		.uleb128 .LEHB109-.LFB717
 3044 0259 03       		.uleb128 .LEHE109-.LEHB109
 3045 025a D223     		.uleb128 .L148-.LFB717
 3046 025c 00       		.uleb128 0
 3047 025d EE1A     		.uleb128 .LEHB110-.LFB717
 3048 025f 14       		.uleb128 .LEHE110-.LEHB110
 3049 0260 00       		.uleb128 0
 3050 0261 00       		.uleb128 0
 3051 0262 B11B     		.uleb128 .LEHB111-.LFB717
 3052 0264 05       		.uleb128 .LEHE111-.LEHB111
 3053 0265 8E24     		.uleb128 .L149-.LFB717
 3054 0267 00       		.uleb128 0
 3055 0268 BD1B     		.uleb128 .LEHB112-.LFB717
GAS LISTING /tmp/ccL6xP0D.s 			page 65


 3056 026a 19       		.uleb128 .LEHE112-.LEHB112
 3057 026b FD23     		.uleb128 .L150-.LFB717
 3058 026d 00       		.uleb128 0
 3059 026e DD1B     		.uleb128 .LEHB113-.LFB717
 3060 0270 2B       		.uleb128 .LEHE113-.LEHB113
 3061 0271 EC23     		.uleb128 .L151-.LFB717
 3062 0273 00       		.uleb128 0
 3063 0274 931C     		.uleb128 .LEHB114-.LFB717
 3064 0276 05       		.uleb128 .LEHE114-.LEHB114
 3065 0277 FD23     		.uleb128 .L150-.LFB717
 3066 0279 00       		.uleb128 0
 3067 027a 9F1C     		.uleb128 .LEHB115-.LFB717
 3068 027c 05       		.uleb128 .LEHE115-.LEHB115
 3069 027d 8E24     		.uleb128 .L149-.LFB717
 3070 027f 00       		.uleb128 0
 3071 0280 AB1C     		.uleb128 .LEHB116-.LFB717
 3072 0282 0F       		.uleb128 .LEHE116-.LEHB116
 3073 0283 00       		.uleb128 0
 3074 0284 00       		.uleb128 0
 3075 0285 FA1C     		.uleb128 .LEHB117-.LFB717
 3076 0287 03       		.uleb128 .LEHE117-.LEHB117
 3077 0288 A824     		.uleb128 .L152-.LFB717
 3078 028a 00       		.uleb128 0
 3079 028b 841D     		.uleb128 .LEHB118-.LFB717
 3080 028d 05       		.uleb128 .LEHE118-.LEHB118
 3081 028e 00       		.uleb128 0
 3082 028f 00       		.uleb128 0
 3083 0290 A31D     		.uleb128 .LEHB119-.LFB717
 3084 0292 05       		.uleb128 .LEHE119-.LEHB119
 3085 0293 00       		.uleb128 0
 3086 0294 00       		.uleb128 0
 3087 0295 DF1D     		.uleb128 .LEHB120-.LFB717
 3088 0297 05       		.uleb128 .LEHE120-.LEHB120
 3089 0298 00       		.uleb128 0
 3090 0299 00       		.uleb128 0
 3091 029a F91D     		.uleb128 .LEHB121-.LFB717
 3092 029c 05       		.uleb128 .LEHE121-.LEHB121
 3093 029d 00       		.uleb128 0
 3094 029e 00       		.uleb128 0
 3095 029f 931E     		.uleb128 .LEHB122-.LFB717
 3096 02a1 05       		.uleb128 .LEHE122-.LEHB122
 3097 02a2 00       		.uleb128 0
 3098 02a3 00       		.uleb128 0
 3099 02a4 CF1E     		.uleb128 .LEHB123-.LFB717
 3100 02a6 05       		.uleb128 .LEHE123-.LEHB123
 3101 02a7 00       		.uleb128 0
 3102 02a8 00       		.uleb128 0
 3103 02a9 E91E     		.uleb128 .LEHB124-.LFB717
 3104 02ab 05       		.uleb128 .LEHE124-.LEHB124
 3105 02ac 00       		.uleb128 0
 3106 02ad 00       		.uleb128 0
 3107 02ae 831F     		.uleb128 .LEHB125-.LFB717
 3108 02b0 05       		.uleb128 .LEHE125-.LEHB125
 3109 02b1 00       		.uleb128 0
 3110 02b2 00       		.uleb128 0
 3111 02b3 BF1F     		.uleb128 .LEHB126-.LFB717
 3112 02b5 05       		.uleb128 .LEHE126-.LEHB126
GAS LISTING /tmp/ccL6xP0D.s 			page 66


 3113 02b6 00       		.uleb128 0
 3114 02b7 00       		.uleb128 0
 3115 02b8 D91F     		.uleb128 .LEHB127-.LFB717
 3116 02ba 05       		.uleb128 .LEHE127-.LEHB127
 3117 02bb 00       		.uleb128 0
 3118 02bc 00       		.uleb128 0
 3119 02bd F31F     		.uleb128 .LEHB128-.LFB717
 3120 02bf 05       		.uleb128 .LEHE128-.LEHB128
 3121 02c0 00       		.uleb128 0
 3122 02c1 00       		.uleb128 0
 3123 02c2 8D20     		.uleb128 .LEHB129-.LFB717
 3124 02c4 05       		.uleb128 .LEHE129-.LEHB129
 3125 02c5 00       		.uleb128 0
 3126 02c6 00       		.uleb128 0
 3127 02c7 C920     		.uleb128 .LEHB130-.LFB717
 3128 02c9 05       		.uleb128 .LEHE130-.LEHB130
 3129 02ca 00       		.uleb128 0
 3130 02cb 00       		.uleb128 0
 3131 02cc E320     		.uleb128 .LEHB131-.LFB717
 3132 02ce 05       		.uleb128 .LEHE131-.LEHB131
 3133 02cf 00       		.uleb128 0
 3134 02d0 00       		.uleb128 0
 3135 02d1 FD20     		.uleb128 .LEHB132-.LFB717
 3136 02d3 05       		.uleb128 .LEHE132-.LEHB132
 3137 02d4 00       		.uleb128 0
 3138 02d5 00       		.uleb128 0
 3139 02d6 B921     		.uleb128 .LEHB133-.LFB717
 3140 02d8 05       		.uleb128 .LEHE133-.LEHB133
 3141 02d9 00       		.uleb128 0
 3142 02da 00       		.uleb128 0
 3143 02db D321     		.uleb128 .LEHB134-.LFB717
 3144 02dd 05       		.uleb128 .LEHE134-.LEHB134
 3145 02de 00       		.uleb128 0
 3146 02df 00       		.uleb128 0
 3147 02e0 ED21     		.uleb128 .LEHB135-.LFB717
 3148 02e2 05       		.uleb128 .LEHE135-.LEHB135
 3149 02e3 00       		.uleb128 0
 3150 02e4 00       		.uleb128 0
 3151 02e5 A922     		.uleb128 .LEHB136-.LFB717
 3152 02e7 05       		.uleb128 .LEHE136-.LEHB136
 3153 02e8 00       		.uleb128 0
 3154 02e9 00       		.uleb128 0
 3155 02ea C322     		.uleb128 .LEHB137-.LFB717
 3156 02ec 05       		.uleb128 .LEHE137-.LEHB137
 3157 02ed 00       		.uleb128 0
 3158 02ee 00       		.uleb128 0
 3159 02ef DD22     		.uleb128 .LEHB138-.LFB717
 3160 02f1 05       		.uleb128 .LEHE138-.LEHB138
 3161 02f2 00       		.uleb128 0
 3162 02f3 00       		.uleb128 0
 3163 02f4 9923     		.uleb128 .LEHB139-.LFB717
 3164 02f6 05       		.uleb128 .LEHE139-.LEHB139
 3165 02f7 00       		.uleb128 0
 3166 02f8 00       		.uleb128 0
 3167 02f9 B323     		.uleb128 .LEHB140-.LFB717
 3168 02fb 05       		.uleb128 .LEHE140-.LEHB140
 3169 02fc 00       		.uleb128 0
GAS LISTING /tmp/ccL6xP0D.s 			page 67


 3170 02fd 00       		.uleb128 0
 3171 02fe CD23     		.uleb128 .LEHB141-.LFB717
 3172 0300 05       		.uleb128 .LEHE141-.LEHB141
 3173 0301 00       		.uleb128 0
 3174 0302 00       		.uleb128 0
 3175 0303 E723     		.uleb128 .LEHB142-.LFB717
 3176 0305 05       		.uleb128 .LEHE142-.LEHB142
 3177 0306 00       		.uleb128 0
 3178 0307 00       		.uleb128 0
 3179 0308 A324     		.uleb128 .LEHB143-.LFB717
 3180 030a 05       		.uleb128 .LEHE143-.LEHB143
 3181 030b 00       		.uleb128 0
 3182 030c 00       		.uleb128 0
 3183 030d BD24     		.uleb128 .LEHB144-.LFB717
 3184 030f 05       		.uleb128 .LEHE144-.LEHB144
 3185 0310 00       		.uleb128 0
 3186 0311 00       		.uleb128 0
 3187              	.LLSDACSE717:
 3188              		.text
 3190              		.weak	_ZTV72TEST_hsm_1_layer_simple_Should_HandleSimpleOnOffHSMWithNoEvents_old_Test
 3191              		.section	.rodata._ZTV72TEST_hsm_1_layer_simple_Should_HandleSimpleOnOffHSMWithNoEvents_old_Test,"a
 3192              		.align 8
 3195              	_ZTV72TEST_hsm_1_layer_simple_Should_HandleSimpleOnOffHSMWithNoEvents_old_Test:
 3196 0000 00000000 		.quad	0
 3196      00000000 
 3197 0008 00000000 		.quad	_ZTI72TEST_hsm_1_layer_simple_Should_HandleSimpleOnOffHSMWithNoEvents_old_Test
 3197      00000000 
 3198 0010 00000000 		.quad	_ZN72TEST_hsm_1_layer_simple_Should_HandleSimpleOnOffHSMWithNoEvents_old_TestD1Ev
 3198      00000000 
 3199 0018 00000000 		.quad	_ZN72TEST_hsm_1_layer_simple_Should_HandleSimpleOnOffHSMWithNoEvents_old_TestD0Ev
 3199      00000000 
 3200 0020 00000000 		.quad	_ZN5Utest3runEv
 3200      00000000 
 3201 0028 00000000 		.quad	_ZN42TEST_GROUP_CppUTestGrouphsm_1_layer_simple5setupEv
 3201      00000000 
 3202 0030 00000000 		.quad	_ZN42TEST_GROUP_CppUTestGrouphsm_1_layer_simple8teardownEv
 3202      00000000 
 3203 0038 00000000 		.quad	_ZN72TEST_hsm_1_layer_simple_Should_HandleSimpleOnOffHSMWithNoEvents_old_Test8testBodyEv
 3203      00000000 
 3204              		.section	.text._ZN72TEST_hsm_1_layer_simple_Should_HandleSimpleOnOffHSMWithNoEvents_old_TestD2Ev,"
 3205              		.align 2
 3206              		.weak	_ZN72TEST_hsm_1_layer_simple_Should_HandleSimpleOnOffHSMWithNoEvents_old_TestD2Ev
 3208              	_ZN72TEST_hsm_1_layer_simple_Should_HandleSimpleOnOffHSMWithNoEvents_old_TestD2Ev:
 3209              	.LFB719:
 3210              		.cfi_startproc
 3211 0000 55       		pushq	%rbp
 3212              		.cfi_def_cfa_offset 16
 3213              		.cfi_offset 6, -16
 3214 0001 4889E5   		movq	%rsp, %rbp
 3215              		.cfi_def_cfa_register 6
 3216 0004 4883EC10 		subq	$16, %rsp
 3217 0008 48897DF8 		movq	%rdi, -8(%rbp)
 3218 000c BA000000 		movl	$_ZTV72TEST_hsm_1_layer_simple_Should_HandleSimpleOnOffHSMWithNoEvents_old_Test+16, %edx
 3218      00
 3219 0011 488B45F8 		movq	-8(%rbp), %rax
 3220 0015 488910   		movq	%rdx, (%rax)
 3221 0018 488B45F8 		movq	-8(%rbp), %rax
GAS LISTING /tmp/ccL6xP0D.s 			page 68


 3222 001c 4889C7   		movq	%rax, %rdi
 3223 001f E8000000 		call	_ZN42TEST_GROUP_CppUTestGrouphsm_1_layer_simpleD2Ev
 3223      00
 3224 0024 B8000000 		movl	$0, %eax
 3224      00
 3225 0029 85C0     		testl	%eax, %eax
 3226 002b 740C     		je	.L153
 3227 002d 488B45F8 		movq	-8(%rbp), %rax
 3228 0031 4889C7   		movq	%rax, %rdi
 3229 0034 E8000000 		call	_ZdlPv
 3229      00
 3230              	.L153:
 3231 0039 C9       		leave
 3232              		.cfi_def_cfa 7, 8
 3233 003a C3       		ret
 3234              		.cfi_endproc
 3235              	.LFE719:
 3237              		.weak	_ZN72TEST_hsm_1_layer_simple_Should_HandleSimpleOnOffHSMWithNoEvents_old_TestD1Ev
 3238              		.set	_ZN72TEST_hsm_1_layer_simple_Should_HandleSimpleOnOffHSMWithNoEvents_old_TestD1Ev,_ZN72TEST_h
 3239              		.section	.text._ZN72TEST_hsm_1_layer_simple_Should_HandleSimpleOnOffHSMWithNoEvents_old_TestD0Ev,"
 3240              		.align 2
 3241              		.weak	_ZN72TEST_hsm_1_layer_simple_Should_HandleSimpleOnOffHSMWithNoEvents_old_TestD0Ev
 3243              	_ZN72TEST_hsm_1_layer_simple_Should_HandleSimpleOnOffHSMWithNoEvents_old_TestD0Ev:
 3244              	.LFB721:
 3245              		.cfi_startproc
 3246 0000 55       		pushq	%rbp
 3247              		.cfi_def_cfa_offset 16
 3248              		.cfi_offset 6, -16
 3249 0001 4889E5   		movq	%rsp, %rbp
 3250              		.cfi_def_cfa_register 6
 3251 0004 4883EC10 		subq	$16, %rsp
 3252 0008 48897DF8 		movq	%rdi, -8(%rbp)
 3253 000c 488B45F8 		movq	-8(%rbp), %rax
 3254 0010 4889C7   		movq	%rax, %rdi
 3255 0013 E8000000 		call	_ZN72TEST_hsm_1_layer_simple_Should_HandleSimpleOnOffHSMWithNoEvents_old_TestD1Ev
 3255      00
 3256 0018 488B45F8 		movq	-8(%rbp), %rax
 3257 001c 4889C7   		movq	%rax, %rdi
 3258 001f E8000000 		call	_ZdlPv
 3258      00
 3259 0024 C9       		leave
 3260              		.cfi_def_cfa 7, 8
 3261 0025 C3       		ret
 3262              		.cfi_endproc
 3263              	.LFE721:
 3265              		.weak	_ZTV77TEST_hsm_1_layer_simple_Should_HandleSimpleOnOffHSMWithNoEvents_old_TestShell
 3266              		.section	.rodata._ZTV77TEST_hsm_1_layer_simple_Should_HandleSimpleOnOffHSMWithNoEvents_old_TestShe
 3267              		.align 8
 3270              	_ZTV77TEST_hsm_1_layer_simple_Should_HandleSimpleOnOffHSMWithNoEvents_old_TestShell:
 3271 0000 00000000 		.quad	0
 3271      00000000 
 3272 0008 00000000 		.quad	_ZTI77TEST_hsm_1_layer_simple_Should_HandleSimpleOnOffHSMWithNoEvents_old_TestShell
 3272      00000000 
 3273 0010 00000000 		.quad	_ZN77TEST_hsm_1_layer_simple_Should_HandleSimpleOnOffHSMWithNoEvents_old_TestShellD1Ev
 3273      00000000 
 3274 0018 00000000 		.quad	_ZN77TEST_hsm_1_layer_simple_Should_HandleSimpleOnOffHSMWithNoEvents_old_TestShellD0Ev
 3274      00000000 
GAS LISTING /tmp/ccL6xP0D.s 			page 69


 3275 0020 00000000 		.quad	_ZN10UtestShell7addTestEPS_
 3275      00000000 
 3276 0028 00000000 		.quad	_ZNK10UtestShell7getNextEv
 3276      00000000 
 3277 0030 00000000 		.quad	_ZN10UtestShell10countTestsEv
 3277      00000000 
 3278 0038 00000000 		.quad	_ZNK10UtestShell16getFormattedNameEv
 3278      00000000 
 3279 0040 00000000 		.quad	_ZNK10UtestShell7willRunEv
 3279      00000000 
 3280 0048 00000000 		.quad	_ZNK10UtestShell9hasFailedEv
 3280      00000000 
 3281 0050 00000000 		.quad	_ZN10UtestShell10assertTrueEbPKcS1_S1_iRK14TestTerminator
 3281      00000000 
 3282 0058 00000000 		.quad	_ZN10UtestShell14assertTrueTextEbPKcS1_S1_S1_iRK14TestTerminator
 3282      00000000 
 3283 0060 00000000 		.quad	_ZN10UtestShell15assertCstrEqualEPKcS1_S1_iRK14TestTerminator
 3283      00000000 
 3284 0068 00000000 		.quad	_ZN10UtestShell16assertCstrNEqualEPKcS1_mS1_iRK14TestTerminator
 3284      00000000 
 3285 0070 00000000 		.quad	_ZN10UtestShell21assertCstrNoCaseEqualEPKcS1_S1_i
 3285      00000000 
 3286 0078 00000000 		.quad	_ZN10UtestShell18assertCstrContainsEPKcS1_S1_i
 3286      00000000 
 3287 0080 00000000 		.quad	_ZN10UtestShell24assertCstrNoCaseContainsEPKcS1_S1_i
 3287      00000000 
 3288 0088 00000000 		.quad	_ZN10UtestShell16assertLongsEqualEllPKciRK14TestTerminator
 3288      00000000 
 3289 0090 00000000 		.quad	_ZN10UtestShell24assertUnsignedLongsEqualEmmPKciRK14TestTerminator
 3289      00000000 
 3290 0098 00000000 		.quad	_ZN10UtestShell19assertPointersEqualEPKvS1_PKci
 3290      00000000 
 3291 00a0 00000000 		.quad	_ZN10UtestShell18assertDoublesEqualEdddPKciRK14TestTerminator
 3291      00000000 
 3292 00a8 00000000 		.quad	_ZN10UtestShell12assertEqualsEbPKcS1_S1_iRK14TestTerminator
 3292      00000000 
 3293 00b0 00000000 		.quad	_ZN10UtestShell17assertBinaryEqualEPKvS1_mPKciRK14TestTerminator
 3293      00000000 
 3294 00b8 00000000 		.quad	_ZN10UtestShell4failEPKcS1_iRK14TestTerminator
 3294      00000000 
 3295 00c0 00000000 		.quad	_ZN10UtestShell5printEPKcS1_i
 3295      00000000 
 3296 00c8 00000000 		.quad	_ZN10UtestShell5printERK12SimpleStringPKci
 3296      00000000 
 3297 00d0 00000000 		.quad	_ZNK10UtestShell22isRunInSeperateProcessEv
 3297      00000000 
 3298 00d8 00000000 		.quad	_ZN10UtestShell23setRunInSeperateProcessEv
 3298      00000000 
 3299 00e0 00000000 		.quad	_ZN77TEST_hsm_1_layer_simple_Should_HandleSimpleOnOffHSMWithNoEvents_old_TestShell10createTe
 3299      00000000 
 3300 00e8 00000000 		.quad	_ZN10UtestShell11destroyTestEP5Utest
 3300      00000000 
 3301 00f0 00000000 		.quad	_ZN10UtestShell10runOneTestEP10TestPluginR10TestResult
 3301      00000000 
 3302 00f8 00000000 		.quad	_ZN10UtestShell26runOneTestInCurrentProcessEP10TestPluginR10TestResult
 3302      00000000 
 3303 0100 00000000 		.quad	_ZN10UtestShell8failWithERK11TestFailure
GAS LISTING /tmp/ccL6xP0D.s 			page 70


 3303      00000000 
 3304 0108 00000000 		.quad	_ZN10UtestShell8failWithERK11TestFailureRK14TestTerminator
 3304      00000000 
 3305 0110 00000000 		.quad	_ZNK10UtestShell12getMacroNameEv
 3305      00000000 
 3306              		.section	.text._ZN77TEST_hsm_1_layer_simple_Should_HandleSimpleOnOffHSMWithNoEvents_old_TestShellD
 3307              		.align 2
 3308              		.weak	_ZN77TEST_hsm_1_layer_simple_Should_HandleSimpleOnOffHSMWithNoEvents_old_TestShellD2Ev
 3310              	_ZN77TEST_hsm_1_layer_simple_Should_HandleSimpleOnOffHSMWithNoEvents_old_TestShellD2Ev:
 3311              	.LFB723:
 3312              		.cfi_startproc
 3313 0000 55       		pushq	%rbp
 3314              		.cfi_def_cfa_offset 16
 3315              		.cfi_offset 6, -16
 3316 0001 4889E5   		movq	%rsp, %rbp
 3317              		.cfi_def_cfa_register 6
 3318 0004 4883EC10 		subq	$16, %rsp
 3319 0008 48897DF8 		movq	%rdi, -8(%rbp)
 3320 000c BA000000 		movl	$_ZTV77TEST_hsm_1_layer_simple_Should_HandleSimpleOnOffHSMWithNoEvents_old_TestShell+16, %edx
 3320      00
 3321 0011 488B45F8 		movq	-8(%rbp), %rax
 3322 0015 488910   		movq	%rdx, (%rax)
 3323 0018 488B45F8 		movq	-8(%rbp), %rax
 3324 001c 4889C7   		movq	%rax, %rdi
 3325 001f E8000000 		call	_ZN10UtestShellD2Ev
 3325      00
 3326 0024 B8000000 		movl	$0, %eax
 3326      00
 3327 0029 85C0     		testl	%eax, %eax
 3328 002b 740C     		je	.L156
 3329 002d 488B45F8 		movq	-8(%rbp), %rax
 3330 0031 4889C7   		movq	%rax, %rdi
 3331 0034 E8000000 		call	_ZdlPv
 3331      00
 3332              	.L156:
 3333 0039 C9       		leave
 3334              		.cfi_def_cfa 7, 8
 3335 003a C3       		ret
 3336              		.cfi_endproc
 3337              	.LFE723:
 3339              		.weak	_ZN77TEST_hsm_1_layer_simple_Should_HandleSimpleOnOffHSMWithNoEvents_old_TestShellD1Ev
 3340              		.set	_ZN77TEST_hsm_1_layer_simple_Should_HandleSimpleOnOffHSMWithNoEvents_old_TestShellD1Ev,_ZN77T
 3341              		.section	.text._ZN77TEST_hsm_1_layer_simple_Should_HandleSimpleOnOffHSMWithNoEvents_old_TestShellD
 3342              		.align 2
 3343              		.weak	_ZN77TEST_hsm_1_layer_simple_Should_HandleSimpleOnOffHSMWithNoEvents_old_TestShellD0Ev
 3345              	_ZN77TEST_hsm_1_layer_simple_Should_HandleSimpleOnOffHSMWithNoEvents_old_TestShellD0Ev:
 3346              	.LFB725:
 3347              		.cfi_startproc
 3348 0000 55       		pushq	%rbp
 3349              		.cfi_def_cfa_offset 16
 3350              		.cfi_offset 6, -16
 3351 0001 4889E5   		movq	%rsp, %rbp
 3352              		.cfi_def_cfa_register 6
 3353 0004 4883EC10 		subq	$16, %rsp
 3354 0008 48897DF8 		movq	%rdi, -8(%rbp)
 3355 000c 488B45F8 		movq	-8(%rbp), %rax
 3356 0010 4889C7   		movq	%rax, %rdi
GAS LISTING /tmp/ccL6xP0D.s 			page 71


 3357 0013 E8000000 		call	_ZN77TEST_hsm_1_layer_simple_Should_HandleSimpleOnOffHSMWithNoEvents_old_TestShellD1Ev
 3357      00
 3358 0018 488B45F8 		movq	-8(%rbp), %rax
 3359 001c 4889C7   		movq	%rax, %rdi
 3360 001f E8000000 		call	_ZdlPv
 3360      00
 3361 0024 C9       		leave
 3362              		.cfi_def_cfa 7, 8
 3363 0025 C3       		ret
 3364              		.cfi_endproc
 3365              	.LFE725:
 3367              		.weak	_ZTV68TEST_hsm_1_layer_simple_Should_HandleSimpleOnOffHSMWithNoEvents_Test
 3368              		.section	.rodata._ZTV68TEST_hsm_1_layer_simple_Should_HandleSimpleOnOffHSMWithNoEvents_Test,"aG",@
 3369              		.align 8
 3372              	_ZTV68TEST_hsm_1_layer_simple_Should_HandleSimpleOnOffHSMWithNoEvents_Test:
 3373 0000 00000000 		.quad	0
 3373      00000000 
 3374 0008 00000000 		.quad	_ZTI68TEST_hsm_1_layer_simple_Should_HandleSimpleOnOffHSMWithNoEvents_Test
 3374      00000000 
 3375 0010 00000000 		.quad	_ZN68TEST_hsm_1_layer_simple_Should_HandleSimpleOnOffHSMWithNoEvents_TestD1Ev
 3375      00000000 
 3376 0018 00000000 		.quad	_ZN68TEST_hsm_1_layer_simple_Should_HandleSimpleOnOffHSMWithNoEvents_TestD0Ev
 3376      00000000 
 3377 0020 00000000 		.quad	_ZN5Utest3runEv
 3377      00000000 
 3378 0028 00000000 		.quad	_ZN42TEST_GROUP_CppUTestGrouphsm_1_layer_simple5setupEv
 3378      00000000 
 3379 0030 00000000 		.quad	_ZN42TEST_GROUP_CppUTestGrouphsm_1_layer_simple8teardownEv
 3379      00000000 
 3380 0038 00000000 		.quad	_ZN68TEST_hsm_1_layer_simple_Should_HandleSimpleOnOffHSMWithNoEvents_Test8testBodyEv
 3380      00000000 
 3381              		.section	.text._ZN68TEST_hsm_1_layer_simple_Should_HandleSimpleOnOffHSMWithNoEvents_TestD2Ev,"axG"
 3382              		.align 2
 3383              		.weak	_ZN68TEST_hsm_1_layer_simple_Should_HandleSimpleOnOffHSMWithNoEvents_TestD2Ev
 3385              	_ZN68TEST_hsm_1_layer_simple_Should_HandleSimpleOnOffHSMWithNoEvents_TestD2Ev:
 3386              	.LFB727:
 3387              		.cfi_startproc
 3388 0000 55       		pushq	%rbp
 3389              		.cfi_def_cfa_offset 16
 3390              		.cfi_offset 6, -16
 3391 0001 4889E5   		movq	%rsp, %rbp
 3392              		.cfi_def_cfa_register 6
 3393 0004 4883EC10 		subq	$16, %rsp
 3394 0008 48897DF8 		movq	%rdi, -8(%rbp)
 3395 000c BA000000 		movl	$_ZTV68TEST_hsm_1_layer_simple_Should_HandleSimpleOnOffHSMWithNoEvents_Test+16, %edx
 3395      00
 3396 0011 488B45F8 		movq	-8(%rbp), %rax
 3397 0015 488910   		movq	%rdx, (%rax)
 3398 0018 488B45F8 		movq	-8(%rbp), %rax
 3399 001c 4889C7   		movq	%rax, %rdi
 3400 001f E8000000 		call	_ZN42TEST_GROUP_CppUTestGrouphsm_1_layer_simpleD2Ev
 3400      00
 3401 0024 B8000000 		movl	$0, %eax
 3401      00
 3402 0029 85C0     		testl	%eax, %eax
 3403 002b 740C     		je	.L159
 3404 002d 488B45F8 		movq	-8(%rbp), %rax
GAS LISTING /tmp/ccL6xP0D.s 			page 72


 3405 0031 4889C7   		movq	%rax, %rdi
 3406 0034 E8000000 		call	_ZdlPv
 3406      00
 3407              	.L159:
 3408 0039 C9       		leave
 3409              		.cfi_def_cfa 7, 8
 3410 003a C3       		ret
 3411              		.cfi_endproc
 3412              	.LFE727:
 3414              		.weak	_ZN68TEST_hsm_1_layer_simple_Should_HandleSimpleOnOffHSMWithNoEvents_TestD1Ev
 3415              		.set	_ZN68TEST_hsm_1_layer_simple_Should_HandleSimpleOnOffHSMWithNoEvents_TestD1Ev,_ZN68TEST_hsm_1
 3416              		.section	.text._ZN68TEST_hsm_1_layer_simple_Should_HandleSimpleOnOffHSMWithNoEvents_TestD0Ev,"axG"
 3417              		.align 2
 3418              		.weak	_ZN68TEST_hsm_1_layer_simple_Should_HandleSimpleOnOffHSMWithNoEvents_TestD0Ev
 3420              	_ZN68TEST_hsm_1_layer_simple_Should_HandleSimpleOnOffHSMWithNoEvents_TestD0Ev:
 3421              	.LFB729:
 3422              		.cfi_startproc
 3423 0000 55       		pushq	%rbp
 3424              		.cfi_def_cfa_offset 16
 3425              		.cfi_offset 6, -16
 3426 0001 4889E5   		movq	%rsp, %rbp
 3427              		.cfi_def_cfa_register 6
 3428 0004 4883EC10 		subq	$16, %rsp
 3429 0008 48897DF8 		movq	%rdi, -8(%rbp)
 3430 000c 488B45F8 		movq	-8(%rbp), %rax
 3431 0010 4889C7   		movq	%rax, %rdi
 3432 0013 E8000000 		call	_ZN68TEST_hsm_1_layer_simple_Should_HandleSimpleOnOffHSMWithNoEvents_TestD1Ev
 3432      00
 3433 0018 488B45F8 		movq	-8(%rbp), %rax
 3434 001c 4889C7   		movq	%rax, %rdi
 3435 001f E8000000 		call	_ZdlPv
 3435      00
 3436 0024 C9       		leave
 3437              		.cfi_def_cfa 7, 8
 3438 0025 C3       		ret
 3439              		.cfi_endproc
 3440              	.LFE729:
 3442              		.weak	_ZTV73TEST_hsm_1_layer_simple_Should_HandleSimpleOnOffHSMWithNoEvents_TestShell
 3443              		.section	.rodata._ZTV73TEST_hsm_1_layer_simple_Should_HandleSimpleOnOffHSMWithNoEvents_TestShell,"
 3444              		.align 8
 3447              	_ZTV73TEST_hsm_1_layer_simple_Should_HandleSimpleOnOffHSMWithNoEvents_TestShell:
 3448 0000 00000000 		.quad	0
 3448      00000000 
 3449 0008 00000000 		.quad	_ZTI73TEST_hsm_1_layer_simple_Should_HandleSimpleOnOffHSMWithNoEvents_TestShell
 3449      00000000 
 3450 0010 00000000 		.quad	_ZN73TEST_hsm_1_layer_simple_Should_HandleSimpleOnOffHSMWithNoEvents_TestShellD1Ev
 3450      00000000 
 3451 0018 00000000 		.quad	_ZN73TEST_hsm_1_layer_simple_Should_HandleSimpleOnOffHSMWithNoEvents_TestShellD0Ev
 3451      00000000 
 3452 0020 00000000 		.quad	_ZN10UtestShell7addTestEPS_
 3452      00000000 
 3453 0028 00000000 		.quad	_ZNK10UtestShell7getNextEv
 3453      00000000 
 3454 0030 00000000 		.quad	_ZN10UtestShell10countTestsEv
 3454      00000000 
 3455 0038 00000000 		.quad	_ZNK10UtestShell16getFormattedNameEv
 3455      00000000 
GAS LISTING /tmp/ccL6xP0D.s 			page 73


 3456 0040 00000000 		.quad	_ZNK10UtestShell7willRunEv
 3456      00000000 
 3457 0048 00000000 		.quad	_ZNK10UtestShell9hasFailedEv
 3457      00000000 
 3458 0050 00000000 		.quad	_ZN10UtestShell10assertTrueEbPKcS1_S1_iRK14TestTerminator
 3458      00000000 
 3459 0058 00000000 		.quad	_ZN10UtestShell14assertTrueTextEbPKcS1_S1_S1_iRK14TestTerminator
 3459      00000000 
 3460 0060 00000000 		.quad	_ZN10UtestShell15assertCstrEqualEPKcS1_S1_iRK14TestTerminator
 3460      00000000 
 3461 0068 00000000 		.quad	_ZN10UtestShell16assertCstrNEqualEPKcS1_mS1_iRK14TestTerminator
 3461      00000000 
 3462 0070 00000000 		.quad	_ZN10UtestShell21assertCstrNoCaseEqualEPKcS1_S1_i
 3462      00000000 
 3463 0078 00000000 		.quad	_ZN10UtestShell18assertCstrContainsEPKcS1_S1_i
 3463      00000000 
 3464 0080 00000000 		.quad	_ZN10UtestShell24assertCstrNoCaseContainsEPKcS1_S1_i
 3464      00000000 
 3465 0088 00000000 		.quad	_ZN10UtestShell16assertLongsEqualEllPKciRK14TestTerminator
 3465      00000000 
 3466 0090 00000000 		.quad	_ZN10UtestShell24assertUnsignedLongsEqualEmmPKciRK14TestTerminator
 3466      00000000 
 3467 0098 00000000 		.quad	_ZN10UtestShell19assertPointersEqualEPKvS1_PKci
 3467      00000000 
 3468 00a0 00000000 		.quad	_ZN10UtestShell18assertDoublesEqualEdddPKciRK14TestTerminator
 3468      00000000 
 3469 00a8 00000000 		.quad	_ZN10UtestShell12assertEqualsEbPKcS1_S1_iRK14TestTerminator
 3469      00000000 
 3470 00b0 00000000 		.quad	_ZN10UtestShell17assertBinaryEqualEPKvS1_mPKciRK14TestTerminator
 3470      00000000 
 3471 00b8 00000000 		.quad	_ZN10UtestShell4failEPKcS1_iRK14TestTerminator
 3471      00000000 
 3472 00c0 00000000 		.quad	_ZN10UtestShell5printEPKcS1_i
 3472      00000000 
 3473 00c8 00000000 		.quad	_ZN10UtestShell5printERK12SimpleStringPKci
 3473      00000000 
 3474 00d0 00000000 		.quad	_ZNK10UtestShell22isRunInSeperateProcessEv
 3474      00000000 
 3475 00d8 00000000 		.quad	_ZN10UtestShell23setRunInSeperateProcessEv
 3475      00000000 
 3476 00e0 00000000 		.quad	_ZN73TEST_hsm_1_layer_simple_Should_HandleSimpleOnOffHSMWithNoEvents_TestShell10createTestEv
 3476      00000000 
 3477 00e8 00000000 		.quad	_ZN10UtestShell11destroyTestEP5Utest
 3477      00000000 
 3478 00f0 00000000 		.quad	_ZN10UtestShell10runOneTestEP10TestPluginR10TestResult
 3478      00000000 
 3479 00f8 00000000 		.quad	_ZN10UtestShell26runOneTestInCurrentProcessEP10TestPluginR10TestResult
 3479      00000000 
 3480 0100 00000000 		.quad	_ZN10UtestShell8failWithERK11TestFailure
 3480      00000000 
 3481 0108 00000000 		.quad	_ZN10UtestShell8failWithERK11TestFailureRK14TestTerminator
 3481      00000000 
 3482 0110 00000000 		.quad	_ZNK10UtestShell12getMacroNameEv
 3482      00000000 
 3483              		.section	.text._ZN73TEST_hsm_1_layer_simple_Should_HandleSimpleOnOffHSMWithNoEvents_TestShellD2Ev,
 3484              		.align 2
 3485              		.weak	_ZN73TEST_hsm_1_layer_simple_Should_HandleSimpleOnOffHSMWithNoEvents_TestShellD2Ev
GAS LISTING /tmp/ccL6xP0D.s 			page 74


 3487              	_ZN73TEST_hsm_1_layer_simple_Should_HandleSimpleOnOffHSMWithNoEvents_TestShellD2Ev:
 3488              	.LFB731:
 3489              		.cfi_startproc
 3490 0000 55       		pushq	%rbp
 3491              		.cfi_def_cfa_offset 16
 3492              		.cfi_offset 6, -16
 3493 0001 4889E5   		movq	%rsp, %rbp
 3494              		.cfi_def_cfa_register 6
 3495 0004 4883EC10 		subq	$16, %rsp
 3496 0008 48897DF8 		movq	%rdi, -8(%rbp)
 3497 000c BA000000 		movl	$_ZTV73TEST_hsm_1_layer_simple_Should_HandleSimpleOnOffHSMWithNoEvents_TestShell+16, %edx
 3497      00
 3498 0011 488B45F8 		movq	-8(%rbp), %rax
 3499 0015 488910   		movq	%rdx, (%rax)
 3500 0018 488B45F8 		movq	-8(%rbp), %rax
 3501 001c 4889C7   		movq	%rax, %rdi
 3502 001f E8000000 		call	_ZN10UtestShellD2Ev
 3502      00
 3503 0024 B8000000 		movl	$0, %eax
 3503      00
 3504 0029 85C0     		testl	%eax, %eax
 3505 002b 740C     		je	.L162
 3506 002d 488B45F8 		movq	-8(%rbp), %rax
 3507 0031 4889C7   		movq	%rax, %rdi
 3508 0034 E8000000 		call	_ZdlPv
 3508      00
 3509              	.L162:
 3510 0039 C9       		leave
 3511              		.cfi_def_cfa 7, 8
 3512 003a C3       		ret
 3513              		.cfi_endproc
 3514              	.LFE731:
 3516              		.weak	_ZN73TEST_hsm_1_layer_simple_Should_HandleSimpleOnOffHSMWithNoEvents_TestShellD1Ev
 3517              		.set	_ZN73TEST_hsm_1_layer_simple_Should_HandleSimpleOnOffHSMWithNoEvents_TestShellD1Ev,_ZN73TEST_
 3518              		.section	.text._ZN73TEST_hsm_1_layer_simple_Should_HandleSimpleOnOffHSMWithNoEvents_TestShellD0Ev,
 3519              		.align 2
 3520              		.weak	_ZN73TEST_hsm_1_layer_simple_Should_HandleSimpleOnOffHSMWithNoEvents_TestShellD0Ev
 3522              	_ZN73TEST_hsm_1_layer_simple_Should_HandleSimpleOnOffHSMWithNoEvents_TestShellD0Ev:
 3523              	.LFB733:
 3524              		.cfi_startproc
 3525 0000 55       		pushq	%rbp
 3526              		.cfi_def_cfa_offset 16
 3527              		.cfi_offset 6, -16
 3528 0001 4889E5   		movq	%rsp, %rbp
 3529              		.cfi_def_cfa_register 6
 3530 0004 4883EC10 		subq	$16, %rsp
 3531 0008 48897DF8 		movq	%rdi, -8(%rbp)
 3532 000c 488B45F8 		movq	-8(%rbp), %rax
 3533 0010 4889C7   		movq	%rax, %rdi
 3534 0013 E8000000 		call	_ZN73TEST_hsm_1_layer_simple_Should_HandleSimpleOnOffHSMWithNoEvents_TestShellD1Ev
 3534      00
 3535 0018 488B45F8 		movq	-8(%rbp), %rax
 3536 001c 4889C7   		movq	%rax, %rdi
 3537 001f E8000000 		call	_ZdlPv
 3537      00
 3538 0024 C9       		leave
 3539              		.cfi_def_cfa 7, 8
GAS LISTING /tmp/ccL6xP0D.s 			page 75


 3540 0025 C3       		ret
 3541              		.cfi_endproc
 3542              	.LFE733:
 3544              		.weak	_ZTV42TEST_GROUP_CppUTestGrouphsm_1_layer_simple
 3545              		.section	.rodata._ZTV42TEST_GROUP_CppUTestGrouphsm_1_layer_simple,"aG",@progbits,_ZTV42TEST_GROUP_
 3546              		.align 8
 3549              	_ZTV42TEST_GROUP_CppUTestGrouphsm_1_layer_simple:
 3550 0000 00000000 		.quad	0
 3550      00000000 
 3551 0008 00000000 		.quad	_ZTI42TEST_GROUP_CppUTestGrouphsm_1_layer_simple
 3551      00000000 
 3552 0010 00000000 		.quad	_ZN42TEST_GROUP_CppUTestGrouphsm_1_layer_simpleD1Ev
 3552      00000000 
 3553 0018 00000000 		.quad	_ZN42TEST_GROUP_CppUTestGrouphsm_1_layer_simpleD0Ev
 3553      00000000 
 3554 0020 00000000 		.quad	_ZN5Utest3runEv
 3554      00000000 
 3555 0028 00000000 		.quad	_ZN42TEST_GROUP_CppUTestGrouphsm_1_layer_simple5setupEv
 3555      00000000 
 3556 0030 00000000 		.quad	_ZN42TEST_GROUP_CppUTestGrouphsm_1_layer_simple8teardownEv
 3556      00000000 
 3557 0038 00000000 		.quad	_ZN5Utest8testBodyEv
 3557      00000000 
 3558              		.weak	_ZTI77TEST_hsm_1_layer_simple_Should_HandleSimpleOnOffHSMWithNoEvents_old_TestShell
 3559              		.section	.rodata._ZTI77TEST_hsm_1_layer_simple_Should_HandleSimpleOnOffHSMWithNoEvents_old_TestShe
 3560              		.align 8
 3563              	_ZTI77TEST_hsm_1_layer_simple_Should_HandleSimpleOnOffHSMWithNoEvents_old_TestShell:
 3564 0000 00000000 		.quad	_ZTVN10__cxxabiv120__si_class_type_infoE+16
 3564      00000000 
 3565 0008 00000000 		.quad	_ZTS77TEST_hsm_1_layer_simple_Should_HandleSimpleOnOffHSMWithNoEvents_old_TestShell
 3565      00000000 
 3566 0010 00000000 		.quad	_ZTI10UtestShell
 3566      00000000 
 3567              		.weak	_ZTS77TEST_hsm_1_layer_simple_Should_HandleSimpleOnOffHSMWithNoEvents_old_TestShell
 3568              		.section	.rodata._ZTS77TEST_hsm_1_layer_simple_Should_HandleSimpleOnOffHSMWithNoEvents_old_TestShe
 3569              		.align 32
 3572              	_ZTS77TEST_hsm_1_layer_simple_Should_HandleSimpleOnOffHSMWithNoEvents_old_TestShell:
 3573 0000 37375445 		.string	"77TEST_hsm_1_layer_simple_Should_HandleSimpleOnOffHSMWithNoEvents_old_TestShell"
 3573      53545F68 
 3573      736D5F31 
 3573      5F6C6179 
 3573      65725F73 
 3574              		.weak	_ZTI72TEST_hsm_1_layer_simple_Should_HandleSimpleOnOffHSMWithNoEvents_old_Test
 3575              		.section	.rodata._ZTI72TEST_hsm_1_layer_simple_Should_HandleSimpleOnOffHSMWithNoEvents_old_Test,"a
 3576              		.align 8
 3579              	_ZTI72TEST_hsm_1_layer_simple_Should_HandleSimpleOnOffHSMWithNoEvents_old_Test:
 3580 0000 00000000 		.quad	_ZTVN10__cxxabiv120__si_class_type_infoE+16
 3580      00000000 
 3581 0008 00000000 		.quad	_ZTS72TEST_hsm_1_layer_simple_Should_HandleSimpleOnOffHSMWithNoEvents_old_Test
 3581      00000000 
 3582 0010 00000000 		.quad	_ZTI42TEST_GROUP_CppUTestGrouphsm_1_layer_simple
 3582      00000000 
 3583              		.weak	_ZTS72TEST_hsm_1_layer_simple_Should_HandleSimpleOnOffHSMWithNoEvents_old_Test
 3584              		.section	.rodata._ZTS72TEST_hsm_1_layer_simple_Should_HandleSimpleOnOffHSMWithNoEvents_old_Test,"a
 3585              		.align 32
 3588              	_ZTS72TEST_hsm_1_layer_simple_Should_HandleSimpleOnOffHSMWithNoEvents_old_Test:
 3589 0000 37325445 		.string	"72TEST_hsm_1_layer_simple_Should_HandleSimpleOnOffHSMWithNoEvents_old_Test"
GAS LISTING /tmp/ccL6xP0D.s 			page 76


 3589      53545F68 
 3589      736D5F31 
 3589      5F6C6179 
 3589      65725F73 
 3590              		.weak	_ZTI73TEST_hsm_1_layer_simple_Should_HandleSimpleOnOffHSMWithNoEvents_TestShell
 3591              		.section	.rodata._ZTI73TEST_hsm_1_layer_simple_Should_HandleSimpleOnOffHSMWithNoEvents_TestShell,"
 3592              		.align 8
 3595              	_ZTI73TEST_hsm_1_layer_simple_Should_HandleSimpleOnOffHSMWithNoEvents_TestShell:
 3596 0000 00000000 		.quad	_ZTVN10__cxxabiv120__si_class_type_infoE+16
 3596      00000000 
 3597 0008 00000000 		.quad	_ZTS73TEST_hsm_1_layer_simple_Should_HandleSimpleOnOffHSMWithNoEvents_TestShell
 3597      00000000 
 3598 0010 00000000 		.quad	_ZTI10UtestShell
 3598      00000000 
 3599              		.weak	_ZTS73TEST_hsm_1_layer_simple_Should_HandleSimpleOnOffHSMWithNoEvents_TestShell
 3600              		.section	.rodata._ZTS73TEST_hsm_1_layer_simple_Should_HandleSimpleOnOffHSMWithNoEvents_TestShell,"
 3601              		.align 32
 3604              	_ZTS73TEST_hsm_1_layer_simple_Should_HandleSimpleOnOffHSMWithNoEvents_TestShell:
 3605 0000 37335445 		.string	"73TEST_hsm_1_layer_simple_Should_HandleSimpleOnOffHSMWithNoEvents_TestShell"
 3605      53545F68 
 3605      736D5F31 
 3605      5F6C6179 
 3605      65725F73 
 3606              		.weak	_ZTI68TEST_hsm_1_layer_simple_Should_HandleSimpleOnOffHSMWithNoEvents_Test
 3607              		.section	.rodata._ZTI68TEST_hsm_1_layer_simple_Should_HandleSimpleOnOffHSMWithNoEvents_Test,"aG",@
 3608              		.align 8
 3611              	_ZTI68TEST_hsm_1_layer_simple_Should_HandleSimpleOnOffHSMWithNoEvents_Test:
 3612 0000 00000000 		.quad	_ZTVN10__cxxabiv120__si_class_type_infoE+16
 3612      00000000 
 3613 0008 00000000 		.quad	_ZTS68TEST_hsm_1_layer_simple_Should_HandleSimpleOnOffHSMWithNoEvents_Test
 3613      00000000 
 3614 0010 00000000 		.quad	_ZTI42TEST_GROUP_CppUTestGrouphsm_1_layer_simple
 3614      00000000 
 3615              		.weak	_ZTS68TEST_hsm_1_layer_simple_Should_HandleSimpleOnOffHSMWithNoEvents_Test
 3616              		.section	.rodata._ZTS68TEST_hsm_1_layer_simple_Should_HandleSimpleOnOffHSMWithNoEvents_Test,"aG",@
 3617              		.align 32
 3620              	_ZTS68TEST_hsm_1_layer_simple_Should_HandleSimpleOnOffHSMWithNoEvents_Test:
 3621 0000 36385445 		.string	"68TEST_hsm_1_layer_simple_Should_HandleSimpleOnOffHSMWithNoEvents_Test"
 3621      53545F68 
 3621      736D5F31 
 3621      5F6C6179 
 3621      65725F73 
 3622              		.weak	_ZTI42TEST_GROUP_CppUTestGrouphsm_1_layer_simple
 3623              		.section	.rodata._ZTI42TEST_GROUP_CppUTestGrouphsm_1_layer_simple,"aG",@progbits,_ZTI42TEST_GROUP_
 3624              		.align 8
 3627              	_ZTI42TEST_GROUP_CppUTestGrouphsm_1_layer_simple:
 3628 0000 00000000 		.quad	_ZTVN10__cxxabiv120__si_class_type_infoE+16
 3628      00000000 
 3629 0008 00000000 		.quad	_ZTS42TEST_GROUP_CppUTestGrouphsm_1_layer_simple
 3629      00000000 
 3630 0010 00000000 		.quad	_ZTI5Utest
 3630      00000000 
 3631              		.weak	_ZTS42TEST_GROUP_CppUTestGrouphsm_1_layer_simple
 3632              		.section	.rodata._ZTS42TEST_GROUP_CppUTestGrouphsm_1_layer_simple,"aG",@progbits,_ZTS42TEST_GROUP_
 3633              		.align 32
 3636              	_ZTS42TEST_GROUP_CppUTestGrouphsm_1_layer_simple:
 3637 0000 34325445 		.string	"42TEST_GROUP_CppUTestGrouphsm_1_layer_simple"
GAS LISTING /tmp/ccL6xP0D.s 			page 77


 3637      53545F47 
 3637      524F5550 
 3637      5F437070 
 3637      55546573 
 3638              		.section	.rodata
 3639 0031 00000000 		.align 8
 3639      000000
 3640              	.LC1:
 3641 0038 53686F75 		.string	"Should_HandleSimpleOnOffHSMWithNoEvents"
 3641      6C645F48 
 3641      616E646C 
 3641      6553696D 
 3641      706C654F 
 3642              	.LC2:
 3643 0060 68736D5F 		.string	"hsm_1_layer_simple"
 3643      315F6C61 
 3643      7965725F 
 3643      73696D70 
 3643      6C6500
 3644 0073 00000000 		.align 8
 3644      00
 3645              	.LC3:
 3646 0078 53686F75 		.string	"Should_HandleSimpleOnOffHSMWithNoEvents_old"
 3646      6C645F48 
 3646      616E646C 
 3646      6553696D 
 3646      706C654F 
 3647              		.text
 3649              	_Z41__static_initialization_and_destruction_0ii:
 3650              	.LFB734:
 3651              		.cfi_startproc
 3652 17d1 55       		pushq	%rbp
 3653              		.cfi_def_cfa_offset 16
 3654              		.cfi_offset 6, -16
 3655 17d2 4889E5   		movq	%rsp, %rbp
 3656              		.cfi_def_cfa_register 6
 3657 17d5 4883EC10 		subq	$16, %rsp
 3658 17d9 897DFC   		movl	%edi, -4(%rbp)
 3659 17dc 8975F8   		movl	%esi, -8(%rbp)
 3660 17df 837DFC01 		cmpl	$1, -4(%rbp)
 3661 17e3 0F85BB00 		jne	.L167
 3661      0000
 3662 17e9 817DF8FF 		cmpl	$65535, -8(%rbp)
 3662      FF0000
 3663 17f0 0F85AE00 		jne	.L167
 3663      0000
 3664 17f6 BF000000 		movl	$TEST_hsm_1_layer_simple_Should_HandleSimpleOnOffHSMWithNoEvents_TestShell_instance, %edi
 3664      00
 3665 17fb E8000000 		call	_ZN73TEST_hsm_1_layer_simple_Should_HandleSimpleOnOffHSMWithNoEvents_TestShellC1Ev
 3665      00
 3666 1800 BA000000 		movl	$__dso_handle, %edx
 3666      00
 3667 1805 BE000000 		movl	$TEST_hsm_1_layer_simple_Should_HandleSimpleOnOffHSMWithNoEvents_TestShell_instance, %esi
 3667      00
 3668 180a BF000000 		movl	$_ZN73TEST_hsm_1_layer_simple_Should_HandleSimpleOnOffHSMWithNoEvents_TestShellD1Ev, %edi
 3668      00
 3669 180f E8000000 		call	__cxa_atexit
GAS LISTING /tmp/ccL6xP0D.s 			page 78


 3669      00
 3670 1814 41B96C00 		movl	$108, %r9d
 3670      0000
 3671 181a 41B80000 		movl	$.LC0, %r8d
 3671      0000
 3672 1820 B9000000 		movl	$.LC1, %ecx
 3672      00
 3673 1825 BA000000 		movl	$.LC2, %edx
 3673      00
 3674 182a BE000000 		movl	$TEST_hsm_1_layer_simple_Should_HandleSimpleOnOffHSMWithNoEvents_TestShell_instance, %esi
 3674      00
 3675 182f BF000000 		movl	$_ZL73TEST_hsm_1_layer_simple_Should_HandleSimpleOnOffHSMWithNoEvents_Installer, %edi
 3675      00
 3676 1834 E8000000 		call	_ZN13TestInstallerC1ER10UtestShellPKcS3_S3_i
 3676      00
 3677 1839 BA000000 		movl	$__dso_handle, %edx
 3677      00
 3678 183e BE000000 		movl	$_ZL73TEST_hsm_1_layer_simple_Should_HandleSimpleOnOffHSMWithNoEvents_Installer, %esi
 3678      00
 3679 1843 BF000000 		movl	$_ZN13TestInstallerD1Ev, %edi
 3679      00
 3680 1848 E8000000 		call	__cxa_atexit
 3680      00
 3681 184d BF000000 		movl	$TEST_hsm_1_layer_simple_Should_HandleSimpleOnOffHSMWithNoEvents_old_TestShell_instance, %edi
 3681      00
 3682 1852 E8000000 		call	_ZN77TEST_hsm_1_layer_simple_Should_HandleSimpleOnOffHSMWithNoEvents_old_TestShellC1Ev
 3682      00
 3683 1857 BA000000 		movl	$__dso_handle, %edx
 3683      00
 3684 185c BE000000 		movl	$TEST_hsm_1_layer_simple_Should_HandleSimpleOnOffHSMWithNoEvents_old_TestShell_instance, %esi
 3684      00
 3685 1861 BF000000 		movl	$_ZN77TEST_hsm_1_layer_simple_Should_HandleSimpleOnOffHSMWithNoEvents_old_TestShellD1Ev, %edi
 3685      00
 3686 1866 E8000000 		call	__cxa_atexit
 3686      00
 3687 186b 41B98900 		movl	$137, %r9d
 3687      0000
 3688 1871 41B80000 		movl	$.LC0, %r8d
 3688      0000
 3689 1877 B9000000 		movl	$.LC3, %ecx
 3689      00
 3690 187c BA000000 		movl	$.LC2, %edx
 3690      00
 3691 1881 BE000000 		movl	$TEST_hsm_1_layer_simple_Should_HandleSimpleOnOffHSMWithNoEvents_old_TestShell_instance, %esi
 3691      00
 3692 1886 BF000000 		movl	$_ZL77TEST_hsm_1_layer_simple_Should_HandleSimpleOnOffHSMWithNoEvents_old_Installer, %edi
 3692      00
 3693 188b E8000000 		call	_ZN13TestInstallerC1ER10UtestShellPKcS3_S3_i
 3693      00
 3694 1890 BA000000 		movl	$__dso_handle, %edx
 3694      00
 3695 1895 BE000000 		movl	$_ZL77TEST_hsm_1_layer_simple_Should_HandleSimpleOnOffHSMWithNoEvents_old_Installer, %esi
 3695      00
 3696 189a BF000000 		movl	$_ZN13TestInstallerD1Ev, %edi
 3696      00
 3697 189f E8000000 		call	__cxa_atexit
 3697      00
GAS LISTING /tmp/ccL6xP0D.s 			page 79


 3698              	.L167:
 3699 18a4 90       		nop
 3700 18a5 C9       		leave
 3701              		.cfi_def_cfa 7, 8
 3702 18a6 C3       		ret
 3703              		.cfi_endproc
 3704              	.LFE734:
 3706              		.data
 3707              		.align 16
 3710              	._79:
 3711 00c0 00000000 		.quad	0
 3711      00000000 
 3712 00c8 00000000 		.quad	0
 3712      00000000 
 3713 00d0 00000000 		.quad	offState
 3713      00000000 
 3714 00d8 00000000 		.align 16
 3714      00000000 
 3717              	._80:
 3718 00e0 00000000 		.quad	0
 3718      00000000 
 3719 00e8 00000000 		.quad	0
 3719      00000000 
 3720 00f0 00000000 		.quad	onState
 3720      00000000 
 3721              		.text
 3723              	_GLOBAL__sub_I_onState:
 3724              	.LFB735:
 3725              		.cfi_startproc
 3726 18a7 55       		pushq	%rbp
 3727              		.cfi_def_cfa_offset 16
 3728              		.cfi_offset 6, -16
 3729 18a8 4889E5   		movq	%rsp, %rbp
 3730              		.cfi_def_cfa_register 6
 3731 18ab BEFFFF00 		movl	$65535, %esi
 3731      00
 3732 18b0 BF010000 		movl	$1, %edi
 3732      00
 3733 18b5 E817FFFF 		call	_Z41__static_initialization_and_destruction_0ii
 3733      FF
 3734 18ba 5D       		popq	%rbp
 3735              		.cfi_def_cfa 7, 8
 3736 18bb C3       		ret
 3737              		.cfi_endproc
 3738              	.LFE735:
 3740              		.section	.init_array,"aw"
 3741              		.align 8
 3742 0000 00000000 		.quad	_GLOBAL__sub_I_onState
 3742      00000000 
 3743              		.hidden	__dso_handle
 3744              		.ident	"GCC: (Ubuntu 5.4.0-6ubuntu1~16.04.5) 5.4.0 20160609"
 3745              		.section	.note.GNU-stack,"",@progbits
GAS LISTING /tmp/ccL6xP0D.s 			page 80

