GAS LISTING /tmp/cc7S6m1k.s 			page 1


   1              		.file	"main.c"
   2              		.text
   3              	.Ltext0:
   4              		.section	.rodata.str1.8,"aMS",@progbits,1
   5              		.align 8
   6              	.LC0:
   7 0000 2D2D2D2D 		.string	"---- Hierarchical state machine v"
   7      20486965 
   7      72617263 
   7      68696361 
   7      6C207374 
   8              		.section	.rodata.str1.1,"aMS",@progbits,1
   9              	.LC1:
  10 0000 302E312E 		.string	"0.1.0"
  10      3000
  11              	.LC2:
  12 0006 202D2D2D 		.string	" ----\nDate: "
  12      2D0A4461 
  12      74653A20 
  12      00
  13              	.LC3:
  14 0013 32303138 		.string	"2018-01-06"
  14      2D30312D 
  14      303600
  15              	.LC4:
  16 001e 0A54696D 		.string	"\nTime: "
  16      653A2000 
  17              	.LC5:
  18 0026 31333A34 		.string	"13:42:03"
  18      323A3033 
  18      00
  19              	.LC6:
  20 002f 0A427261 		.string	"\nBranch: "
  20      6E63683A 
  20      2000
  21              	.LC7:
  22 0039 6D617374 		.string	"master"
  22      657200
  23              	.LC8:
  24 0040 0A537973 		.string	"\nSystem ready...\n\n"
  24      74656D20 
  24      72656164 
  24      792E2E2E 
  24      0A0A00
  25              	.LC9:
  26 0053 693A2025 		.string	"i: %d | "
  26      64207C20 
  26      00
  27              		.section	.text.main,"ax",@progbits
  28              		.globl	main
  30              	main:
  31              	.LFB38:
  32              		.file 1 "src/main.c"
   1:src/main.c    **** /******************************************************************************
   2:src/main.c    **** 	Code
   3:src/main.c    **** ******************************************************************************/
   4:src/main.c    **** 
GAS LISTING /tmp/cc7S6m1k.s 			page 2


   5:src/main.c    **** /******************************************************************************
   6:src/main.c    **** 	Include files
   7:src/main.c    **** ******************************************************************************/
   8:src/main.c    **** 
   9:src/main.c    **** #include "console.h"
  10:src/main.c    **** #include "hsm.h"
  11:src/main.c    **** 
  12:src/main.c    **** #include "version.h"
  13:src/main.c    **** 
  14:src/main.c    **** #include <stdlib.h>
  15:src/main.c    **** #include <stdio.h>
  16:src/main.c    **** #include <stdint.h>
  17:src/main.c    **** #include <stdbool.h>
  18:src/main.c    **** 
  19:src/main.c    **** /******************************************************************************
  20:src/main.c    **** 	Function definitions
  21:src/main.c    **** ******************************************************************************/
  22:src/main.c    **** 
  23:src/main.c    **** static state_t topA;
  24:src/main.c    **** static state_t subA1;
  25:src/main.c    **** static state_t subA2;
  26:src/main.c    **** static state_t topB;
  27:src/main.c    **** static state_t subB1;
  28:src/main.c    **** 
  29:src/main.c    **** static state_t topA = 
  30:src/main.c    **** {
  31:src/main.c    **** 	.itsInitialState = &subA1,
  32:src/main.c    **** 	.itsParentState = NULL,
  33:src/main.c    **** 	.onEntry = NULL,
  34:src/main.c    **** 	.during = NULL,
  35:src/main.c    **** 	.onExit = NULL,
  36:src/main.c    **** 	.itsTransition = NULL,
  37:src/main.c    **** 	.itsTransitionNum = 0,
  38:src/main.c    **** 	.itsName = " topA"
  39:src/main.c    **** };
  40:src/main.c    **** 
  41:src/main.c    **** static state_t subA1 = 
  42:src/main.c    **** {
  43:src/main.c    **** 	.itsInitialState = NULL,
  44:src/main.c    **** 	.itsParentState = &topA,
  45:src/main.c    **** 	.onEntry = NULL,
  46:src/main.c    **** 	.during = NULL,
  47:src/main.c    **** 	.onExit = NULL,
  48:src/main.c    **** 	.itsTransition = (hsm_transition_t[])
  49:src/main.c    **** 		{
  50:src/main.c    **** 			{ NULL, NULL, &subA2 }
  51:src/main.c    **** 		},
  52:src/main.c    **** 	.itsTransitionNum = 1,
  53:src/main.c    **** 	.itsName = "subA1"
  54:src/main.c    **** };
  55:src/main.c    **** 
  56:src/main.c    **** static state_t subA2 = 
  57:src/main.c    **** {
  58:src/main.c    **** 	.itsInitialState = NULL,
  59:src/main.c    **** 	.itsParentState = &topA,
  60:src/main.c    **** 	.onEntry = NULL,
  61:src/main.c    **** 	.during = NULL,
GAS LISTING /tmp/cc7S6m1k.s 			page 3


  62:src/main.c    **** 	.onExit = NULL,
  63:src/main.c    **** 	.itsTransition = (hsm_transition_t[])
  64:src/main.c    **** 		{
  65:src/main.c    **** 			{ NULL, NULL, &subB1 }
  66:src/main.c    **** 		},
  67:src/main.c    **** 	.itsTransitionNum = 1,
  68:src/main.c    **** 	.itsName = "subA2"
  69:src/main.c    **** };
  70:src/main.c    **** 
  71:src/main.c    **** static state_t topB = 
  72:src/main.c    **** {
  73:src/main.c    **** 	.itsInitialState = &subB1,
  74:src/main.c    **** 	.itsParentState = NULL,
  75:src/main.c    **** 	.onEntry = NULL,
  76:src/main.c    **** 	.during = NULL,
  77:src/main.c    **** 	.onExit = NULL,
  78:src/main.c    **** 	.itsTransition = NULL,
  79:src/main.c    **** 	.itsTransitionNum = 0,
  80:src/main.c    **** 	.itsName = " topB"
  81:src/main.c    **** };
  82:src/main.c    **** 
  83:src/main.c    **** static state_t subB1 = 
  84:src/main.c    **** {
  85:src/main.c    **** 	.itsInitialState = NULL,
  86:src/main.c    **** 	.itsParentState = &topB,
  87:src/main.c    **** 	.onEntry = NULL,
  88:src/main.c    **** 	.during = NULL,
  89:src/main.c    **** 	.onExit = NULL,
  90:src/main.c    **** 	.itsTransition = (hsm_transition_t[])
  91:src/main.c    **** 		{
  92:src/main.c    **** 			{ NULL, NULL, &subA1 }
  93:src/main.c    **** 		},
  94:src/main.c    **** 	.itsTransitionNum = 1,
  95:src/main.c    **** 	.itsName = "subB1"
  96:src/main.c    **** };
  97:src/main.c    **** 
  98:src/main.c    **** static state_t* stateList[] = 
  99:src/main.c    **** {
 100:src/main.c    **** 	&topA,
 101:src/main.c    **** 	&subA1,
 102:src/main.c    **** 	&subA2,
 103:src/main.c    **** 	&topB,
 104:src/main.c    **** 	&subB1
 105:src/main.c    **** };
 106:src/main.c    **** 
 107:src/main.c    **** 
 108:src/main.c    **** /**
 109:src/main.c    ****  * \brief This is the starting point of every C program...
 110:src/main.c    ****  * \return Always returns 0. I do not care about OS error reporting.
 111:src/main.c    ****  */
 112:src/main.c    **** int main( void )
 113:src/main.c    **** {
  33              		.loc 1 113 0
  34              		.cfi_startproc
  35 0000 53       		pushq	%rbx
  36              	.LCFI0:
  37              		.cfi_def_cfa_offset 16
GAS LISTING /tmp/cc7S6m1k.s 			page 4


  38              		.cfi_offset 3, -16
  39 0001 4881ECB0 		subq	$176, %rsp
  39      000000
  40              	.LCFI1:
  41              		.cfi_def_cfa_offset 192
  42              		.loc 1 113 0
  43 0008 64488B04 		movq	%fs:40, %rax
  43      25280000 
  43      00
  44 0011 48898424 		movq	%rax, 168(%rsp)
  44      A8000000 
  45 0019 31C0     		xorl	%eax, %eax
 114:src/main.c    **** 	/* Build console */
 115:src/main.c    **** 	console_t serial = console_build();
  46              		.loc 1 115 0
  47 001b 4889E7   		movq	%rsp, %rdi
  48 001e E8000000 		call	console_build
  48      00
  49              	.LVL0:
 116:src/main.c    **** 
 117:src/main.c    **** 	hsm_t sys = hsm_build( &topA, stateList );
  50              		.loc 1 117 0
  51 0023 B9050000 		movl	$5, %ecx
  51      00
  52 0028 BA000000 		movl	$stateList, %edx
  52      00
  53 002d BE000000 		movl	$topA, %esi
  53      00
  54 0032 488D7C24 		leaq	32(%rsp), %rdi
  54      20
  55 0037 E8000000 		call	_hsm_build
  55      00
  56              	.LVL1:
 118:src/main.c    **** 
 119:src/main.c    **** 	/* Greeting */
 120:src/main.c    **** 	serial.puts( "---- Hierarchical state machine v" );
  57              		.loc 1 120 0
  58 003c 488B5C24 		movq	8(%rsp), %rbx
  58      08
  59 0041 BF000000 		movl	$.LC0, %edi
  59      00
  60 0046 FFD3     		call	*%rbx
  61              	.LVL2:
 121:src/main.c    **** 	serial.puts( VERSION );
  62              		.loc 1 121 0
  63 0048 BF000000 		movl	$.LC1, %edi
  63      00
  64 004d FFD3     		call	*%rbx
  65              	.LVL3:
 122:src/main.c    **** 	serial.puts( " ----\nDate: " );
  66              		.loc 1 122 0
  67 004f BF000000 		movl	$.LC2, %edi
  67      00
  68 0054 FFD3     		call	*%rbx
  69              	.LVL4:
 123:src/main.c    **** 	serial.puts( COMPILE_DATE );
  70              		.loc 1 123 0
GAS LISTING /tmp/cc7S6m1k.s 			page 5


  71 0056 BF000000 		movl	$.LC3, %edi
  71      00
  72 005b FFD3     		call	*%rbx
  73              	.LVL5:
 124:src/main.c    **** 	serial.puts( "\nTime: " );
  74              		.loc 1 124 0
  75 005d BF000000 		movl	$.LC4, %edi
  75      00
  76 0062 FFD3     		call	*%rbx
  77              	.LVL6:
 125:src/main.c    **** 	serial.puts( COMPILE_TIME );
  78              		.loc 1 125 0
  79 0064 BF000000 		movl	$.LC5, %edi
  79      00
  80 0069 FFD3     		call	*%rbx
  81              	.LVL7:
 126:src/main.c    **** 	serial.puts( "\nBranch: " );
  82              		.loc 1 126 0
  83 006b BF000000 		movl	$.LC6, %edi
  83      00
  84 0070 FFD3     		call	*%rbx
  85              	.LVL8:
 127:src/main.c    **** 	serial.puts( BRANCH );
  86              		.loc 1 127 0
  87 0072 BF000000 		movl	$.LC7, %edi
  87      00
  88 0077 FFD3     		call	*%rbx
  89              	.LVL9:
 128:src/main.c    **** 	serial.puts( "\nSystem ready...\n\n" );
  90              		.loc 1 128 0
  91 0079 BF000000 		movl	$.LC8, %edi
  91      00
  92 007e FFD3     		call	*%rbx
  93              	.LVL10:
 129:src/main.c    **** 	
 130:src/main.c    **** 	/* Build new system */
 131:src/main.c    **** /*	serial.puts( "\n\n-----------------------------------\n" );
 132:src/main.c    **** 	serial.puts( "\n\nPress to start: " );
 133:src/main.c    **** 	char* s = serial.gets();
 134:src/main.c    **** 	serial.puts( "\n" );*/
 135:src/main.c    **** 	
 136:src/main.c    **** 	/* Endless loop */
 137:src/main.c    **** 	int i = 0;
  94              		.loc 1 137 0
  95 0080 BB000000 		movl	$0, %ebx
  95      00
  96              	.LVL11:
  97              	.L2:
  98              	.LBB7:
 138:src/main.c    **** 	while( 1 )
 139:src/main.c    **** 	{		
 140:src/main.c    **** 		/* Handle event */
 141:src/main.c    **** 		printf( "i: %d | ", ++i );
  99              		.loc 1 141 0 discriminator 1
 100 0085 83C301   		addl	$1, %ebx
 101              	.LVL12:
 102              	.LBB8:
GAS LISTING /tmp/cc7S6m1k.s 			page 6


 103              	.LBB9:
 104              		.file 2 "/usr/include/x86_64-linux-gnu/bits/stdio2.h"
   1:/usr/include/x86_64-linux-gnu/bits/stdio2.h **** /* Checking macros for stdio functions.
   2:/usr/include/x86_64-linux-gnu/bits/stdio2.h ****    Copyright (C) 2004-2016 Free Software Foundation, Inc.
   3:/usr/include/x86_64-linux-gnu/bits/stdio2.h ****    This file is part of the GNU C Library.
   4:/usr/include/x86_64-linux-gnu/bits/stdio2.h **** 
   5:/usr/include/x86_64-linux-gnu/bits/stdio2.h ****    The GNU C Library is free software; you can redistribute it and/or
   6:/usr/include/x86_64-linux-gnu/bits/stdio2.h ****    modify it under the terms of the GNU Lesser General Public
   7:/usr/include/x86_64-linux-gnu/bits/stdio2.h ****    License as published by the Free Software Foundation; either
   8:/usr/include/x86_64-linux-gnu/bits/stdio2.h ****    version 2.1 of the License, or (at your option) any later version.
   9:/usr/include/x86_64-linux-gnu/bits/stdio2.h **** 
  10:/usr/include/x86_64-linux-gnu/bits/stdio2.h ****    The GNU C Library is distributed in the hope that it will be useful,
  11:/usr/include/x86_64-linux-gnu/bits/stdio2.h ****    but WITHOUT ANY WARRANTY; without even the implied warranty of
  12:/usr/include/x86_64-linux-gnu/bits/stdio2.h ****    MERCHANTABILITY or FITNESS FOR A PARTICULAR PURPOSE.  See the GNU
  13:/usr/include/x86_64-linux-gnu/bits/stdio2.h ****    Lesser General Public License for more details.
  14:/usr/include/x86_64-linux-gnu/bits/stdio2.h **** 
  15:/usr/include/x86_64-linux-gnu/bits/stdio2.h ****    You should have received a copy of the GNU Lesser General Public
  16:/usr/include/x86_64-linux-gnu/bits/stdio2.h ****    License along with the GNU C Library; if not, see
  17:/usr/include/x86_64-linux-gnu/bits/stdio2.h ****    <http://www.gnu.org/licenses/>.  */
  18:/usr/include/x86_64-linux-gnu/bits/stdio2.h **** 
  19:/usr/include/x86_64-linux-gnu/bits/stdio2.h **** #ifndef _STDIO_H
  20:/usr/include/x86_64-linux-gnu/bits/stdio2.h **** # error "Never include <bits/stdio2.h> directly; use <stdio.h> instead."
  21:/usr/include/x86_64-linux-gnu/bits/stdio2.h **** #endif
  22:/usr/include/x86_64-linux-gnu/bits/stdio2.h **** 
  23:/usr/include/x86_64-linux-gnu/bits/stdio2.h **** extern int __sprintf_chk (char *__restrict __s, int __flag, size_t __slen,
  24:/usr/include/x86_64-linux-gnu/bits/stdio2.h **** 			  const char *__restrict __format, ...) __THROW;
  25:/usr/include/x86_64-linux-gnu/bits/stdio2.h **** extern int __vsprintf_chk (char *__restrict __s, int __flag, size_t __slen,
  26:/usr/include/x86_64-linux-gnu/bits/stdio2.h **** 			   const char *__restrict __format,
  27:/usr/include/x86_64-linux-gnu/bits/stdio2.h **** 			   _G_va_list __ap) __THROW;
  28:/usr/include/x86_64-linux-gnu/bits/stdio2.h **** 
  29:/usr/include/x86_64-linux-gnu/bits/stdio2.h **** #ifdef __va_arg_pack
  30:/usr/include/x86_64-linux-gnu/bits/stdio2.h **** __fortify_function int
  31:/usr/include/x86_64-linux-gnu/bits/stdio2.h **** __NTH (sprintf (char *__restrict __s, const char *__restrict __fmt, ...))
  32:/usr/include/x86_64-linux-gnu/bits/stdio2.h **** {
  33:/usr/include/x86_64-linux-gnu/bits/stdio2.h ****   return __builtin___sprintf_chk (__s, __USE_FORTIFY_LEVEL - 1,
  34:/usr/include/x86_64-linux-gnu/bits/stdio2.h **** 				  __bos (__s), __fmt, __va_arg_pack ());
  35:/usr/include/x86_64-linux-gnu/bits/stdio2.h **** }
  36:/usr/include/x86_64-linux-gnu/bits/stdio2.h **** #elif !defined __cplusplus
  37:/usr/include/x86_64-linux-gnu/bits/stdio2.h **** # define sprintf(str, ...) \
  38:/usr/include/x86_64-linux-gnu/bits/stdio2.h ****   __builtin___sprintf_chk (str, __USE_FORTIFY_LEVEL - 1, __bos (str), \
  39:/usr/include/x86_64-linux-gnu/bits/stdio2.h **** 			   __VA_ARGS__)
  40:/usr/include/x86_64-linux-gnu/bits/stdio2.h **** #endif
  41:/usr/include/x86_64-linux-gnu/bits/stdio2.h **** 
  42:/usr/include/x86_64-linux-gnu/bits/stdio2.h **** __fortify_function int
  43:/usr/include/x86_64-linux-gnu/bits/stdio2.h **** __NTH (vsprintf (char *__restrict __s, const char *__restrict __fmt,
  44:/usr/include/x86_64-linux-gnu/bits/stdio2.h **** 		 _G_va_list __ap))
  45:/usr/include/x86_64-linux-gnu/bits/stdio2.h **** {
  46:/usr/include/x86_64-linux-gnu/bits/stdio2.h ****   return __builtin___vsprintf_chk (__s, __USE_FORTIFY_LEVEL - 1,
  47:/usr/include/x86_64-linux-gnu/bits/stdio2.h **** 				   __bos (__s), __fmt, __ap);
  48:/usr/include/x86_64-linux-gnu/bits/stdio2.h **** }
  49:/usr/include/x86_64-linux-gnu/bits/stdio2.h **** 
  50:/usr/include/x86_64-linux-gnu/bits/stdio2.h **** #if defined __USE_ISOC99 || defined __USE_UNIX98
  51:/usr/include/x86_64-linux-gnu/bits/stdio2.h **** 
  52:/usr/include/x86_64-linux-gnu/bits/stdio2.h **** extern int __snprintf_chk (char *__restrict __s, size_t __n, int __flag,
  53:/usr/include/x86_64-linux-gnu/bits/stdio2.h **** 			   size_t __slen, const char *__restrict __format,
  54:/usr/include/x86_64-linux-gnu/bits/stdio2.h **** 			   ...) __THROW;
  55:/usr/include/x86_64-linux-gnu/bits/stdio2.h **** extern int __vsnprintf_chk (char *__restrict __s, size_t __n, int __flag,
GAS LISTING /tmp/cc7S6m1k.s 			page 7


  56:/usr/include/x86_64-linux-gnu/bits/stdio2.h **** 			    size_t __slen, const char *__restrict __format,
  57:/usr/include/x86_64-linux-gnu/bits/stdio2.h **** 			    _G_va_list __ap) __THROW;
  58:/usr/include/x86_64-linux-gnu/bits/stdio2.h **** 
  59:/usr/include/x86_64-linux-gnu/bits/stdio2.h **** # ifdef __va_arg_pack
  60:/usr/include/x86_64-linux-gnu/bits/stdio2.h **** __fortify_function int
  61:/usr/include/x86_64-linux-gnu/bits/stdio2.h **** __NTH (snprintf (char *__restrict __s, size_t __n,
  62:/usr/include/x86_64-linux-gnu/bits/stdio2.h **** 		 const char *__restrict __fmt, ...))
  63:/usr/include/x86_64-linux-gnu/bits/stdio2.h **** {
  64:/usr/include/x86_64-linux-gnu/bits/stdio2.h ****   return __builtin___snprintf_chk (__s, __n, __USE_FORTIFY_LEVEL - 1,
  65:/usr/include/x86_64-linux-gnu/bits/stdio2.h **** 				   __bos (__s), __fmt, __va_arg_pack ());
  66:/usr/include/x86_64-linux-gnu/bits/stdio2.h **** }
  67:/usr/include/x86_64-linux-gnu/bits/stdio2.h **** # elif !defined __cplusplus
  68:/usr/include/x86_64-linux-gnu/bits/stdio2.h **** #  define snprintf(str, len, ...) \
  69:/usr/include/x86_64-linux-gnu/bits/stdio2.h ****   __builtin___snprintf_chk (str, len, __USE_FORTIFY_LEVEL - 1, __bos (str), \
  70:/usr/include/x86_64-linux-gnu/bits/stdio2.h **** 			    __VA_ARGS__)
  71:/usr/include/x86_64-linux-gnu/bits/stdio2.h **** # endif
  72:/usr/include/x86_64-linux-gnu/bits/stdio2.h **** 
  73:/usr/include/x86_64-linux-gnu/bits/stdio2.h **** __fortify_function int
  74:/usr/include/x86_64-linux-gnu/bits/stdio2.h **** __NTH (vsnprintf (char *__restrict __s, size_t __n,
  75:/usr/include/x86_64-linux-gnu/bits/stdio2.h **** 		  const char *__restrict __fmt, _G_va_list __ap))
  76:/usr/include/x86_64-linux-gnu/bits/stdio2.h **** {
  77:/usr/include/x86_64-linux-gnu/bits/stdio2.h ****   return __builtin___vsnprintf_chk (__s, __n, __USE_FORTIFY_LEVEL - 1,
  78:/usr/include/x86_64-linux-gnu/bits/stdio2.h **** 				    __bos (__s), __fmt, __ap);
  79:/usr/include/x86_64-linux-gnu/bits/stdio2.h **** }
  80:/usr/include/x86_64-linux-gnu/bits/stdio2.h **** 
  81:/usr/include/x86_64-linux-gnu/bits/stdio2.h **** #endif
  82:/usr/include/x86_64-linux-gnu/bits/stdio2.h **** 
  83:/usr/include/x86_64-linux-gnu/bits/stdio2.h **** #if __USE_FORTIFY_LEVEL > 1
  84:/usr/include/x86_64-linux-gnu/bits/stdio2.h **** 
  85:/usr/include/x86_64-linux-gnu/bits/stdio2.h **** extern int __fprintf_chk (FILE *__restrict __stream, int __flag,
  86:/usr/include/x86_64-linux-gnu/bits/stdio2.h **** 			  const char *__restrict __format, ...);
  87:/usr/include/x86_64-linux-gnu/bits/stdio2.h **** extern int __printf_chk (int __flag, const char *__restrict __format, ...);
  88:/usr/include/x86_64-linux-gnu/bits/stdio2.h **** extern int __vfprintf_chk (FILE *__restrict __stream, int __flag,
  89:/usr/include/x86_64-linux-gnu/bits/stdio2.h **** 			   const char *__restrict __format, _G_va_list __ap);
  90:/usr/include/x86_64-linux-gnu/bits/stdio2.h **** extern int __vprintf_chk (int __flag, const char *__restrict __format,
  91:/usr/include/x86_64-linux-gnu/bits/stdio2.h **** 			  _G_va_list __ap);
  92:/usr/include/x86_64-linux-gnu/bits/stdio2.h **** 
  93:/usr/include/x86_64-linux-gnu/bits/stdio2.h **** # ifdef __va_arg_pack
  94:/usr/include/x86_64-linux-gnu/bits/stdio2.h **** __fortify_function int
  95:/usr/include/x86_64-linux-gnu/bits/stdio2.h **** fprintf (FILE *__restrict __stream, const char *__restrict __fmt, ...)
  96:/usr/include/x86_64-linux-gnu/bits/stdio2.h **** {
  97:/usr/include/x86_64-linux-gnu/bits/stdio2.h ****   return __fprintf_chk (__stream, __USE_FORTIFY_LEVEL - 1, __fmt,
  98:/usr/include/x86_64-linux-gnu/bits/stdio2.h **** 			__va_arg_pack ());
  99:/usr/include/x86_64-linux-gnu/bits/stdio2.h **** }
 100:/usr/include/x86_64-linux-gnu/bits/stdio2.h **** 
 101:/usr/include/x86_64-linux-gnu/bits/stdio2.h **** __fortify_function int
 102:/usr/include/x86_64-linux-gnu/bits/stdio2.h **** printf (const char *__restrict __fmt, ...)
 103:/usr/include/x86_64-linux-gnu/bits/stdio2.h **** {
 104:/usr/include/x86_64-linux-gnu/bits/stdio2.h ****   return __printf_chk (__USE_FORTIFY_LEVEL - 1, __fmt, __va_arg_pack ());
 105              		.loc 2 104 0 discriminator 1
 106 0088 89DA     		movl	%ebx, %edx
 107 008a BE000000 		movl	$.LC9, %esi
 107      00
 108 008f BF010000 		movl	$1, %edi
 108      00
 109 0094 B8000000 		movl	$0, %eax
 109      00
GAS LISTING /tmp/cc7S6m1k.s 			page 8


 110 0099 E8000000 		call	__printf_chk
 110      00
 111              	.LVL13:
 112              	.LBE9:
 113              	.LBE8:
 142:src/main.c    **** 		hsm_handleEvent( &sys, NULL );
 114              		.loc 1 142 0 discriminator 1
 115 009e BE000000 		movl	$0, %esi
 115      00
 116 00a3 488D7C24 		leaq	32(%rsp), %rdi
 116      20
 117 00a8 E8000000 		call	hsm_handleEvent
 117      00
 118              	.LVL14:
 119              	.LBB10:
 120              	.LBB11:
 105:/usr/include/x86_64-linux-gnu/bits/stdio2.h **** }
 106:/usr/include/x86_64-linux-gnu/bits/stdio2.h **** # elif !defined __cplusplus
 107:/usr/include/x86_64-linux-gnu/bits/stdio2.h **** #  define printf(...) \
 108:/usr/include/x86_64-linux-gnu/bits/stdio2.h ****   __printf_chk (__USE_FORTIFY_LEVEL - 1, __VA_ARGS__)
 109:/usr/include/x86_64-linux-gnu/bits/stdio2.h **** #  define fprintf(stream, ...) \
 110:/usr/include/x86_64-linux-gnu/bits/stdio2.h ****   __fprintf_chk (stream, __USE_FORTIFY_LEVEL - 1, __VA_ARGS__)
 111:/usr/include/x86_64-linux-gnu/bits/stdio2.h **** # endif
 112:/usr/include/x86_64-linux-gnu/bits/stdio2.h **** 
 113:/usr/include/x86_64-linux-gnu/bits/stdio2.h **** __fortify_function int
 114:/usr/include/x86_64-linux-gnu/bits/stdio2.h **** vprintf (const char *__restrict __fmt, _G_va_list __ap)
 115:/usr/include/x86_64-linux-gnu/bits/stdio2.h **** {
 116:/usr/include/x86_64-linux-gnu/bits/stdio2.h **** #ifdef __USE_EXTERN_INLINES
 117:/usr/include/x86_64-linux-gnu/bits/stdio2.h ****   return __vfprintf_chk (stdout, __USE_FORTIFY_LEVEL - 1, __fmt, __ap);
 118:/usr/include/x86_64-linux-gnu/bits/stdio2.h **** #else
 119:/usr/include/x86_64-linux-gnu/bits/stdio2.h ****   return __vprintf_chk (__USE_FORTIFY_LEVEL - 1, __fmt, __ap);
 120:/usr/include/x86_64-linux-gnu/bits/stdio2.h **** #endif
 121:/usr/include/x86_64-linux-gnu/bits/stdio2.h **** }
 122:/usr/include/x86_64-linux-gnu/bits/stdio2.h **** 
 123:/usr/include/x86_64-linux-gnu/bits/stdio2.h **** __fortify_function int
 124:/usr/include/x86_64-linux-gnu/bits/stdio2.h **** vfprintf (FILE *__restrict __stream,
 125:/usr/include/x86_64-linux-gnu/bits/stdio2.h **** 	  const char *__restrict __fmt, _G_va_list __ap)
 126:/usr/include/x86_64-linux-gnu/bits/stdio2.h **** {
 127:/usr/include/x86_64-linux-gnu/bits/stdio2.h ****   return __vfprintf_chk (__stream, __USE_FORTIFY_LEVEL - 1, __fmt, __ap);
 128:/usr/include/x86_64-linux-gnu/bits/stdio2.h **** }
 129:/usr/include/x86_64-linux-gnu/bits/stdio2.h **** 
 130:/usr/include/x86_64-linux-gnu/bits/stdio2.h **** # ifdef __USE_XOPEN2K8
 131:/usr/include/x86_64-linux-gnu/bits/stdio2.h **** extern int __dprintf_chk (int __fd, int __flag, const char *__restrict __fmt,
 132:/usr/include/x86_64-linux-gnu/bits/stdio2.h **** 			  ...) __attribute__ ((__format__ (__printf__, 3, 4)));
 133:/usr/include/x86_64-linux-gnu/bits/stdio2.h **** extern int __vdprintf_chk (int __fd, int __flag,
 134:/usr/include/x86_64-linux-gnu/bits/stdio2.h **** 			   const char *__restrict __fmt, _G_va_list __arg)
 135:/usr/include/x86_64-linux-gnu/bits/stdio2.h ****      __attribute__ ((__format__ (__printf__, 3, 0)));
 136:/usr/include/x86_64-linux-gnu/bits/stdio2.h **** 
 137:/usr/include/x86_64-linux-gnu/bits/stdio2.h **** #  ifdef __va_arg_pack
 138:/usr/include/x86_64-linux-gnu/bits/stdio2.h **** __fortify_function int
 139:/usr/include/x86_64-linux-gnu/bits/stdio2.h **** dprintf (int __fd, const char *__restrict __fmt, ...)
 140:/usr/include/x86_64-linux-gnu/bits/stdio2.h **** {
 141:/usr/include/x86_64-linux-gnu/bits/stdio2.h ****   return __dprintf_chk (__fd, __USE_FORTIFY_LEVEL - 1, __fmt,
 142:/usr/include/x86_64-linux-gnu/bits/stdio2.h **** 			__va_arg_pack ());
 143:/usr/include/x86_64-linux-gnu/bits/stdio2.h **** }
 144:/usr/include/x86_64-linux-gnu/bits/stdio2.h **** #  elif !defined __cplusplus
 145:/usr/include/x86_64-linux-gnu/bits/stdio2.h **** #   define dprintf(fd, ...) \
GAS LISTING /tmp/cc7S6m1k.s 			page 9


 146:/usr/include/x86_64-linux-gnu/bits/stdio2.h ****   __dprintf_chk (fd, __USE_FORTIFY_LEVEL - 1, __VA_ARGS__)
 147:/usr/include/x86_64-linux-gnu/bits/stdio2.h **** #  endif
 148:/usr/include/x86_64-linux-gnu/bits/stdio2.h **** 
 149:/usr/include/x86_64-linux-gnu/bits/stdio2.h **** __fortify_function int
 150:/usr/include/x86_64-linux-gnu/bits/stdio2.h **** vdprintf (int __fd, const char *__restrict __fmt, _G_va_list __ap)
 151:/usr/include/x86_64-linux-gnu/bits/stdio2.h **** {
 152:/usr/include/x86_64-linux-gnu/bits/stdio2.h ****   return __vdprintf_chk (__fd, __USE_FORTIFY_LEVEL - 1, __fmt, __ap);
 153:/usr/include/x86_64-linux-gnu/bits/stdio2.h **** }
 154:/usr/include/x86_64-linux-gnu/bits/stdio2.h **** # endif
 155:/usr/include/x86_64-linux-gnu/bits/stdio2.h **** 
 156:/usr/include/x86_64-linux-gnu/bits/stdio2.h **** # ifdef __USE_GNU
 157:/usr/include/x86_64-linux-gnu/bits/stdio2.h **** 
 158:/usr/include/x86_64-linux-gnu/bits/stdio2.h **** extern int __asprintf_chk (char **__restrict __ptr, int __flag,
 159:/usr/include/x86_64-linux-gnu/bits/stdio2.h **** 			   const char *__restrict __fmt, ...)
 160:/usr/include/x86_64-linux-gnu/bits/stdio2.h ****      __THROW __attribute__ ((__format__ (__printf__, 3, 4))) __wur;
 161:/usr/include/x86_64-linux-gnu/bits/stdio2.h **** extern int __vasprintf_chk (char **__restrict __ptr, int __flag,
 162:/usr/include/x86_64-linux-gnu/bits/stdio2.h **** 			    const char *__restrict __fmt, _G_va_list __arg)
 163:/usr/include/x86_64-linux-gnu/bits/stdio2.h ****      __THROW __attribute__ ((__format__ (__printf__, 3, 0))) __wur;
 164:/usr/include/x86_64-linux-gnu/bits/stdio2.h **** extern int __obstack_printf_chk (struct obstack *__restrict __obstack,
 165:/usr/include/x86_64-linux-gnu/bits/stdio2.h **** 				 int __flag, const char *__restrict __format,
 166:/usr/include/x86_64-linux-gnu/bits/stdio2.h **** 				 ...)
 167:/usr/include/x86_64-linux-gnu/bits/stdio2.h ****      __THROW __attribute__ ((__format__ (__printf__, 3, 4)));
 168:/usr/include/x86_64-linux-gnu/bits/stdio2.h **** extern int __obstack_vprintf_chk (struct obstack *__restrict __obstack,
 169:/usr/include/x86_64-linux-gnu/bits/stdio2.h **** 				  int __flag,
 170:/usr/include/x86_64-linux-gnu/bits/stdio2.h **** 				  const char *__restrict __format,
 171:/usr/include/x86_64-linux-gnu/bits/stdio2.h **** 				  _G_va_list __args)
 172:/usr/include/x86_64-linux-gnu/bits/stdio2.h ****      __THROW __attribute__ ((__format__ (__printf__, 3, 0)));
 173:/usr/include/x86_64-linux-gnu/bits/stdio2.h **** 
 174:/usr/include/x86_64-linux-gnu/bits/stdio2.h **** #  ifdef __va_arg_pack
 175:/usr/include/x86_64-linux-gnu/bits/stdio2.h **** __fortify_function int
 176:/usr/include/x86_64-linux-gnu/bits/stdio2.h **** __NTH (asprintf (char **__restrict __ptr, const char *__restrict __fmt, ...))
 177:/usr/include/x86_64-linux-gnu/bits/stdio2.h **** {
 178:/usr/include/x86_64-linux-gnu/bits/stdio2.h ****   return __asprintf_chk (__ptr, __USE_FORTIFY_LEVEL - 1, __fmt,
 179:/usr/include/x86_64-linux-gnu/bits/stdio2.h **** 			 __va_arg_pack ());
 180:/usr/include/x86_64-linux-gnu/bits/stdio2.h **** }
 181:/usr/include/x86_64-linux-gnu/bits/stdio2.h **** 
 182:/usr/include/x86_64-linux-gnu/bits/stdio2.h **** __fortify_function int
 183:/usr/include/x86_64-linux-gnu/bits/stdio2.h **** __NTH (__asprintf (char **__restrict __ptr, const char *__restrict __fmt,
 184:/usr/include/x86_64-linux-gnu/bits/stdio2.h **** 		   ...))
 185:/usr/include/x86_64-linux-gnu/bits/stdio2.h **** {
 186:/usr/include/x86_64-linux-gnu/bits/stdio2.h ****   return __asprintf_chk (__ptr, __USE_FORTIFY_LEVEL - 1, __fmt,
 187:/usr/include/x86_64-linux-gnu/bits/stdio2.h **** 			 __va_arg_pack ());
 188:/usr/include/x86_64-linux-gnu/bits/stdio2.h **** }
 189:/usr/include/x86_64-linux-gnu/bits/stdio2.h **** 
 190:/usr/include/x86_64-linux-gnu/bits/stdio2.h **** __fortify_function int
 191:/usr/include/x86_64-linux-gnu/bits/stdio2.h **** __NTH (obstack_printf (struct obstack *__restrict __obstack,
 192:/usr/include/x86_64-linux-gnu/bits/stdio2.h **** 		       const char *__restrict __fmt, ...))
 193:/usr/include/x86_64-linux-gnu/bits/stdio2.h **** {
 194:/usr/include/x86_64-linux-gnu/bits/stdio2.h ****   return __obstack_printf_chk (__obstack, __USE_FORTIFY_LEVEL - 1, __fmt,
 195:/usr/include/x86_64-linux-gnu/bits/stdio2.h **** 			       __va_arg_pack ());
 196:/usr/include/x86_64-linux-gnu/bits/stdio2.h **** }
 197:/usr/include/x86_64-linux-gnu/bits/stdio2.h **** #  elif !defined __cplusplus
 198:/usr/include/x86_64-linux-gnu/bits/stdio2.h **** #   define asprintf(ptr, ...) \
 199:/usr/include/x86_64-linux-gnu/bits/stdio2.h ****   __asprintf_chk (ptr, __USE_FORTIFY_LEVEL - 1, __VA_ARGS__)
 200:/usr/include/x86_64-linux-gnu/bits/stdio2.h **** #   define __asprintf(ptr, ...) \
 201:/usr/include/x86_64-linux-gnu/bits/stdio2.h ****   __asprintf_chk (ptr, __USE_FORTIFY_LEVEL - 1, __VA_ARGS__)
 202:/usr/include/x86_64-linux-gnu/bits/stdio2.h **** #   define obstack_printf(obstack, ...) \
GAS LISTING /tmp/cc7S6m1k.s 			page 10


 203:/usr/include/x86_64-linux-gnu/bits/stdio2.h ****   __obstack_printf_chk (obstack, __USE_FORTIFY_LEVEL - 1, __VA_ARGS__)
 204:/usr/include/x86_64-linux-gnu/bits/stdio2.h **** #  endif
 205:/usr/include/x86_64-linux-gnu/bits/stdio2.h **** 
 206:/usr/include/x86_64-linux-gnu/bits/stdio2.h **** __fortify_function int
 207:/usr/include/x86_64-linux-gnu/bits/stdio2.h **** __NTH (vasprintf (char **__restrict __ptr, const char *__restrict __fmt,
 208:/usr/include/x86_64-linux-gnu/bits/stdio2.h **** 		  _G_va_list __ap))
 209:/usr/include/x86_64-linux-gnu/bits/stdio2.h **** {
 210:/usr/include/x86_64-linux-gnu/bits/stdio2.h ****   return __vasprintf_chk (__ptr, __USE_FORTIFY_LEVEL - 1, __fmt, __ap);
 211:/usr/include/x86_64-linux-gnu/bits/stdio2.h **** }
 212:/usr/include/x86_64-linux-gnu/bits/stdio2.h **** 
 213:/usr/include/x86_64-linux-gnu/bits/stdio2.h **** __fortify_function int
 214:/usr/include/x86_64-linux-gnu/bits/stdio2.h **** __NTH (obstack_vprintf (struct obstack *__restrict __obstack,
 215:/usr/include/x86_64-linux-gnu/bits/stdio2.h **** 			const char *__restrict __fmt, _G_va_list __ap))
 216:/usr/include/x86_64-linux-gnu/bits/stdio2.h **** {
 217:/usr/include/x86_64-linux-gnu/bits/stdio2.h ****   return __obstack_vprintf_chk (__obstack, __USE_FORTIFY_LEVEL - 1, __fmt,
 218:/usr/include/x86_64-linux-gnu/bits/stdio2.h **** 				__ap);
 219:/usr/include/x86_64-linux-gnu/bits/stdio2.h **** }
 220:/usr/include/x86_64-linux-gnu/bits/stdio2.h **** 
 221:/usr/include/x86_64-linux-gnu/bits/stdio2.h **** # endif
 222:/usr/include/x86_64-linux-gnu/bits/stdio2.h **** 
 223:/usr/include/x86_64-linux-gnu/bits/stdio2.h **** #endif
 224:/usr/include/x86_64-linux-gnu/bits/stdio2.h **** 
 225:/usr/include/x86_64-linux-gnu/bits/stdio2.h **** #if !defined __USE_ISOC11 \
 226:/usr/include/x86_64-linux-gnu/bits/stdio2.h ****     || (defined __cplusplus && __cplusplus <= 201103L && !defined __USE_GNU)
 227:/usr/include/x86_64-linux-gnu/bits/stdio2.h **** extern char *__gets_chk (char *__str, size_t) __wur;
 228:/usr/include/x86_64-linux-gnu/bits/stdio2.h **** extern char *__REDIRECT (__gets_warn, (char *__str), gets)
 229:/usr/include/x86_64-linux-gnu/bits/stdio2.h ****      __wur __warnattr ("please use fgets or getline instead, gets can't "
 230:/usr/include/x86_64-linux-gnu/bits/stdio2.h **** 		       "specify buffer size");
 231:/usr/include/x86_64-linux-gnu/bits/stdio2.h **** 
 232:/usr/include/x86_64-linux-gnu/bits/stdio2.h **** __fortify_function __wur char *
 233:/usr/include/x86_64-linux-gnu/bits/stdio2.h **** gets (char *__str)
 234:/usr/include/x86_64-linux-gnu/bits/stdio2.h **** {
 235:/usr/include/x86_64-linux-gnu/bits/stdio2.h ****   if (__bos (__str) != (size_t) -1)
 236:/usr/include/x86_64-linux-gnu/bits/stdio2.h ****     return __gets_chk (__str, __bos (__str));
 237:/usr/include/x86_64-linux-gnu/bits/stdio2.h ****   return __gets_warn (__str);
 238:/usr/include/x86_64-linux-gnu/bits/stdio2.h **** }
 239:/usr/include/x86_64-linux-gnu/bits/stdio2.h **** #endif
 240:/usr/include/x86_64-linux-gnu/bits/stdio2.h **** 
 241:/usr/include/x86_64-linux-gnu/bits/stdio2.h **** extern char *__fgets_chk (char *__restrict __s, size_t __size, int __n,
 242:/usr/include/x86_64-linux-gnu/bits/stdio2.h **** 			  FILE *__restrict __stream) __wur;
 243:/usr/include/x86_64-linux-gnu/bits/stdio2.h **** extern char *__REDIRECT (__fgets_alias,
 244:/usr/include/x86_64-linux-gnu/bits/stdio2.h **** 			 (char *__restrict __s, int __n,
 245:/usr/include/x86_64-linux-gnu/bits/stdio2.h **** 			  FILE *__restrict __stream), fgets) __wur;
 246:/usr/include/x86_64-linux-gnu/bits/stdio2.h **** extern char *__REDIRECT (__fgets_chk_warn,
 247:/usr/include/x86_64-linux-gnu/bits/stdio2.h **** 			 (char *__restrict __s, size_t __size, int __n,
 248:/usr/include/x86_64-linux-gnu/bits/stdio2.h **** 			  FILE *__restrict __stream), __fgets_chk)
 249:/usr/include/x86_64-linux-gnu/bits/stdio2.h ****      __wur __warnattr ("fgets called with bigger size than length "
 250:/usr/include/x86_64-linux-gnu/bits/stdio2.h **** 		       "of destination buffer");
 251:/usr/include/x86_64-linux-gnu/bits/stdio2.h **** 
 252:/usr/include/x86_64-linux-gnu/bits/stdio2.h **** __fortify_function __wur char *
 253:/usr/include/x86_64-linux-gnu/bits/stdio2.h **** fgets (char *__restrict __s, int __n, FILE *__restrict __stream)
 254:/usr/include/x86_64-linux-gnu/bits/stdio2.h **** {
 255:/usr/include/x86_64-linux-gnu/bits/stdio2.h ****   if (__bos (__s) != (size_t) -1)
 256:/usr/include/x86_64-linux-gnu/bits/stdio2.h ****     {
 257:/usr/include/x86_64-linux-gnu/bits/stdio2.h ****       if (!__builtin_constant_p (__n) || __n <= 0)
 258:/usr/include/x86_64-linux-gnu/bits/stdio2.h **** 	return __fgets_chk (__s, __bos (__s), __n, __stream);
 259:/usr/include/x86_64-linux-gnu/bits/stdio2.h **** 
GAS LISTING /tmp/cc7S6m1k.s 			page 11


 260:/usr/include/x86_64-linux-gnu/bits/stdio2.h ****       if ((size_t) __n > __bos (__s))
 261:/usr/include/x86_64-linux-gnu/bits/stdio2.h **** 	return __fgets_chk_warn (__s, __bos (__s), __n, __stream);
 262:/usr/include/x86_64-linux-gnu/bits/stdio2.h ****     }
 263:/usr/include/x86_64-linux-gnu/bits/stdio2.h ****   return __fgets_alias (__s, __n, __stream);
 121              		.loc 2 263 0 discriminator 1
 122 00ad 488B1500 		movq	stdin(%rip), %rdx
 122      000000
 123 00b4 BE0A0000 		movl	$10, %esi
 123      00
 124 00b9 488D7C24 		leaq	64(%rsp), %rdi
 124      40
 125              	.LVL15:
 126 00be E8000000 		call	fgets
 126      00
 127              	.LVL16:
 128 00c3 EBC0     		jmp	.L2
 129              	.LBE11:
 130              	.LBE10:
 131              	.LBE7:
 132              		.cfi_endproc
 133              	.LFE38:
 135              		.section	.data.stateList,"aw",@progbits
 136              		.align 32
 139              	stateList:
 140 0000 00000000 		.quad	topA
 140      00000000 
 141 0008 00000000 		.quad	subA1
 141      00000000 
 142 0010 00000000 		.quad	subA2
 142      00000000 
 143 0018 00000000 		.quad	topB
 143      00000000 
 144 0020 00000000 		.quad	subB1
 144      00000000 
 145              		.section	.data.__compound_literal.2,"aw",@progbits
 146              		.align 16
 149              	__compound_literal.2:
 150 0000 00000000 		.quad	0
 150      00000000 
 151 0008 00000000 		.quad	0
 151      00000000 
 152 0010 00000000 		.quad	subA1
 152      00000000 
 153              		.section	.data.__compound_literal.1,"aw",@progbits
 154              		.align 16
 157              	__compound_literal.1:
 158 0000 00000000 		.quad	0
 158      00000000 
 159 0008 00000000 		.quad	0
 159      00000000 
 160 0010 00000000 		.quad	subB1
 160      00000000 
 161              		.section	.data.__compound_literal.0,"aw",@progbits
 162              		.align 16
 165              	__compound_literal.0:
 166 0000 00000000 		.quad	0
 166      00000000 
GAS LISTING /tmp/cc7S6m1k.s 			page 12


 167 0008 00000000 		.quad	0
 167      00000000 
 168 0010 00000000 		.quad	subA2
 168      00000000 
 169              		.section	.rodata.str1.1
 170              	.LC10:
 171 005c 73756242 		.string	"subB1"
 171      3100
 172              		.section	.data.subB1,"aw",@progbits
 173              		.align 32
 176              	subB1:
 177 0000 00000000 		.quad	0
 177      00000000 
 178 0008 00000000 		.quad	topB
 178      00000000 
 179 0010 00000000 		.quad	0
 179      00000000 
 180 0018 00000000 		.quad	0
 180      00000000 
 181 0020 00000000 		.quad	0
 181      00000000 
 182 0028 00000000 		.quad	__compound_literal.2
 182      00000000 
 183 0030 01000000 		.long	1
 184 0034 00000000 		.zero	12
 184      00000000 
 184      00000000 
 185 0040 00000000 		.quad	.LC10
 185      00000000 
 186              		.section	.rodata.str1.1
 187              	.LC11:
 188 0062 20746F70 		.string	" topB"
 188      4200
 189              		.section	.data.topB,"aw",@progbits
 190              		.align 32
 193              	topB:
 194 0000 00000000 		.quad	subB1
 194      00000000 
 195 0008 00000000 		.quad	0
 195      00000000 
 196 0010 00000000 		.quad	0
 196      00000000 
 197 0018 00000000 		.quad	0
 197      00000000 
 198 0020 00000000 		.quad	0
 198      00000000 
 199 0028 00000000 		.quad	0
 199      00000000 
 200 0030 00000000 		.long	0
 201 0034 00000000 		.zero	12
 201      00000000 
 201      00000000 
 202 0040 00000000 		.quad	.LC11
 202      00000000 
 203              		.section	.rodata.str1.1
 204              	.LC12:
 205 0068 73756241 		.string	"subA2"
GAS LISTING /tmp/cc7S6m1k.s 			page 13


 205      3200
 206              		.section	.data.subA2,"aw",@progbits
 207              		.align 32
 210              	subA2:
 211 0000 00000000 		.quad	0
 211      00000000 
 212 0008 00000000 		.quad	topA
 212      00000000 
 213 0010 00000000 		.quad	0
 213      00000000 
 214 0018 00000000 		.quad	0
 214      00000000 
 215 0020 00000000 		.quad	0
 215      00000000 
 216 0028 00000000 		.quad	__compound_literal.1
 216      00000000 
 217 0030 01000000 		.long	1
 218 0034 00000000 		.zero	12
 218      00000000 
 218      00000000 
 219 0040 00000000 		.quad	.LC12
 219      00000000 
 220              		.section	.rodata.str1.1
 221              	.LC13:
 222 006e 73756241 		.string	"subA1"
 222      3100
 223              		.section	.data.subA1,"aw",@progbits
 224              		.align 32
 227              	subA1:
 228 0000 00000000 		.quad	0
 228      00000000 
 229 0008 00000000 		.quad	topA
 229      00000000 
 230 0010 00000000 		.quad	0
 230      00000000 
 231 0018 00000000 		.quad	0
 231      00000000 
 232 0020 00000000 		.quad	0
 232      00000000 
 233 0028 00000000 		.quad	__compound_literal.0
 233      00000000 
 234 0030 01000000 		.long	1
 235 0034 00000000 		.zero	12
 235      00000000 
 235      00000000 
 236 0040 00000000 		.quad	.LC13
 236      00000000 
 237              		.section	.rodata.str1.1
 238              	.LC14:
 239 0074 20746F70 		.string	" topA"
 239      4100
 240              		.section	.data.topA,"aw",@progbits
 241              		.align 32
 244              	topA:
 245 0000 00000000 		.quad	subA1
 245      00000000 
 246 0008 00000000 		.quad	0
GAS LISTING /tmp/cc7S6m1k.s 			page 14


 246      00000000 
 247 0010 00000000 		.quad	0
 247      00000000 
 248 0018 00000000 		.quad	0
 248      00000000 
 249 0020 00000000 		.quad	0
 249      00000000 
 250 0028 00000000 		.quad	0
 250      00000000 
 251 0030 00000000 		.long	0
 252 0034 00000000 		.zero	12
 252      00000000 
 252      00000000 
 253 0040 00000000 		.quad	.LC14
 253      00000000 
 254              		.text
 255              	.Letext0:
 256              		.file 3 "/usr/include/stdint.h"
 257              		.file 4 "src/console.h"
 258              		.file 5 "src/hsm.h"
 259              		.file 6 "/usr/lib/gcc/x86_64-linux-gnu/5/include/stddef.h"
 260              		.file 7 "/usr/include/x86_64-linux-gnu/bits/types.h"
 261              		.file 8 "/usr/include/stdio.h"
 262              		.file 9 "/usr/include/libio.h"
GAS LISTING /tmp/cc7S6m1k.s 			page 15


DEFINED SYMBOLS
                            *ABS*:0000000000000000 main.c
     /tmp/cc7S6m1k.s:30     .text.main:0000000000000000 main
     /tmp/cc7S6m1k.s:139    .data.stateList:0000000000000000 stateList
     /tmp/cc7S6m1k.s:244    .data.topA:0000000000000000 topA
     /tmp/cc7S6m1k.s:227    .data.subA1:0000000000000000 subA1
     /tmp/cc7S6m1k.s:210    .data.subA2:0000000000000000 subA2
     /tmp/cc7S6m1k.s:193    .data.topB:0000000000000000 topB
     /tmp/cc7S6m1k.s:176    .data.subB1:0000000000000000 subB1
     /tmp/cc7S6m1k.s:149    .data.__compound_literal.2:0000000000000000 __compound_literal.2
     /tmp/cc7S6m1k.s:157    .data.__compound_literal.1:0000000000000000 __compound_literal.1
     /tmp/cc7S6m1k.s:165    .data.__compound_literal.0:0000000000000000 __compound_literal.0

UNDEFINED SYMBOLS
console_build
_hsm_build
__printf_chk
hsm_handleEvent
stdin
fgets
